TI ARM Assembler PC v5.2.2 Thu Mar 10 16:27:00 2016

Tools Copyright (c) 1996-2015 Texas Instruments Incorporated
list.asm                                                             PAGE    1

       1                    ;******************************************************************************
       2                    ;* TI ARM C/C++ Codegen                                             PC v5.2.2 *
       3                    ;* Date/Time created: Thu Mar 10 16:27:00 2016                                *
       4                    ;******************************************************************************
       5                            .compiler_opts --abi=eabi --arm_vmrs_si_workaround=off --code_state=16 --diag_wrap=off --disab
       6 00000000                   .thumb
       7                    
       8                    $C$DW$CU        .dwtag  DW_TAG_compile_unit
       9                            .dwattr $C$DW$CU, DW_AT_name("H:/EECS_690/TI_ARM_Tiva_Projects_EECS_690_Sp16/Source/list.c")
      10                            .dwattr $C$DW$CU, DW_AT_producer("TI TI ARM C/C++ Codegen PC v5.2.2 Copyright (c) 1996-2015 Te
      11                            .dwattr $C$DW$CU, DW_AT_TI_version(0x01)
      12                            .dwattr $C$DW$CU, DW_AT_comp_dir("H:\EECS_690\TI_ARM_Tiva_Projects_EECS_690_Sp16\FreeRTOS823_3
      13                    ;       C:\TI_CodeComposer\ccsv6\tools\compiler\ti-cgt-arm_5.2.2\bin\armacpia.exe -@C:\\Users\\callmon
      14 00000000                   .sect   ".text"
      15                            .clink
      16                            .thumbfunc vListInitialise
      17 00000000                   .thumb
      18                            .global vListInitialise
      19                    
      20                    $C$DW$1 .dwtag  DW_TAG_subprogram, DW_AT_name("vListInitialise")
      21                            .dwattr $C$DW$1, DW_AT_low_pc(vListInitialise)
      22                            .dwattr $C$DW$1, DW_AT_high_pc(0x00)
      23                            .dwattr $C$DW$1, DW_AT_TI_symbol_name("vListInitialise")
      24                            .dwattr $C$DW$1, DW_AT_external
      25                            .dwattr $C$DW$1, DW_AT_TI_begin_file("H:/EECS_690/TI_ARM_Tiva_Projects_EECS_690_Sp16/Source/li
      26                            .dwattr $C$DW$1, DW_AT_TI_begin_line(0x4f)
      27                            .dwattr $C$DW$1, DW_AT_TI_begin_column(0x06)
      28                            .dwattr $C$DW$1, DW_AT_decl_file("H:/EECS_690/TI_ARM_Tiva_Projects_EECS_690_Sp16/Source/list.c
      29                            .dwattr $C$DW$1, DW_AT_decl_line(0x4f)
      30                            .dwattr $C$DW$1, DW_AT_decl_column(0x06)
      31                            .dwattr $C$DW$1, DW_AT_TI_max_frame_size(0x08)
      32                            .dwpsn  file "H:/EECS_690/TI_ARM_Tiva_Projects_EECS_690_Sp16/Source/list.c",line 80,column 1,i
      33                    
      34                            .dwfde $C$DW$CIE, vListInitialise
      35                    $C$DW$2 .dwtag  DW_TAG_formal_parameter, DW_AT_name("pxList")
      36                            .dwattr $C$DW$2, DW_AT_TI_symbol_name("pxList")
      37                            .dwattr $C$DW$2, DW_AT_type(*$C$DW$T$43)
      38                            .dwattr $C$DW$2, DW_AT_location[DW_OP_reg0]
      39                    
      40                    ;*****************************************************************************
      41                    ;* FUNCTION NAME: vListInitialise                                            *
      42                    ;*                                                                           *
      43                    ;*   Regs Modified     : A1,A2,SP,SR                                         *
      44                    ;*   Regs Used         : A1,A2,SP,LR,SR                                      *
      45                    ;*   Local Frame Size  : 0 Args + 4 Auto + 0 Save = 4 byte                   *
      46                    ;*****************************************************************************
      47 00000000           vListInitialise:
      48                    ;* --------------------------------------------------------------------------*
      49                            .dwcfi  cfa_offset, 0
      50 00000000 0D08F1AD          SUB       SP, SP, #8            ; [DPU_3_PIPE]  ; [KEEP 32-BIT INS]
      51                            .dwcfi  cfa_offset, 8
      52                    $C$DW$3 .dwtag  DW_TAG_variable, DW_AT_name("pxList")
      53                            .dwattr $C$DW$3, DW_AT_TI_symbol_name("pxList")
      54                            .dwattr $C$DW$3, DW_AT_type(*$C$DW$T$43)
      55                            .dwattr $C$DW$3, DW_AT_location[DW_OP_breg13 0]
TI ARM Assembler PC v5.2.2 Thu Mar 10 16:27:00 2016

Tools Copyright (c) 1996-2015 Texas Instruments Incorporated
list.asm                                                             PAGE    2

      56 00000004 9000              STR       A1, [SP, #0]          ; [DPU_3_PIPE] |80|  ; [ORIG 16-BIT INS]
      57                            .dwpsn  file "H:/EECS_690/TI_ARM_Tiva_Projects_EECS_690_Sp16/Source/list.c",line 84,column 2,i
      58 00000006 9800              LDR       A1, [SP, #0]          ; [DPU_3_PIPE] |84|  ; [ORIG 16-BIT INS]
      59 00000008 9900              LDR       A2, [SP, #0]          ; [DPU_3_PIPE] |84|  ; [ORIG 16-BIT INS]
      60 0000000a 3008              ADDS      A1, A1, #8            ; [DPU_3_PIPE] |84|  ; [ORIG 16-BIT INS]
      61 0000000c 6048              STR       A1, [A2, #4]          ; [DPU_3_PIPE] |84|  ; [ORIG 16-BIT INS]
      62                            .dwpsn  file "H:/EECS_690/TI_ARM_Tiva_Projects_EECS_690_Sp16/Source/list.c",line 88,column 2,i
      63 0000000e 9800              LDR       A1, [SP, #0]          ; [DPU_3_PIPE] |88|  ; [ORIG 16-BIT INS]
      64 00000010 31FFF04F          MOV       A2, #-1               ; [DPU_3_PIPE] |88|  ; [KEEP 32-BIT INS]
      65 00000014 6081              STR       A2, [A1, #8]          ; [DPU_3_PIPE] |88|  ; [ORIG 16-BIT INS]
      66                            .dwpsn  file "H:/EECS_690/TI_ARM_Tiva_Projects_EECS_690_Sp16/Source/list.c",line 92,column 2,i
      67 00000016 9800              LDR       A1, [SP, #0]          ; [DPU_3_PIPE] |92|  ; [ORIG 16-BIT INS]
      68 00000018 9900              LDR       A2, [SP, #0]          ; [DPU_3_PIPE] |92|  ; [ORIG 16-BIT INS]
      69 0000001a 3008              ADDS      A1, A1, #8            ; [DPU_3_PIPE] |92|  ; [ORIG 16-BIT INS]
      70 0000001c 60C8              STR       A1, [A2, #12]         ; [DPU_3_PIPE] |92|  ; [ORIG 16-BIT INS]
      71                            .dwpsn  file "H:/EECS_690/TI_ARM_Tiva_Projects_EECS_690_Sp16/Source/list.c",line 93,column 2,i
      72 0000001e 9800              LDR       A1, [SP, #0]          ; [DPU_3_PIPE] |93|  ; [ORIG 16-BIT INS]
      73 00000020 9900              LDR       A2, [SP, #0]          ; [DPU_3_PIPE] |93|  ; [ORIG 16-BIT INS]
      74 00000022 3008              ADDS      A1, A1, #8            ; [DPU_3_PIPE] |93|  ; [ORIG 16-BIT INS]
      75 00000024 6108              STR       A1, [A2, #16]         ; [DPU_3_PIPE] |93|  ; [ORIG 16-BIT INS]
      76                            .dwpsn  file "H:/EECS_690/TI_ARM_Tiva_Projects_EECS_690_Sp16/Source/list.c",line 95,column 2,i
      77 00000026 9800              LDR       A1, [SP, #0]          ; [DPU_3_PIPE] |95|  ; [ORIG 16-BIT INS]
      78 00000028 2100              MOVS      A2, #0                ; [DPU_3_PIPE] |95|  ; [ORIG 16-BIT INS]
      79 0000002a 6001              STR       A2, [A1, #0]          ; [DPU_3_PIPE] |95|  ; [ORIG 16-BIT INS]
      80                            .dwpsn  file "H:/EECS_690/TI_ARM_Tiva_Projects_EECS_690_Sp16/Source/list.c",line 101,column 1,
      81 0000002c B002              ADD       SP, SP, #8            ; [DPU_3_PIPE]  ; [ORIG 16-BIT INS]
      82                            .dwcfi  cfa_offset, 0
      83                    $C$DW$4 .dwtag  DW_TAG_TI_branch
      84                            .dwattr $C$DW$4, DW_AT_low_pc(0x00)
      85                            .dwattr $C$DW$4, DW_AT_TI_return
      86 0000002e 4770              BX        LR                    ; [DPU_3_PIPE]  ; [ORIG 16-BIT INS]
      87                            ; BRANCH OCCURS                  ; [] 
      88                            .dwattr $C$DW$1, DW_AT_TI_end_file("H:/EECS_690/TI_ARM_Tiva_Projects_EECS_690_Sp16/Source/list
      89                            .dwattr $C$DW$1, DW_AT_TI_end_line(0x65)
      90                            .dwattr $C$DW$1, DW_AT_TI_end_column(0x01)
      91                            .dwendentry
      92                            .dwendtag $C$DW$1
      93                    
      94 00000030                   .sect   ".text"
      95                            .clink
      96                            .thumbfunc vListInitialiseItem
      97 00000030                   .thumb
      98                            .global vListInitialiseItem
      99                    
     100                    $C$DW$5 .dwtag  DW_TAG_subprogram, DW_AT_name("vListInitialiseItem")
     101                            .dwattr $C$DW$5, DW_AT_low_pc(vListInitialiseItem)
     102                            .dwattr $C$DW$5, DW_AT_high_pc(0x00)
     103                            .dwattr $C$DW$5, DW_AT_TI_symbol_name("vListInitialiseItem")
     104                            .dwattr $C$DW$5, DW_AT_external
     105                            .dwattr $C$DW$5, DW_AT_TI_begin_file("H:/EECS_690/TI_ARM_Tiva_Projects_EECS_690_Sp16/Source/li
     106                            .dwattr $C$DW$5, DW_AT_TI_begin_line(0x68)
     107                            .dwattr $C$DW$5, DW_AT_TI_begin_column(0x06)
     108                            .dwattr $C$DW$5, DW_AT_decl_file("H:/EECS_690/TI_ARM_Tiva_Projects_EECS_690_Sp16/Source/list.c
     109                            .dwattr $C$DW$5, DW_AT_decl_line(0x68)
     110                            .dwattr $C$DW$5, DW_AT_decl_column(0x06)
TI ARM Assembler PC v5.2.2 Thu Mar 10 16:27:00 2016

Tools Copyright (c) 1996-2015 Texas Instruments Incorporated
list.asm                                                             PAGE    3

     111                            .dwattr $C$DW$5, DW_AT_TI_max_frame_size(0x08)
     112                            .dwpsn  file "H:/EECS_690/TI_ARM_Tiva_Projects_EECS_690_Sp16/Source/list.c",line 105,column 1,
     113                    
     114                            .dwfde $C$DW$CIE, vListInitialiseItem
     115                    $C$DW$6 .dwtag  DW_TAG_formal_parameter, DW_AT_name("pxItem")
     116                            .dwattr $C$DW$6, DW_AT_TI_symbol_name("pxItem")
     117                            .dwattr $C$DW$6, DW_AT_type(*$C$DW$T$45)
     118                            .dwattr $C$DW$6, DW_AT_location[DW_OP_reg0]
     119                    
     120                    ;*****************************************************************************
     121                    ;* FUNCTION NAME: vListInitialiseItem                                        *
     122                    ;*                                                                           *
     123                    ;*   Regs Modified     : A1,A2,SP,SR                                         *
     124                    ;*   Regs Used         : A1,A2,SP,LR,SR                                      *
     125                    ;*   Local Frame Size  : 0 Args + 4 Auto + 0 Save = 4 byte                   *
     126                    ;*****************************************************************************
     127 00000030           vListInitialiseItem:
     128                    ;* --------------------------------------------------------------------------*
     129                            .dwcfi  cfa_offset, 0
     130 00000030 0D08F1AD          SUB       SP, SP, #8            ; [DPU_3_PIPE]  ; [KEEP 32-BIT INS]
     131                            .dwcfi  cfa_offset, 8
     132                    $C$DW$7 .dwtag  DW_TAG_variable, DW_AT_name("pxItem")
     133                            .dwattr $C$DW$7, DW_AT_TI_symbol_name("pxItem")
     134                            .dwattr $C$DW$7, DW_AT_type(*$C$DW$T$45)
     135                            .dwattr $C$DW$7, DW_AT_location[DW_OP_breg13 0]
     136 00000034 9000              STR       A1, [SP, #0]          ; [DPU_3_PIPE] |105|  ; [ORIG 16-BIT INS]
     137                            .dwpsn  file "H:/EECS_690/TI_ARM_Tiva_Projects_EECS_690_Sp16/Source/list.c",line 107,column 2,
     138 00000036 9800              LDR       A1, [SP, #0]          ; [DPU_3_PIPE] |107|  ; [ORIG 16-BIT INS]
     139 00000038 2100              MOVS      A2, #0                ; [DPU_3_PIPE] |107|  ; [ORIG 16-BIT INS]
     140 0000003a 6101              STR       A2, [A1, #16]         ; [DPU_3_PIPE] |107|  ; [ORIG 16-BIT INS]
     141                            .dwpsn  file "H:/EECS_690/TI_ARM_Tiva_Projects_EECS_690_Sp16/Source/list.c",line 113,column 1,
     142 0000003c B002              ADD       SP, SP, #8            ; [DPU_3_PIPE]  ; [ORIG 16-BIT INS]
     143                            .dwcfi  cfa_offset, 0
     144                    $C$DW$8 .dwtag  DW_TAG_TI_branch
     145                            .dwattr $C$DW$8, DW_AT_low_pc(0x00)
     146                            .dwattr $C$DW$8, DW_AT_TI_return
     147 0000003e 4770              BX        LR                    ; [DPU_3_PIPE]  ; [ORIG 16-BIT INS]
     148                            ; BRANCH OCCURS                  ; [] 
     149                            .dwattr $C$DW$5, DW_AT_TI_end_file("H:/EECS_690/TI_ARM_Tiva_Projects_EECS_690_Sp16/Source/list
     150                            .dwattr $C$DW$5, DW_AT_TI_end_line(0x71)
     151                            .dwattr $C$DW$5, DW_AT_TI_end_column(0x01)
     152                            .dwendentry
     153                            .dwendtag $C$DW$5
     154                    
     155 00000040                   .sect   ".text"
     156                            .clink
     157                            .thumbfunc vListInsertEnd
     158 00000040                   .thumb
     159                            .global vListInsertEnd
     160                    
     161                    $C$DW$9 .dwtag  DW_TAG_subprogram, DW_AT_name("vListInsertEnd")
     162                            .dwattr $C$DW$9, DW_AT_low_pc(vListInsertEnd)
     163                            .dwattr $C$DW$9, DW_AT_high_pc(0x00)
     164                            .dwattr $C$DW$9, DW_AT_TI_symbol_name("vListInsertEnd")
     165                            .dwattr $C$DW$9, DW_AT_external
TI ARM Assembler PC v5.2.2 Thu Mar 10 16:27:00 2016

Tools Copyright (c) 1996-2015 Texas Instruments Incorporated
list.asm                                                             PAGE    4

     166                            .dwattr $C$DW$9, DW_AT_TI_begin_file("H:/EECS_690/TI_ARM_Tiva_Projects_EECS_690_Sp16/Source/li
     167                            .dwattr $C$DW$9, DW_AT_TI_begin_line(0x74)
     168                            .dwattr $C$DW$9, DW_AT_TI_begin_column(0x06)
     169                            .dwattr $C$DW$9, DW_AT_decl_file("H:/EECS_690/TI_ARM_Tiva_Projects_EECS_690_Sp16/Source/list.c
     170                            .dwattr $C$DW$9, DW_AT_decl_line(0x74)
     171                            .dwattr $C$DW$9, DW_AT_decl_column(0x06)
     172                            .dwattr $C$DW$9, DW_AT_TI_max_frame_size(0x10)
     173                            .dwpsn  file "H:/EECS_690/TI_ARM_Tiva_Projects_EECS_690_Sp16/Source/list.c",line 117,column 1,
     174                    
     175                            .dwfde $C$DW$CIE, vListInsertEnd
     176                    $C$DW$10        .dwtag  DW_TAG_formal_parameter, DW_AT_name("pxList")
     177                            .dwattr $C$DW$10, DW_AT_TI_symbol_name("pxList")
     178                            .dwattr $C$DW$10, DW_AT_type(*$C$DW$T$43)
     179                            .dwattr $C$DW$10, DW_AT_location[DW_OP_reg0]
     180                    $C$DW$11        .dwtag  DW_TAG_formal_parameter, DW_AT_name("pxNewListItem")
     181                            .dwattr $C$DW$11, DW_AT_TI_symbol_name("pxNewListItem")
     182                            .dwattr $C$DW$11, DW_AT_type(*$C$DW$T$45)
     183                            .dwattr $C$DW$11, DW_AT_location[DW_OP_reg1]
     184                    
     185                    ;*****************************************************************************
     186                    ;* FUNCTION NAME: vListInsertEnd                                             *
     187                    ;*                                                                           *
     188                    ;*   Regs Modified     : A1,A2,SP,SR                                         *
     189                    ;*   Regs Used         : A1,A2,SP,LR,SR                                      *
     190                    ;*   Local Frame Size  : 0 Args + 12 Auto + 0 Save = 12 byte                 *
     191                    ;*****************************************************************************
     192 00000040           vListInsertEnd:
     193                    ;* --------------------------------------------------------------------------*
     194                            .dwcfi  cfa_offset, 0
     195 00000040 0D10F1AD          SUB       SP, SP, #16           ; [DPU_3_PIPE]  ; [KEEP 32-BIT INS]
     196                            .dwcfi  cfa_offset, 16
     197                    $C$DW$12        .dwtag  DW_TAG_variable, DW_AT_name("pxList")
     198                            .dwattr $C$DW$12, DW_AT_TI_symbol_name("pxList")
     199                            .dwattr $C$DW$12, DW_AT_type(*$C$DW$T$43)
     200                            .dwattr $C$DW$12, DW_AT_location[DW_OP_breg13 0]
     201                    $C$DW$13        .dwtag  DW_TAG_variable, DW_AT_name("pxNewListItem")
     202                            .dwattr $C$DW$13, DW_AT_TI_symbol_name("pxNewListItem")
     203                            .dwattr $C$DW$13, DW_AT_type(*$C$DW$T$45)
     204                            .dwattr $C$DW$13, DW_AT_location[DW_OP_breg13 4]
     205                    $C$DW$14        .dwtag  DW_TAG_variable, DW_AT_name("pxIndex")
     206                            .dwattr $C$DW$14, DW_AT_TI_symbol_name("pxIndex")
     207                            .dwattr $C$DW$14, DW_AT_type(*$C$DW$T$45)
     208                            .dwattr $C$DW$14, DW_AT_location[DW_OP_breg13 8]
     209 00000044 9101              STR       A2, [SP, #4]          ; [DPU_3_PIPE] |117|  ; [ORIG 16-BIT INS]
     210 00000046 9000              STR       A1, [SP, #0]          ; [DPU_3_PIPE] |117|  ; [ORIG 16-BIT INS]
     211                            .dwpsn  file "H:/EECS_690/TI_ARM_Tiva_Projects_EECS_690_Sp16/Source/list.c",line 118,column 28
     212 00000048 9800              LDR       A1, [SP, #0]          ; [DPU_3_PIPE] |118|  ; [ORIG 16-BIT INS]
     213 0000004a 6840              LDR       A1, [A1, #4]          ; [DPU_3_PIPE] |118|  ; [ORIG 16-BIT INS]
     214 0000004c 9002              STR       A1, [SP, #8]          ; [DPU_3_PIPE] |118|  ; [ORIG 16-BIT INS]
     215                            .dwpsn  file "H:/EECS_690/TI_ARM_Tiva_Projects_EECS_690_Sp16/Source/list.c",line 129,column 2,
     216 0000004e 9901              LDR       A2, [SP, #4]          ; [DPU_3_PIPE] |129|  ; [ORIG 16-BIT INS]
     217 00000050 9802              LDR       A1, [SP, #8]          ; [DPU_3_PIPE] |129|  ; [ORIG 16-BIT INS]
     218 00000052 6048              STR       A1, [A2, #4]          ; [DPU_3_PIPE] |129|  ; [ORIG 16-BIT INS]
     219                            .dwpsn  file "H:/EECS_690/TI_ARM_Tiva_Projects_EECS_690_Sp16/Source/list.c",line 130,column 2,
     220 00000054 9802              LDR       A1, [SP, #8]          ; [DPU_3_PIPE] |130|  ; [ORIG 16-BIT INS]
TI ARM Assembler PC v5.2.2 Thu Mar 10 16:27:00 2016

Tools Copyright (c) 1996-2015 Texas Instruments Incorporated
list.asm                                                             PAGE    5

     221 00000056 9901              LDR       A2, [SP, #4]          ; [DPU_3_PIPE] |130|  ; [ORIG 16-BIT INS]
     222 00000058 6880              LDR       A1, [A1, #8]          ; [DPU_3_PIPE] |130|  ; [ORIG 16-BIT INS]
     223 0000005a 6088              STR       A1, [A2, #8]          ; [DPU_3_PIPE] |130|  ; [ORIG 16-BIT INS]
     224                            .dwpsn  file "H:/EECS_690/TI_ARM_Tiva_Projects_EECS_690_Sp16/Source/list.c",line 135,column 2,
     225 0000005c 9902              LDR       A2, [SP, #8]          ; [DPU_3_PIPE] |135|  ; [ORIG 16-BIT INS]
     226 0000005e 9801              LDR       A1, [SP, #4]          ; [DPU_3_PIPE] |135|  ; [ORIG 16-BIT INS]
     227 00000060 6889              LDR       A2, [A2, #8]          ; [DPU_3_PIPE] |135|  ; [ORIG 16-BIT INS]
     228 00000062 6048              STR       A1, [A2, #4]          ; [DPU_3_PIPE] |135|  ; [ORIG 16-BIT INS]
     229                            .dwpsn  file "H:/EECS_690/TI_ARM_Tiva_Projects_EECS_690_Sp16/Source/list.c",line 136,column 2,
     230 00000064 9801              LDR       A1, [SP, #4]          ; [DPU_3_PIPE] |136|  ; [ORIG 16-BIT INS]
     231 00000066 9902              LDR       A2, [SP, #8]          ; [DPU_3_PIPE] |136|  ; [ORIG 16-BIT INS]
     232 00000068 6088              STR       A1, [A2, #8]          ; [DPU_3_PIPE] |136|  ; [ORIG 16-BIT INS]
     233                            .dwpsn  file "H:/EECS_690/TI_ARM_Tiva_Projects_EECS_690_Sp16/Source/list.c",line 139,column 2,
     234 0000006a 9800              LDR       A1, [SP, #0]          ; [DPU_3_PIPE] |139|  ; [ORIG 16-BIT INS]
     235 0000006c 9901              LDR       A2, [SP, #4]          ; [DPU_3_PIPE] |139|  ; [ORIG 16-BIT INS]
     236 0000006e 6108              STR       A1, [A2, #16]         ; [DPU_3_PIPE] |139|  ; [ORIG 16-BIT INS]
     237                            .dwpsn  file "H:/EECS_690/TI_ARM_Tiva_Projects_EECS_690_Sp16/Source/list.c",line 141,column 2,
     238 00000070 9900              LDR       A2, [SP, #0]          ; [DPU_3_PIPE] |141|  ; [ORIG 16-BIT INS]
     239 00000072 6808              LDR       A1, [A2, #0]          ; [DPU_3_PIPE] |141|  ; [ORIG 16-BIT INS]
     240 00000074 1C40              ADDS      A1, A1, #1            ; [DPU_3_PIPE] |141|  ; [ORIG 16-BIT INS]
     241 00000076 6008              STR       A1, [A2, #0]          ; [DPU_3_PIPE] |141|  ; [ORIG 16-BIT INS]
     242                            .dwpsn  file "H:/EECS_690/TI_ARM_Tiva_Projects_EECS_690_Sp16/Source/list.c",line 142,column 1,
     243 00000078 B004              ADD       SP, SP, #16           ; [DPU_3_PIPE]  ; [ORIG 16-BIT INS]
     244                            .dwcfi  cfa_offset, 0
     245                    $C$DW$15        .dwtag  DW_TAG_TI_branch
     246                            .dwattr $C$DW$15, DW_AT_low_pc(0x00)
     247                            .dwattr $C$DW$15, DW_AT_TI_return
     248 0000007a 4770              BX        LR                    ; [DPU_3_PIPE]  ; [ORIG 16-BIT INS]
     249                            ; BRANCH OCCURS                  ; [] 
     250                            .dwattr $C$DW$9, DW_AT_TI_end_file("H:/EECS_690/TI_ARM_Tiva_Projects_EECS_690_Sp16/Source/list
     251                            .dwattr $C$DW$9, DW_AT_TI_end_line(0x8e)
     252                            .dwattr $C$DW$9, DW_AT_TI_end_column(0x01)
     253                            .dwendentry
     254                            .dwendtag $C$DW$9
     255                    
     256 0000007c                   .sect   ".text"
     257                            .clink
     258                            .thumbfunc vListInsert
     259 0000007c                   .thumb
     260                            .global vListInsert
     261                    
     262                    $C$DW$16        .dwtag  DW_TAG_subprogram, DW_AT_name("vListInsert")
     263                            .dwattr $C$DW$16, DW_AT_low_pc(vListInsert)
     264                            .dwattr $C$DW$16, DW_AT_high_pc(0x00)
     265                            .dwattr $C$DW$16, DW_AT_TI_symbol_name("vListInsert")
     266                            .dwattr $C$DW$16, DW_AT_external
     267                            .dwattr $C$DW$16, DW_AT_TI_begin_file("H:/EECS_690/TI_ARM_Tiva_Projects_EECS_690_Sp16/Source/l
     268                            .dwattr $C$DW$16, DW_AT_TI_begin_line(0x91)
     269                            .dwattr $C$DW$16, DW_AT_TI_begin_column(0x06)
     270                            .dwattr $C$DW$16, DW_AT_decl_file("H:/EECS_690/TI_ARM_Tiva_Projects_EECS_690_Sp16/Source/list.
     271                            .dwattr $C$DW$16, DW_AT_decl_line(0x91)
     272                            .dwattr $C$DW$16, DW_AT_decl_column(0x06)
     273                            .dwattr $C$DW$16, DW_AT_TI_max_frame_size(0x10)
     274                            .dwpsn  file "H:/EECS_690/TI_ARM_Tiva_Projects_EECS_690_Sp16/Source/list.c",line 146,column 1,
     275                    
TI ARM Assembler PC v5.2.2 Thu Mar 10 16:27:00 2016

Tools Copyright (c) 1996-2015 Texas Instruments Incorporated
list.asm                                                             PAGE    6

     276                            .dwfde $C$DW$CIE, vListInsert
     277                    $C$DW$17        .dwtag  DW_TAG_formal_parameter, DW_AT_name("pxList")
     278                            .dwattr $C$DW$17, DW_AT_TI_symbol_name("pxList")
     279                            .dwattr $C$DW$17, DW_AT_type(*$C$DW$T$43)
     280                            .dwattr $C$DW$17, DW_AT_location[DW_OP_reg0]
     281                    $C$DW$18        .dwtag  DW_TAG_formal_parameter, DW_AT_name("pxNewListItem")
     282                            .dwattr $C$DW$18, DW_AT_TI_symbol_name("pxNewListItem")
     283                            .dwattr $C$DW$18, DW_AT_type(*$C$DW$T$45)
     284                            .dwattr $C$DW$18, DW_AT_location[DW_OP_reg1]
     285                    
     286                    ;*****************************************************************************
     287                    ;* FUNCTION NAME: vListInsert                                                *
     288                    ;*                                                                           *
     289                    ;*   Regs Modified     : A1,A2,SP,SR                                         *
     290                    ;*   Regs Used         : A1,A2,SP,LR,SR                                      *
     291                    ;*   Local Frame Size  : 0 Args + 16 Auto + 0 Save = 16 byte                 *
     292                    ;*****************************************************************************
     293 0000007c           vListInsert:
     294                    ;* --------------------------------------------------------------------------*
     295                            .dwcfi  cfa_offset, 0
     296 0000007c 0D10F1AD          SUB       SP, SP, #16           ; [DPU_3_PIPE]  ; [KEEP 32-BIT INS]
     297                            .dwcfi  cfa_offset, 16
     298                    $C$DW$19        .dwtag  DW_TAG_variable, DW_AT_name("pxList")
     299                            .dwattr $C$DW$19, DW_AT_TI_symbol_name("pxList")
     300                            .dwattr $C$DW$19, DW_AT_type(*$C$DW$T$43)
     301                            .dwattr $C$DW$19, DW_AT_location[DW_OP_breg13 0]
     302                    $C$DW$20        .dwtag  DW_TAG_variable, DW_AT_name("pxNewListItem")
     303                            .dwattr $C$DW$20, DW_AT_TI_symbol_name("pxNewListItem")
     304                            .dwattr $C$DW$20, DW_AT_type(*$C$DW$T$45)
     305                            .dwattr $C$DW$20, DW_AT_location[DW_OP_breg13 4]
     306                    $C$DW$21        .dwtag  DW_TAG_variable, DW_AT_name("pxIterator")
     307                            .dwattr $C$DW$21, DW_AT_TI_symbol_name("pxIterator")
     308                            .dwattr $C$DW$21, DW_AT_type(*$C$DW$T$30)
     309                            .dwattr $C$DW$21, DW_AT_location[DW_OP_breg13 8]
     310                    $C$DW$22        .dwtag  DW_TAG_variable, DW_AT_name("xValueOfInsertion")
     311                            .dwattr $C$DW$22, DW_AT_TI_symbol_name("xValueOfInsertion")
     312                            .dwattr $C$DW$22, DW_AT_type(*$C$DW$T$84)
     313                            .dwattr $C$DW$22, DW_AT_location[DW_OP_breg13 12]
     314 00000080 9101              STR       A2, [SP, #4]          ; [DPU_3_PIPE] |146|  ; [ORIG 16-BIT INS]
     315 00000082 9000              STR       A1, [SP, #0]          ; [DPU_3_PIPE] |146|  ; [ORIG 16-BIT INS]
     316                            .dwpsn  file "H:/EECS_690/TI_ARM_Tiva_Projects_EECS_690_Sp16/Source/list.c",line 148,column 36
     317 00000084 9801              LDR       A1, [SP, #4]          ; [DPU_3_PIPE] |148|  ; [ORIG 16-BIT INS]
     318 00000086 6800              LDR       A1, [A1, #0]          ; [DPU_3_PIPE] |148|  ; [ORIG 16-BIT INS]
     319 00000088 9003              STR       A1, [SP, #12]         ; [DPU_3_PIPE] |148|  ; [ORIG 16-BIT INS]
     320                            .dwpsn  file "H:/EECS_690/TI_ARM_Tiva_Projects_EECS_690_Sp16/Source/list.c",line 164,column 2,
     321 0000008a 9803              LDR       A1, [SP, #12]         ; [DPU_3_PIPE] |164|  ; [ORIG 16-BIT INS]
     322 0000008c 3FFFF1B0          CMP       A1, #-1               ; [DPU_3_PIPE] |164|  ; [KEEP 32-BIT INS]
     323 00000090 D103              BNE       ||$C$L1||             ; [DPU_3_PIPE] |164|  ; [ORIG 16-BIT INS]
     324                            ; BRANCHCC OCCURS {||$C$L1||}    ; [] |164| 
     325                    ;* --------------------------------------------------------------------------*
     326                            .dwpsn  file "H:/EECS_690/TI_ARM_Tiva_Projects_EECS_690_Sp16/Source/list.c",line 166,column 3,
     327 00000092 9800              LDR       A1, [SP, #0]          ; [DPU_3_PIPE] |166|  ; [ORIG 16-BIT INS]
     328 00000094 6900              LDR       A1, [A1, #16]         ; [DPU_3_PIPE] |166|  ; [ORIG 16-BIT INS]
     329 00000096 9002              STR       A1, [SP, #8]          ; [DPU_3_PIPE] |166|  ; [ORIG 16-BIT INS]
     330                            .dwpsn  file "H:/EECS_690/TI_ARM_Tiva_Projects_EECS_690_Sp16/Source/list.c",line 167,column 2,
TI ARM Assembler PC v5.2.2 Thu Mar 10 16:27:00 2016

Tools Copyright (c) 1996-2015 Texas Instruments Incorporated
list.asm                                                             PAGE    7

     331 00000098 E00C              B         ||$C$L4||             ; [DPU_3_PIPE] |167|  ; [ORIG 16-BIT INS]
     332                            ; BRANCH OCCURS {||$C$L4||}      ; [] |167| 
     333                    ;* --------------------------------------------------------------------------*
     334 0000009a           ||$C$L1||:    
     335                            .dwpsn  file "H:/EECS_690/TI_ARM_Tiva_Projects_EECS_690_Sp16/Source/list.c",line 192,column 8,
     336 0000009a 9800              LDR       A1, [SP, #0]          ; [DPU_3_PIPE] |192|  ; [ORIG 16-BIT INS]
     337 0000009c 3008              ADDS      A1, A1, #8            ; [DPU_3_PIPE] |192|  ; [ORIG 16-BIT INS]
     338 0000009e 9002              STR       A1, [SP, #8]          ; [DPU_3_PIPE] |192|  ; [ORIG 16-BIT INS]
     339 000000a0 E002              B         ||$C$L3||             ; [DPU_3_PIPE] |192|  ; [ORIG 16-BIT INS]
     340                            ; BRANCH OCCURS {||$C$L3||}      ; [] |192| 
     341                    ;* --------------------------------------------------------------------------*
     342 000000a2           ||$C$L2||:    
     343                            .dwpsn  file "H:/EECS_690/TI_ARM_Tiva_Projects_EECS_690_Sp16/Source/list.c",line 192,column 11
     344 000000a2 9802              LDR       A1, [SP, #8]          ; [DPU_3_PIPE] |192|  ; [ORIG 16-BIT INS]
     345 000000a4 6840              LDR       A1, [A1, #4]          ; [DPU_3_PIPE] |192|  ; [ORIG 16-BIT INS]
     346 000000a6 9002              STR       A1, [SP, #8]          ; [DPU_3_PIPE] |192|  ; [ORIG 16-BIT INS]
     347                    ;* --------------------------------------------------------------------------*
     348                    ;*   BEGIN LOOP ||$C$L3||
     349                    ;* --------------------------------------------------------------------------*
     350 000000a8           ||$C$L3||:    
     351                            .dwpsn  file "H:/EECS_690/TI_ARM_Tiva_Projects_EECS_690_Sp16/Source/list.c",line 192,column 61
     352 000000a8 9802              LDR       A1, [SP, #8]          ; [DPU_3_PIPE] |192|  ; [ORIG 16-BIT INS]
     353 000000aa 6841              LDR       A2, [A1, #4]          ; [DPU_3_PIPE] |192|  ; [ORIG 16-BIT INS]
     354 000000ac 9803              LDR       A1, [SP, #12]         ; [DPU_3_PIPE] |192|  ; [ORIG 16-BIT INS]
     355 000000ae 6809              LDR       A2, [A2, #0]          ; [DPU_3_PIPE] |192|  ; [ORIG 16-BIT INS]
     356 000000b0 4288              CMP       A1, A2                ; [DPU_3_PIPE] |192|  ; [ORIG 16-BIT INS]
     357 000000b2 D2F6              BCS       ||$C$L2||             ; [DPU_3_PIPE] |192|  ; [ORIG 16-BIT INS]
     358                            ; BRANCHCC OCCURS {||$C$L2||}    ; [] |192| 
     359                    ;* --------------------------------------------------------------------------*
     360 000000b4           ||$C$L4||:    
     361                            .dwpsn  file "H:/EECS_690/TI_ARM_Tiva_Projects_EECS_690_Sp16/Source/list.c",line 199,column 2,
     362 000000b4 9802              LDR       A1, [SP, #8]          ; [DPU_3_PIPE] |199|  ; [ORIG 16-BIT INS]
     363 000000b6 9901              LDR       A2, [SP, #4]          ; [DPU_3_PIPE] |199|  ; [ORIG 16-BIT INS]
     364 000000b8 6840              LDR       A1, [A1, #4]          ; [DPU_3_PIPE] |199|  ; [ORIG 16-BIT INS]
     365 000000ba 6048              STR       A1, [A2, #4]          ; [DPU_3_PIPE] |199|  ; [ORIG 16-BIT INS]
     366                            .dwpsn  file "H:/EECS_690/TI_ARM_Tiva_Projects_EECS_690_Sp16/Source/list.c",line 200,column 2,
     367 000000bc 9901              LDR       A2, [SP, #4]          ; [DPU_3_PIPE] |200|  ; [ORIG 16-BIT INS]
     368 000000be 9801              LDR       A1, [SP, #4]          ; [DPU_3_PIPE] |200|  ; [ORIG 16-BIT INS]
     369 000000c0 6849              LDR       A2, [A2, #4]          ; [DPU_3_PIPE] |200|  ; [ORIG 16-BIT INS]
     370 000000c2 6088              STR       A1, [A2, #8]          ; [DPU_3_PIPE] |200|  ; [ORIG 16-BIT INS]
     371                            .dwpsn  file "H:/EECS_690/TI_ARM_Tiva_Projects_EECS_690_Sp16/Source/list.c",line 201,column 2,
     372 000000c4 9802              LDR       A1, [SP, #8]          ; [DPU_3_PIPE] |201|  ; [ORIG 16-BIT INS]
     373 000000c6 9901              LDR       A2, [SP, #4]          ; [DPU_3_PIPE] |201|  ; [ORIG 16-BIT INS]
     374 000000c8 6088              STR       A1, [A2, #8]          ; [DPU_3_PIPE] |201|  ; [ORIG 16-BIT INS]
     375                            .dwpsn  file "H:/EECS_690/TI_ARM_Tiva_Projects_EECS_690_Sp16/Source/list.c",line 202,column 2,
     376 000000ca 9801              LDR       A1, [SP, #4]          ; [DPU_3_PIPE] |202|  ; [ORIG 16-BIT INS]
     377 000000cc 9902              LDR       A2, [SP, #8]          ; [DPU_3_PIPE] |202|  ; [ORIG 16-BIT INS]
     378 000000ce 6048              STR       A1, [A2, #4]          ; [DPU_3_PIPE] |202|  ; [ORIG 16-BIT INS]
     379                            .dwpsn  file "H:/EECS_690/TI_ARM_Tiva_Projects_EECS_690_Sp16/Source/list.c",line 206,column 2,
     380 000000d0 9800              LDR       A1, [SP, #0]          ; [DPU_3_PIPE] |206|  ; [ORIG 16-BIT INS]
     381 000000d2 9901              LDR       A2, [SP, #4]          ; [DPU_3_PIPE] |206|  ; [ORIG 16-BIT INS]
     382 000000d4 6108              STR       A1, [A2, #16]         ; [DPU_3_PIPE] |206|  ; [ORIG 16-BIT INS]
     383                            .dwpsn  file "H:/EECS_690/TI_ARM_Tiva_Projects_EECS_690_Sp16/Source/list.c",line 208,column 2,
     384 000000d6 9900              LDR       A2, [SP, #0]          ; [DPU_3_PIPE] |208|  ; [ORIG 16-BIT INS]
     385 000000d8 6808              LDR       A1, [A2, #0]          ; [DPU_3_PIPE] |208|  ; [ORIG 16-BIT INS]
TI ARM Assembler PC v5.2.2 Thu Mar 10 16:27:00 2016

Tools Copyright (c) 1996-2015 Texas Instruments Incorporated
list.asm                                                             PAGE    8

     386 000000da 1C40              ADDS      A1, A1, #1            ; [DPU_3_PIPE] |208|  ; [ORIG 16-BIT INS]
     387 000000dc 6008              STR       A1, [A2, #0]          ; [DPU_3_PIPE] |208|  ; [ORIG 16-BIT INS]
     388                            .dwpsn  file "H:/EECS_690/TI_ARM_Tiva_Projects_EECS_690_Sp16/Source/list.c",line 209,column 1,
     389 000000de B004              ADD       SP, SP, #16           ; [DPU_3_PIPE]  ; [ORIG 16-BIT INS]
     390                            .dwcfi  cfa_offset, 0
     391                    $C$DW$23        .dwtag  DW_TAG_TI_branch
     392                            .dwattr $C$DW$23, DW_AT_low_pc(0x00)
     393                            .dwattr $C$DW$23, DW_AT_TI_return
     394 000000e0 4770              BX        LR                    ; [DPU_3_PIPE]  ; [ORIG 16-BIT INS]
     395                            ; BRANCH OCCURS                  ; [] 
     396                            .dwattr $C$DW$16, DW_AT_TI_end_file("H:/EECS_690/TI_ARM_Tiva_Projects_EECS_690_Sp16/Source/lis
     397                            .dwattr $C$DW$16, DW_AT_TI_end_line(0xd1)
     398                            .dwattr $C$DW$16, DW_AT_TI_end_column(0x01)
     399                            .dwendentry
     400                            .dwendtag $C$DW$16
     401                    
     402 000000e2                   .sect   ".text"
     403                            .clink
     404                            .thumbfunc uxListRemove
     405 000000e2                   .thumb
     406                            .global uxListRemove
     407                    
     408                    $C$DW$24        .dwtag  DW_TAG_subprogram, DW_AT_name("uxListRemove")
     409                            .dwattr $C$DW$24, DW_AT_low_pc(uxListRemove)
     410                            .dwattr $C$DW$24, DW_AT_high_pc(0x00)
     411                            .dwattr $C$DW$24, DW_AT_TI_symbol_name("uxListRemove")
     412                            .dwattr $C$DW$24, DW_AT_external
     413                            .dwattr $C$DW$24, DW_AT_type(*$C$DW$T$28)
     414                            .dwattr $C$DW$24, DW_AT_TI_begin_file("H:/EECS_690/TI_ARM_Tiva_Projects_EECS_690_Sp16/Source/l
     415                            .dwattr $C$DW$24, DW_AT_TI_begin_line(0xd4)
     416                            .dwattr $C$DW$24, DW_AT_TI_begin_column(0x0d)
     417                            .dwattr $C$DW$24, DW_AT_decl_file("H:/EECS_690/TI_ARM_Tiva_Projects_EECS_690_Sp16/Source/list.
     418                            .dwattr $C$DW$24, DW_AT_decl_line(0xd4)
     419                            .dwattr $C$DW$24, DW_AT_decl_column(0x0d)
     420                            .dwattr $C$DW$24, DW_AT_TI_max_frame_size(0x08)
     421                            .dwpsn  file "H:/EECS_690/TI_ARM_Tiva_Projects_EECS_690_Sp16/Source/list.c",line 213,column 1,
     422                    
     423                            .dwfde $C$DW$CIE, uxListRemove
     424                    $C$DW$25        .dwtag  DW_TAG_formal_parameter, DW_AT_name("pxItemToRemove")
     425                            .dwattr $C$DW$25, DW_AT_TI_symbol_name("pxItemToRemove")
     426                            .dwattr $C$DW$25, DW_AT_type(*$C$DW$T$45)
     427                            .dwattr $C$DW$25, DW_AT_location[DW_OP_reg0]
     428                    
     429                    ;*****************************************************************************
     430                    ;* FUNCTION NAME: uxListRemove                                               *
     431                    ;*                                                                           *
     432                    ;*   Regs Modified     : A1,A2,SP,SR                                         *
     433                    ;*   Regs Used         : A1,A2,SP,LR,SR                                      *
     434                    ;*   Local Frame Size  : 0 Args + 8 Auto + 0 Save = 8 byte                   *
     435                    ;*****************************************************************************
     436 000000e2           uxListRemove:
     437                    ;* --------------------------------------------------------------------------*
     438                            .dwcfi  cfa_offset, 0
     439 000000e2 0D08F1AD          SUB       SP, SP, #8            ; [DPU_3_PIPE]  ; [KEEP 32-BIT INS]
     440                            .dwcfi  cfa_offset, 8
TI ARM Assembler PC v5.2.2 Thu Mar 10 16:27:00 2016

Tools Copyright (c) 1996-2015 Texas Instruments Incorporated
list.asm                                                             PAGE    9

     441                    $C$DW$26        .dwtag  DW_TAG_variable, DW_AT_name("pxItemToRemove")
     442                            .dwattr $C$DW$26, DW_AT_TI_symbol_name("pxItemToRemove")
     443                            .dwattr $C$DW$26, DW_AT_type(*$C$DW$T$45)
     444                            .dwattr $C$DW$26, DW_AT_location[DW_OP_breg13 0]
     445                    $C$DW$27        .dwtag  DW_TAG_variable, DW_AT_name("pxList")
     446                            .dwattr $C$DW$27, DW_AT_TI_symbol_name("pxList")
     447                            .dwattr $C$DW$27, DW_AT_type(*$C$DW$T$43)
     448                            .dwattr $C$DW$27, DW_AT_location[DW_OP_breg13 4]
     449 000000e6 9000              STR       A1, [SP, #0]          ; [DPU_3_PIPE] |213|  ; [ORIG 16-BIT INS]
     450                            .dwpsn  file "H:/EECS_690/TI_ARM_Tiva_Projects_EECS_690_Sp16/Source/list.c",line 216,column 23
     451 000000e8 9800              LDR       A1, [SP, #0]          ; [DPU_3_PIPE] |216|  ; [ORIG 16-BIT INS]
     452 000000ea 6900              LDR       A1, [A1, #16]         ; [DPU_3_PIPE] |216|  ; [ORIG 16-BIT INS]
     453 000000ec 9001              STR       A1, [SP, #4]          ; [DPU_3_PIPE] |216|  ; [ORIG 16-BIT INS]
     454                            .dwpsn  file "H:/EECS_690/TI_ARM_Tiva_Projects_EECS_690_Sp16/Source/list.c",line 218,column 2,
     455 000000ee 9900              LDR       A2, [SP, #0]          ; [DPU_3_PIPE] |218|  ; [ORIG 16-BIT INS]
     456 000000f0 9800              LDR       A1, [SP, #0]          ; [DPU_3_PIPE] |218|  ; [ORIG 16-BIT INS]
     457 000000f2 6849              LDR       A2, [A2, #4]          ; [DPU_3_PIPE] |218|  ; [ORIG 16-BIT INS]
     458 000000f4 6880              LDR       A1, [A1, #8]          ; [DPU_3_PIPE] |218|  ; [ORIG 16-BIT INS]
     459 000000f6 6088              STR       A1, [A2, #8]          ; [DPU_3_PIPE] |218|  ; [ORIG 16-BIT INS]
     460                            .dwpsn  file "H:/EECS_690/TI_ARM_Tiva_Projects_EECS_690_Sp16/Source/list.c",line 219,column 2,
     461 000000f8 9800              LDR       A1, [SP, #0]          ; [DPU_3_PIPE] |219|  ; [ORIG 16-BIT INS]
     462 000000fa 9900              LDR       A2, [SP, #0]          ; [DPU_3_PIPE] |219|  ; [ORIG 16-BIT INS]
     463 000000fc 6840              LDR       A1, [A1, #4]          ; [DPU_3_PIPE] |219|  ; [ORIG 16-BIT INS]
     464 000000fe 6889              LDR       A2, [A2, #8]          ; [DPU_3_PIPE] |219|  ; [ORIG 16-BIT INS]
     465 00000100 6048              STR       A1, [A2, #4]          ; [DPU_3_PIPE] |219|  ; [ORIG 16-BIT INS]
     466                            .dwpsn  file "H:/EECS_690/TI_ARM_Tiva_Projects_EECS_690_Sp16/Source/list.c",line 225,column 2,
     467 00000102 9901              LDR       A2, [SP, #4]          ; [DPU_3_PIPE] |225|  ; [ORIG 16-BIT INS]
     468 00000104 9800              LDR       A1, [SP, #0]          ; [DPU_3_PIPE] |225|  ; [ORIG 16-BIT INS]
     469 00000106 6849              LDR       A2, [A2, #4]          ; [DPU_3_PIPE] |225|  ; [ORIG 16-BIT INS]
     470 00000108 4288              CMP       A1, A2                ; [DPU_3_PIPE] |225|  ; [ORIG 16-BIT INS]
     471 0000010a D103              BNE       ||$C$L5||             ; [DPU_3_PIPE] |225|  ; [ORIG 16-BIT INS]
     472                            ; BRANCHCC OCCURS {||$C$L5||}    ; [] |225| 
     473                    ;* --------------------------------------------------------------------------*
     474                            .dwpsn  file "H:/EECS_690/TI_ARM_Tiva_Projects_EECS_690_Sp16/Source/list.c",line 227,column 3,
     475 0000010c 9800              LDR       A1, [SP, #0]          ; [DPU_3_PIPE] |227|  ; [ORIG 16-BIT INS]
     476 0000010e 9901              LDR       A2, [SP, #4]          ; [DPU_3_PIPE] |227|  ; [ORIG 16-BIT INS]
     477 00000110 6880              LDR       A1, [A1, #8]          ; [DPU_3_PIPE] |227|  ; [ORIG 16-BIT INS]
     478 00000112 6048              STR       A1, [A2, #4]          ; [DPU_3_PIPE] |227|  ; [ORIG 16-BIT INS]
     479                            .dwpsn  file "H:/EECS_690/TI_ARM_Tiva_Projects_EECS_690_Sp16/Source/list.c",line 228,column 2,
     480                    ;* --------------------------------------------------------------------------*
     481 00000114           ||$C$L5||:    
     482                            .dwpsn  file "H:/EECS_690/TI_ARM_Tiva_Projects_EECS_690_Sp16/Source/list.c",line 234,column 2,
     483 00000114 9800              LDR       A1, [SP, #0]          ; [DPU_3_PIPE] |234|  ; [ORIG 16-BIT INS]
     484 00000116 2100              MOVS      A2, #0                ; [DPU_3_PIPE] |234|  ; [ORIG 16-BIT INS]
     485 00000118 6101              STR       A2, [A1, #16]         ; [DPU_3_PIPE] |234|  ; [ORIG 16-BIT INS]
     486                            .dwpsn  file "H:/EECS_690/TI_ARM_Tiva_Projects_EECS_690_Sp16/Source/list.c",line 235,column 2,
     487 0000011a 9901              LDR       A2, [SP, #4]          ; [DPU_3_PIPE] |235|  ; [ORIG 16-BIT INS]
     488 0000011c 6808              LDR       A1, [A2, #0]          ; [DPU_3_PIPE] |235|  ; [ORIG 16-BIT INS]
     489 0000011e 1E40              SUBS      A1, A1, #1            ; [DPU_3_PIPE] |235|  ; [ORIG 16-BIT INS]
     490 00000120 6008              STR       A1, [A2, #0]          ; [DPU_3_PIPE] |235|  ; [ORIG 16-BIT INS]
     491                            .dwpsn  file "H:/EECS_690/TI_ARM_Tiva_Projects_EECS_690_Sp16/Source/list.c",line 237,column 2,
     492 00000122 9801              LDR       A1, [SP, #4]          ; [DPU_3_PIPE] |237|  ; [ORIG 16-BIT INS]
     493 00000124 6800              LDR       A1, [A1, #0]          ; [DPU_3_PIPE] |237|  ; [ORIG 16-BIT INS]
     494                            .dwpsn  file "H:/EECS_690/TI_ARM_Tiva_Projects_EECS_690_Sp16/Source/list.c",line 238,column 1,
     495 00000126 B002              ADD       SP, SP, #8            ; [DPU_3_PIPE]  ; [ORIG 16-BIT INS]
TI ARM Assembler PC v5.2.2 Thu Mar 10 16:27:00 2016

Tools Copyright (c) 1996-2015 Texas Instruments Incorporated
list.asm                                                             PAGE   10

     496                            .dwcfi  cfa_offset, 0
     497                    $C$DW$28        .dwtag  DW_TAG_TI_branch
     498                            .dwattr $C$DW$28, DW_AT_low_pc(0x00)
     499                            .dwattr $C$DW$28, DW_AT_TI_return
     500 00000128 4770              BX        LR                    ; [DPU_3_PIPE]  ; [ORIG 16-BIT INS]
     501                            ; BRANCH OCCURS                  ; [] 
     502                            .dwattr $C$DW$24, DW_AT_TI_end_file("H:/EECS_690/TI_ARM_Tiva_Projects_EECS_690_Sp16/Source/lis
     503                            .dwattr $C$DW$24, DW_AT_TI_end_line(0xee)
     504                            .dwattr $C$DW$24, DW_AT_TI_end_column(0x01)
     505                            .dwendentry
     506                            .dwendtag $C$DW$24
     507                    
     508                    
     509                    ;******************************************************************************
     510                    ;* BUILD ATTRIBUTES                                                           *
     511                    ;******************************************************************************
     512                            .battr "aeabi", Tag_File, 1, Tag_ABI_PCS_wchar_t(2)
     513                            .battr "aeabi", Tag_File, 1, Tag_ABI_FP_rounding(0)
     514                            .battr "aeabi", Tag_File, 1, Tag_ABI_FP_denormal(0)
     515                            .battr "aeabi", Tag_File, 1, Tag_ABI_FP_exceptions(0)
     516                            .battr "aeabi", Tag_File, 1, Tag_ABI_FP_number_model(1)
     517                            .battr "aeabi", Tag_File, 1, Tag_ABI_enum_size(0)
     518                            .battr "aeabi", Tag_File, 1, Tag_ABI_optimization_goals(5)
     519                            .battr "aeabi", Tag_File, 1, Tag_ABI_FP_optimization_goals(0)
     520                            .battr "TI", Tag_File, 1, Tag_Bitfield_layout(2)
     521                            .battr "TI", Tag_File, 1, Tag_FP_interface(1)
     522                    
     523                    ;******************************************************************************
     524                    ;* TYPE INFORMATION                                                           *
     525                    ;******************************************************************************
     526                    
     527                    $C$DW$T$19      .dwtag  DW_TAG_structure_type
     528                            .dwattr $C$DW$T$19, DW_AT_byte_size(0x08)
     529                    $C$DW$29        .dwtag  DW_TAG_member
     530                            .dwattr $C$DW$29, DW_AT_type(*$C$DW$T$10)
     531                            .dwattr $C$DW$29, DW_AT_name("quot")
     532                            .dwattr $C$DW$29, DW_AT_TI_symbol_name("quot")
     533                            .dwattr $C$DW$29, DW_AT_data_member_location[DW_OP_plus_uconst 0x0]
     534                            .dwattr $C$DW$29, DW_AT_accessibility(DW_ACCESS_public)
     535                            .dwattr $C$DW$29, DW_AT_decl_file("C:/TI_CodeComposer/ccsv6/tools/compiler/ti-cgt-arm_5.2.2/in
     536                            .dwattr $C$DW$29, DW_AT_decl_line(0x59)
     537                            .dwattr $C$DW$29, DW_AT_decl_column(0x16)
     538                    $C$DW$30        .dwtag  DW_TAG_member
     539                            .dwattr $C$DW$30, DW_AT_type(*$C$DW$T$10)
     540                            .dwattr $C$DW$30, DW_AT_name("rem")
     541                            .dwattr $C$DW$30, DW_AT_TI_symbol_name("rem")
     542                            .dwattr $C$DW$30, DW_AT_data_member_location[DW_OP_plus_uconst 0x4]
     543                            .dwattr $C$DW$30, DW_AT_accessibility(DW_ACCESS_public)
     544                            .dwattr $C$DW$30, DW_AT_decl_file("C:/TI_CodeComposer/ccsv6/tools/compiler/ti-cgt-arm_5.2.2/in
     545                            .dwattr $C$DW$30, DW_AT_decl_line(0x59)
     546                            .dwattr $C$DW$30, DW_AT_decl_column(0x1c)
     547                            .dwendtag $C$DW$T$19
     548                    
     549                            .dwattr $C$DW$T$19, DW_AT_decl_file("C:/TI_CodeComposer/ccsv6/tools/compiler/ti-cgt-arm_5.2.2/
     550                            .dwattr $C$DW$T$19, DW_AT_decl_line(0x59)
TI ARM Assembler PC v5.2.2 Thu Mar 10 16:27:00 2016

Tools Copyright (c) 1996-2015 Texas Instruments Incorporated
list.asm                                                             PAGE   11

     551                            .dwattr $C$DW$T$19, DW_AT_decl_column(0x10)
     552                    $C$DW$T$37      .dwtag  DW_TAG_typedef, DW_AT_name("div_t")
     553                            .dwattr $C$DW$T$37, DW_AT_type(*$C$DW$T$19)
     554                            .dwattr $C$DW$T$37, DW_AT_language(DW_LANG_C)
     555                            .dwattr $C$DW$T$37, DW_AT_decl_file("C:/TI_CodeComposer/ccsv6/tools/compiler/ti-cgt-arm_5.2.2/
     556                            .dwattr $C$DW$T$37, DW_AT_decl_line(0x59)
     557                            .dwattr $C$DW$T$37, DW_AT_decl_column(0x23)
     558                    
     559                    $C$DW$T$20      .dwtag  DW_TAG_structure_type
     560                            .dwattr $C$DW$T$20, DW_AT_byte_size(0x08)
     561                    $C$DW$31        .dwtag  DW_TAG_member
     562                            .dwattr $C$DW$31, DW_AT_type(*$C$DW$T$10)
     563                            .dwattr $C$DW$31, DW_AT_name("quot")
     564                            .dwattr $C$DW$31, DW_AT_TI_symbol_name("quot")
     565                            .dwattr $C$DW$31, DW_AT_data_member_location[DW_OP_plus_uconst 0x0]
     566                            .dwattr $C$DW$31, DW_AT_accessibility(DW_ACCESS_public)
     567                            .dwattr $C$DW$31, DW_AT_decl_file("C:/TI_CodeComposer/ccsv6/tools/compiler/ti-cgt-arm_5.2.2/in
     568                            .dwattr $C$DW$31, DW_AT_decl_line(0x5b)
     569                            .dwattr $C$DW$31, DW_AT_decl_column(0x16)
     570                    $C$DW$32        .dwtag  DW_TAG_member
     571                            .dwattr $C$DW$32, DW_AT_type(*$C$DW$T$10)
     572                            .dwattr $C$DW$32, DW_AT_name("rem")
     573                            .dwattr $C$DW$32, DW_AT_TI_symbol_name("rem")
     574                            .dwattr $C$DW$32, DW_AT_data_member_location[DW_OP_plus_uconst 0x4]
     575                            .dwattr $C$DW$32, DW_AT_accessibility(DW_ACCESS_public)
     576                            .dwattr $C$DW$32, DW_AT_decl_file("C:/TI_CodeComposer/ccsv6/tools/compiler/ti-cgt-arm_5.2.2/in
     577                            .dwattr $C$DW$32, DW_AT_decl_line(0x5b)
     578                            .dwattr $C$DW$32, DW_AT_decl_column(0x1c)
     579                            .dwendtag $C$DW$T$20
     580                    
     581                            .dwattr $C$DW$T$20, DW_AT_decl_file("C:/TI_CodeComposer/ccsv6/tools/compiler/ti-cgt-arm_5.2.2/
     582                            .dwattr $C$DW$T$20, DW_AT_decl_line(0x5b)
     583                            .dwattr $C$DW$T$20, DW_AT_decl_column(0x10)
     584                    $C$DW$T$38      .dwtag  DW_TAG_typedef, DW_AT_name("ldiv_t")
     585                            .dwattr $C$DW$T$38, DW_AT_type(*$C$DW$T$20)
     586                            .dwattr $C$DW$T$38, DW_AT_language(DW_LANG_C)
     587                            .dwattr $C$DW$T$38, DW_AT_decl_file("C:/TI_CodeComposer/ccsv6/tools/compiler/ti-cgt-arm_5.2.2/
     588                            .dwattr $C$DW$T$38, DW_AT_decl_line(0x5b)
     589                            .dwattr $C$DW$T$38, DW_AT_decl_column(0x23)
     590                    
     591                    $C$DW$T$21      .dwtag  DW_TAG_structure_type
     592                            .dwattr $C$DW$T$21, DW_AT_byte_size(0x10)
     593                    $C$DW$33        .dwtag  DW_TAG_member
     594                            .dwattr $C$DW$33, DW_AT_type(*$C$DW$T$14)
     595                            .dwattr $C$DW$33, DW_AT_name("quot")
     596                            .dwattr $C$DW$33, DW_AT_TI_symbol_name("quot")
     597                            .dwattr $C$DW$33, DW_AT_data_member_location[DW_OP_plus_uconst 0x0]
     598                            .dwattr $C$DW$33, DW_AT_accessibility(DW_ACCESS_public)
     599                            .dwattr $C$DW$33, DW_AT_decl_file("C:/TI_CodeComposer/ccsv6/tools/compiler/ti-cgt-arm_5.2.2/in
     600                            .dwattr $C$DW$33, DW_AT_decl_line(0x5e)
     601                            .dwattr $C$DW$33, DW_AT_decl_column(0x1c)
     602                    $C$DW$34        .dwtag  DW_TAG_member
     603                            .dwattr $C$DW$34, DW_AT_type(*$C$DW$T$14)
     604                            .dwattr $C$DW$34, DW_AT_name("rem")
     605                            .dwattr $C$DW$34, DW_AT_TI_symbol_name("rem")
TI ARM Assembler PC v5.2.2 Thu Mar 10 16:27:00 2016

Tools Copyright (c) 1996-2015 Texas Instruments Incorporated
list.asm                                                             PAGE   12

     606                            .dwattr $C$DW$34, DW_AT_data_member_location[DW_OP_plus_uconst 0x8]
     607                            .dwattr $C$DW$34, DW_AT_accessibility(DW_ACCESS_public)
     608                            .dwattr $C$DW$34, DW_AT_decl_file("C:/TI_CodeComposer/ccsv6/tools/compiler/ti-cgt-arm_5.2.2/in
     609                            .dwattr $C$DW$34, DW_AT_decl_line(0x5e)
     610                            .dwattr $C$DW$34, DW_AT_decl_column(0x22)
     611                            .dwendtag $C$DW$T$21
     612                    
     613                            .dwattr $C$DW$T$21, DW_AT_decl_file("C:/TI_CodeComposer/ccsv6/tools/compiler/ti-cgt-arm_5.2.2/
     614                            .dwattr $C$DW$T$21, DW_AT_decl_line(0x5e)
     615                            .dwattr $C$DW$T$21, DW_AT_decl_column(0x10)
     616                    $C$DW$T$39      .dwtag  DW_TAG_typedef, DW_AT_name("lldiv_t")
     617                            .dwattr $C$DW$T$39, DW_AT_type(*$C$DW$T$21)
     618                            .dwattr $C$DW$T$39, DW_AT_language(DW_LANG_C)
     619                            .dwattr $C$DW$T$39, DW_AT_decl_file("C:/TI_CodeComposer/ccsv6/tools/compiler/ti-cgt-arm_5.2.2/
     620                            .dwattr $C$DW$T$39, DW_AT_decl_line(0x5e)
     621                            .dwattr $C$DW$T$39, DW_AT_decl_column(0x29)
     622                    
     623                    $C$DW$T$25      .dwtag  DW_TAG_structure_type
     624                            .dwattr $C$DW$T$25, DW_AT_name("HeapRegion")
     625                            .dwattr $C$DW$T$25, DW_AT_byte_size(0x08)
     626                    $C$DW$35        .dwtag  DW_TAG_member
     627                            .dwattr $C$DW$35, DW_AT_type(*$C$DW$T$23)
     628                            .dwattr $C$DW$35, DW_AT_name("pucStartAddress")
     629                            .dwattr $C$DW$35, DW_AT_TI_symbol_name("pucStartAddress")
     630                            .dwattr $C$DW$35, DW_AT_data_member_location[DW_OP_plus_uconst 0x0]
     631                            .dwattr $C$DW$35, DW_AT_accessibility(DW_ACCESS_public)
     632                            .dwattr $C$DW$35, DW_AT_decl_file("H:\EECS_690\TI_ARM_Tiva_Projects_EECS_690_Sp16\Source\inclu
     633                            .dwattr $C$DW$35, DW_AT_decl_line(0x96)
     634                            .dwattr $C$DW$35, DW_AT_decl_column(0x0b)
     635                    $C$DW$36        .dwtag  DW_TAG_member
     636                            .dwattr $C$DW$36, DW_AT_type(*$C$DW$T$24)
     637                            .dwattr $C$DW$36, DW_AT_name("xSizeInBytes")
     638                            .dwattr $C$DW$36, DW_AT_TI_symbol_name("xSizeInBytes")
     639                            .dwattr $C$DW$36, DW_AT_data_member_location[DW_OP_plus_uconst 0x4]
     640                            .dwattr $C$DW$36, DW_AT_accessibility(DW_ACCESS_public)
     641                            .dwattr $C$DW$36, DW_AT_decl_file("H:\EECS_690\TI_ARM_Tiva_Projects_EECS_690_Sp16\Source\inclu
     642                            .dwattr $C$DW$36, DW_AT_decl_line(0x97)
     643                            .dwattr $C$DW$36, DW_AT_decl_column(0x09)
     644                            .dwendtag $C$DW$T$25
     645                    
     646                            .dwattr $C$DW$T$25, DW_AT_decl_file("H:\EECS_690\TI_ARM_Tiva_Projects_EECS_690_Sp16\Source\inc
     647                            .dwattr $C$DW$T$25, DW_AT_decl_line(0x94)
     648                            .dwattr $C$DW$T$25, DW_AT_decl_column(0x10)
     649                    $C$DW$T$40      .dwtag  DW_TAG_typedef, DW_AT_name("HeapRegion_t")
     650                            .dwattr $C$DW$T$40, DW_AT_type(*$C$DW$T$25)
     651                            .dwattr $C$DW$T$40, DW_AT_language(DW_LANG_C)
     652                            .dwattr $C$DW$T$40, DW_AT_decl_file("H:\EECS_690\TI_ARM_Tiva_Projects_EECS_690_Sp16\Source\inc
     653                            .dwattr $C$DW$T$40, DW_AT_decl_line(0x98)
     654                            .dwattr $C$DW$T$40, DW_AT_decl_column(0x03)
     655                    $C$DW$T$2       .dwtag  DW_TAG_unspecified_type
     656                            .dwattr $C$DW$T$2, DW_AT_name("void")
     657                    $C$DW$T$3       .dwtag  DW_TAG_pointer_type
     658                            .dwattr $C$DW$T$3, DW_AT_type(*$C$DW$T$2)
     659                            .dwattr $C$DW$T$3, DW_AT_address_class(0x20)
     660                    
TI ARM Assembler PC v5.2.2 Thu Mar 10 16:27:00 2016

Tools Copyright (c) 1996-2015 Texas Instruments Incorporated
list.asm                                                             PAGE   13

     661                    $C$DW$T$48      .dwtag  DW_TAG_subroutine_type
     662                            .dwattr $C$DW$T$48, DW_AT_language(DW_LANG_C)
     663                    $C$DW$T$49      .dwtag  DW_TAG_pointer_type
     664                            .dwattr $C$DW$T$49, DW_AT_type(*$C$DW$T$48)
     665                            .dwattr $C$DW$T$49, DW_AT_address_class(0x20)
     666                    $C$DW$T$50      .dwtag  DW_TAG_typedef, DW_AT_name("__TI_atexit_fn")
     667                            .dwattr $C$DW$T$50, DW_AT_type(*$C$DW$T$49)
     668                            .dwattr $C$DW$T$50, DW_AT_language(DW_LANG_C)
     669                            .dwattr $C$DW$T$50, DW_AT_decl_file("C:/TI_CodeComposer/ccsv6/tools/compiler/ti-cgt-arm_5.2.2/
     670                            .dwattr $C$DW$T$50, DW_AT_decl_line(0xb2)
     671                            .dwattr $C$DW$T$50, DW_AT_decl_column(0x14)
     672                    $C$DW$T$51      .dwtag  DW_TAG_const_type
     673                            .dwattr $C$DW$T$51, DW_AT_type(*$C$DW$T$2)
     674                    $C$DW$T$52      .dwtag  DW_TAG_pointer_type
     675                            .dwattr $C$DW$T$52, DW_AT_type(*$C$DW$T$51)
     676                            .dwattr $C$DW$T$52, DW_AT_address_class(0x20)
     677                    
     678                    $C$DW$T$53      .dwtag  DW_TAG_subroutine_type
     679                            .dwattr $C$DW$T$53, DW_AT_language(DW_LANG_C)
     680                    $C$DW$37        .dwtag  DW_TAG_formal_parameter
     681                            .dwattr $C$DW$37, DW_AT_type(*$C$DW$T$3)
     682                            .dwendtag $C$DW$T$53
     683                    
     684                    $C$DW$T$54      .dwtag  DW_TAG_pointer_type
     685                            .dwattr $C$DW$T$54, DW_AT_type(*$C$DW$T$53)
     686                            .dwattr $C$DW$T$54, DW_AT_address_class(0x20)
     687                    $C$DW$T$55      .dwtag  DW_TAG_typedef, DW_AT_name("TaskFunction_t")
     688                            .dwattr $C$DW$T$55, DW_AT_type(*$C$DW$T$54)
     689                            .dwattr $C$DW$T$55, DW_AT_language(DW_LANG_C)
     690                            .dwattr $C$DW$T$55, DW_AT_decl_file("H:\EECS_690\TI_ARM_Tiva_Projects_EECS_690_Sp16\Source\inc
     691                            .dwattr $C$DW$T$55, DW_AT_decl_line(0x4d)
     692                            .dwattr $C$DW$T$55, DW_AT_decl_column(0x10)
     693                    $C$DW$T$4       .dwtag  DW_TAG_base_type
     694                            .dwattr $C$DW$T$4, DW_AT_encoding(DW_ATE_boolean)
     695                            .dwattr $C$DW$T$4, DW_AT_name("bool")
     696                            .dwattr $C$DW$T$4, DW_AT_byte_size(0x01)
     697                    $C$DW$T$5       .dwtag  DW_TAG_base_type
     698                            .dwattr $C$DW$T$5, DW_AT_encoding(DW_ATE_signed_char)
     699                            .dwattr $C$DW$T$5, DW_AT_name("signed char")
     700                            .dwattr $C$DW$T$5, DW_AT_byte_size(0x01)
     701                    $C$DW$T$56      .dwtag  DW_TAG_typedef, DW_AT_name("int8_t")
     702                            .dwattr $C$DW$T$56, DW_AT_type(*$C$DW$T$5)
     703                            .dwattr $C$DW$T$56, DW_AT_language(DW_LANG_C)
     704                            .dwattr $C$DW$T$56, DW_AT_decl_file("C:/TI_CodeComposer/ccsv6/tools/compiler/ti-cgt-arm_5.2.2/
     705                            .dwattr $C$DW$T$56, DW_AT_decl_line(0x2a)
     706                            .dwattr $C$DW$T$56, DW_AT_decl_column(0x1d)
     707                    $C$DW$T$57      .dwtag  DW_TAG_typedef, DW_AT_name("int_least8_t")
     708                            .dwattr $C$DW$T$57, DW_AT_type(*$C$DW$T$56)
     709                            .dwattr $C$DW$T$57, DW_AT_language(DW_LANG_C)
     710                            .dwattr $C$DW$T$57, DW_AT_decl_file("C:/TI_CodeComposer/ccsv6/tools/compiler/ti-cgt-arm_5.2.2/
     711                            .dwattr $C$DW$T$57, DW_AT_decl_line(0x37)
     712                            .dwattr $C$DW$T$57, DW_AT_decl_column(0x17)
     713                    $C$DW$T$6       .dwtag  DW_TAG_base_type
     714                            .dwattr $C$DW$T$6, DW_AT_encoding(DW_ATE_unsigned_char)
     715                            .dwattr $C$DW$T$6, DW_AT_name("unsigned char")
TI ARM Assembler PC v5.2.2 Thu Mar 10 16:27:00 2016

Tools Copyright (c) 1996-2015 Texas Instruments Incorporated
list.asm                                                             PAGE   14

     716                            .dwattr $C$DW$T$6, DW_AT_byte_size(0x01)
     717                    $C$DW$T$22      .dwtag  DW_TAG_typedef, DW_AT_name("uint8_t")
     718                            .dwattr $C$DW$T$22, DW_AT_type(*$C$DW$T$6)
     719                            .dwattr $C$DW$T$22, DW_AT_language(DW_LANG_C)
     720                            .dwattr $C$DW$T$22, DW_AT_decl_file("C:/TI_CodeComposer/ccsv6/tools/compiler/ti-cgt-arm_5.2.2/
     721                            .dwattr $C$DW$T$22, DW_AT_decl_line(0x2b)
     722                            .dwattr $C$DW$T$22, DW_AT_decl_column(0x1c)
     723                    $C$DW$T$23      .dwtag  DW_TAG_pointer_type
     724                            .dwattr $C$DW$T$23, DW_AT_type(*$C$DW$T$22)
     725                            .dwattr $C$DW$T$23, DW_AT_address_class(0x20)
     726                    $C$DW$T$58      .dwtag  DW_TAG_typedef, DW_AT_name("portCHAR")
     727                            .dwattr $C$DW$T$58, DW_AT_type(*$C$DW$T$22)
     728                            .dwattr $C$DW$T$58, DW_AT_language(DW_LANG_C)
     729                            .dwattr $C$DW$T$58, DW_AT_decl_file("H:/EECS_690/TI_ARM_Tiva_Projects_EECS_690_Sp16/Source/por
     730                            .dwattr $C$DW$T$58, DW_AT_decl_line(0x60)
     731                            .dwattr $C$DW$T$58, DW_AT_decl_column(0x12)
     732                    $C$DW$T$59      .dwtag  DW_TAG_typedef, DW_AT_name("uint_least8_t")
     733                            .dwattr $C$DW$T$59, DW_AT_type(*$C$DW$T$22)
     734                            .dwattr $C$DW$T$59, DW_AT_language(DW_LANG_C)
     735                            .dwattr $C$DW$T$59, DW_AT_decl_file("C:/TI_CodeComposer/ccsv6/tools/compiler/ti-cgt-arm_5.2.2/
     736                            .dwattr $C$DW$T$59, DW_AT_decl_line(0x38)
     737                            .dwattr $C$DW$T$59, DW_AT_decl_column(0x16)
     738                    $C$DW$T$7       .dwtag  DW_TAG_base_type
     739                            .dwattr $C$DW$T$7, DW_AT_encoding(DW_ATE_signed_char)
     740                            .dwattr $C$DW$T$7, DW_AT_name("wchar_t")
     741                            .dwattr $C$DW$T$7, DW_AT_byte_size(0x02)
     742                    $C$DW$T$8       .dwtag  DW_TAG_base_type
     743                            .dwattr $C$DW$T$8, DW_AT_encoding(DW_ATE_signed)
     744                            .dwattr $C$DW$T$8, DW_AT_name("short")
     745                            .dwattr $C$DW$T$8, DW_AT_byte_size(0x02)
     746                    $C$DW$T$60      .dwtag  DW_TAG_typedef, DW_AT_name("int16_t")
     747                            .dwattr $C$DW$T$60, DW_AT_type(*$C$DW$T$8)
     748                            .dwattr $C$DW$T$60, DW_AT_language(DW_LANG_C)
     749                            .dwattr $C$DW$T$60, DW_AT_decl_file("C:/TI_CodeComposer/ccsv6/tools/compiler/ti-cgt-arm_5.2.2/
     750                            .dwattr $C$DW$T$60, DW_AT_decl_line(0x2c)
     751                            .dwattr $C$DW$T$60, DW_AT_decl_column(0x1d)
     752                    $C$DW$T$61      .dwtag  DW_TAG_typedef, DW_AT_name("int_least16_t")
     753                            .dwattr $C$DW$T$61, DW_AT_type(*$C$DW$T$60)
     754                            .dwattr $C$DW$T$61, DW_AT_language(DW_LANG_C)
     755                            .dwattr $C$DW$T$61, DW_AT_decl_file("C:/TI_CodeComposer/ccsv6/tools/compiler/ti-cgt-arm_5.2.2/
     756                            .dwattr $C$DW$T$61, DW_AT_decl_line(0x3a)
     757                            .dwattr $C$DW$T$61, DW_AT_decl_column(0x17)
     758                    $C$DW$T$62      .dwtag  DW_TAG_typedef, DW_AT_name("portSHORT")
     759                            .dwattr $C$DW$T$62, DW_AT_type(*$C$DW$T$60)
     760                            .dwattr $C$DW$T$62, DW_AT_language(DW_LANG_C)
     761                            .dwattr $C$DW$T$62, DW_AT_decl_file("H:/EECS_690/TI_ARM_Tiva_Projects_EECS_690_Sp16/Source/por
     762                            .dwattr $C$DW$T$62, DW_AT_decl_line(0x64)
     763                            .dwattr $C$DW$T$62, DW_AT_decl_column(0x12)
     764                    $C$DW$T$9       .dwtag  DW_TAG_base_type
     765                            .dwattr $C$DW$T$9, DW_AT_encoding(DW_ATE_unsigned)
     766                            .dwattr $C$DW$T$9, DW_AT_name("unsigned short")
     767                            .dwattr $C$DW$T$9, DW_AT_byte_size(0x02)
     768                    $C$DW$T$63      .dwtag  DW_TAG_typedef, DW_AT_name("_Wchart")
     769                            .dwattr $C$DW$T$63, DW_AT_type(*$C$DW$T$9)
     770                            .dwattr $C$DW$T$63, DW_AT_language(DW_LANG_C)
TI ARM Assembler PC v5.2.2 Thu Mar 10 16:27:00 2016

Tools Copyright (c) 1996-2015 Texas Instruments Incorporated
list.asm                                                             PAGE   15

     771                            .dwattr $C$DW$T$63, DW_AT_decl_file("C:/TI_CodeComposer/ccsv6/tools/compiler/ti-cgt-arm_5.2.2/
     772                            .dwattr $C$DW$T$63, DW_AT_decl_line(0x1e5)
     773                            .dwattr $C$DW$T$63, DW_AT_decl_column(0x21)
     774                    $C$DW$T$64      .dwtag  DW_TAG_typedef, DW_AT_name("_Wintt")
     775                            .dwattr $C$DW$T$64, DW_AT_type(*$C$DW$T$9)
     776                            .dwattr $C$DW$T$64, DW_AT_language(DW_LANG_C)
     777                            .dwattr $C$DW$T$64, DW_AT_decl_file("C:/TI_CodeComposer/ccsv6/tools/compiler/ti-cgt-arm_5.2.2/
     778                            .dwattr $C$DW$T$64, DW_AT_decl_line(0x1e6)
     779                            .dwattr $C$DW$T$64, DW_AT_decl_column(0x21)
     780                    $C$DW$T$65      .dwtag  DW_TAG_typedef, DW_AT_name("uint16_t")
     781                            .dwattr $C$DW$T$65, DW_AT_type(*$C$DW$T$9)
     782                            .dwattr $C$DW$T$65, DW_AT_language(DW_LANG_C)
     783                            .dwattr $C$DW$T$65, DW_AT_decl_file("C:/TI_CodeComposer/ccsv6/tools/compiler/ti-cgt-arm_5.2.2/
     784                            .dwattr $C$DW$T$65, DW_AT_decl_line(0x2d)
     785                            .dwattr $C$DW$T$65, DW_AT_decl_column(0x1c)
     786                    $C$DW$T$66      .dwtag  DW_TAG_typedef, DW_AT_name("uint_least16_t")
     787                            .dwattr $C$DW$T$66, DW_AT_type(*$C$DW$T$65)
     788                            .dwattr $C$DW$T$66, DW_AT_language(DW_LANG_C)
     789                            .dwattr $C$DW$T$66, DW_AT_decl_file("C:/TI_CodeComposer/ccsv6/tools/compiler/ti-cgt-arm_5.2.2/
     790                            .dwattr $C$DW$T$66, DW_AT_decl_line(0x3b)
     791                            .dwattr $C$DW$T$66, DW_AT_decl_column(0x16)
     792                    $C$DW$T$67      .dwtag  DW_TAG_typedef, DW_AT_name("wchar_t")
     793                            .dwattr $C$DW$T$67, DW_AT_type(*$C$DW$T$9)
     794                            .dwattr $C$DW$T$67, DW_AT_language(DW_LANG_C)
     795                            .dwattr $C$DW$T$67, DW_AT_decl_file("C:/TI_CodeComposer/ccsv6/tools/compiler/ti-cgt-arm_5.2.2/
     796                            .dwattr $C$DW$T$67, DW_AT_decl_line(0x75)
     797                            .dwattr $C$DW$T$67, DW_AT_decl_column(0x1a)
     798                    $C$DW$T$10      .dwtag  DW_TAG_base_type
     799                            .dwattr $C$DW$T$10, DW_AT_encoding(DW_ATE_signed)
     800                            .dwattr $C$DW$T$10, DW_AT_name("int")
     801                            .dwattr $C$DW$T$10, DW_AT_byte_size(0x04)
     802                    $C$DW$T$68      .dwtag  DW_TAG_typedef, DW_AT_name("_Ptrdifft")
     803                            .dwattr $C$DW$T$68, DW_AT_type(*$C$DW$T$10)
     804                            .dwattr $C$DW$T$68, DW_AT_language(DW_LANG_C)
     805                            .dwattr $C$DW$T$68, DW_AT_decl_file("C:/TI_CodeComposer/ccsv6/tools/compiler/ti-cgt-arm_5.2.2/
     806                            .dwattr $C$DW$T$68, DW_AT_decl_line(0xa9)
     807                            .dwattr $C$DW$T$68, DW_AT_decl_column(0x1e)
     808                    
     809                    $C$DW$T$69      .dwtag  DW_TAG_subroutine_type
     810                            .dwattr $C$DW$T$69, DW_AT_type(*$C$DW$T$10)
     811                            .dwattr $C$DW$T$69, DW_AT_language(DW_LANG_C)
     812                    $C$DW$38        .dwtag  DW_TAG_formal_parameter
     813                            .dwattr $C$DW$38, DW_AT_type(*$C$DW$T$52)
     814                    $C$DW$39        .dwtag  DW_TAG_formal_parameter
     815                            .dwattr $C$DW$39, DW_AT_type(*$C$DW$T$52)
     816                            .dwendtag $C$DW$T$69
     817                    
     818                    $C$DW$T$70      .dwtag  DW_TAG_pointer_type
     819                            .dwattr $C$DW$T$70, DW_AT_type(*$C$DW$T$69)
     820                            .dwattr $C$DW$T$70, DW_AT_address_class(0x20)
     821                    $C$DW$T$71      .dwtag  DW_TAG_typedef, DW_AT_name("__TI_compar_fn")
     822                            .dwattr $C$DW$T$71, DW_AT_type(*$C$DW$T$70)
     823                            .dwattr $C$DW$T$71, DW_AT_language(DW_LANG_C)
     824                            .dwattr $C$DW$T$71, DW_AT_decl_file("C:/TI_CodeComposer/ccsv6/tools/compiler/ti-cgt-arm_5.2.2/
     825                            .dwattr $C$DW$T$71, DW_AT_decl_line(0xb5)
TI ARM Assembler PC v5.2.2 Thu Mar 10 16:27:00 2016

Tools Copyright (c) 1996-2015 Texas Instruments Incorporated
list.asm                                                             PAGE   16

     826                            .dwattr $C$DW$T$71, DW_AT_decl_column(0x13)
     827                    $C$DW$T$72      .dwtag  DW_TAG_typedef, DW_AT_name("int32_t")
     828                            .dwattr $C$DW$T$72, DW_AT_type(*$C$DW$T$10)
     829                            .dwattr $C$DW$T$72, DW_AT_language(DW_LANG_C)
     830                            .dwattr $C$DW$T$72, DW_AT_decl_file("C:/TI_CodeComposer/ccsv6/tools/compiler/ti-cgt-arm_5.2.2/
     831                            .dwattr $C$DW$T$72, DW_AT_decl_line(0x2e)
     832                            .dwattr $C$DW$T$72, DW_AT_decl_column(0x1d)
     833                    $C$DW$T$73      .dwtag  DW_TAG_typedef, DW_AT_name("BaseType_t")
     834                            .dwattr $C$DW$T$73, DW_AT_type(*$C$DW$T$72)
     835                            .dwattr $C$DW$T$73, DW_AT_language(DW_LANG_C)
     836                            .dwattr $C$DW$T$73, DW_AT_decl_file("H:/EECS_690/TI_ARM_Tiva_Projects_EECS_690_Sp16/Source/por
     837                            .dwattr $C$DW$T$73, DW_AT_decl_line(0x69)
     838                            .dwattr $C$DW$T$73, DW_AT_decl_column(0x12)
     839                    $C$DW$T$74      .dwtag  DW_TAG_typedef, DW_AT_name("int_fast16_t")
     840                            .dwattr $C$DW$T$74, DW_AT_type(*$C$DW$T$72)
     841                            .dwattr $C$DW$T$74, DW_AT_language(DW_LANG_C)
     842                            .dwattr $C$DW$T$74, DW_AT_decl_file("C:/TI_CodeComposer/ccsv6/tools/compiler/ti-cgt-arm_5.2.2/
     843                            .dwattr $C$DW$T$74, DW_AT_decl_line(0x47)
     844                            .dwattr $C$DW$T$74, DW_AT_decl_column(0x17)
     845                    $C$DW$T$75      .dwtag  DW_TAG_typedef, DW_AT_name("int_fast32_t")
     846                            .dwattr $C$DW$T$75, DW_AT_type(*$C$DW$T$72)
     847                            .dwattr $C$DW$T$75, DW_AT_language(DW_LANG_C)
     848                            .dwattr $C$DW$T$75, DW_AT_decl_file("C:/TI_CodeComposer/ccsv6/tools/compiler/ti-cgt-arm_5.2.2/
     849                            .dwattr $C$DW$T$75, DW_AT_decl_line(0x4a)
     850                            .dwattr $C$DW$T$75, DW_AT_decl_column(0x17)
     851                    $C$DW$T$76      .dwtag  DW_TAG_typedef, DW_AT_name("int_fast8_t")
     852                            .dwattr $C$DW$T$76, DW_AT_type(*$C$DW$T$72)
     853                            .dwattr $C$DW$T$76, DW_AT_language(DW_LANG_C)
     854                            .dwattr $C$DW$T$76, DW_AT_decl_file("C:/TI_CodeComposer/ccsv6/tools/compiler/ti-cgt-arm_5.2.2/
     855                            .dwattr $C$DW$T$76, DW_AT_decl_line(0x45)
     856                            .dwattr $C$DW$T$76, DW_AT_decl_column(0x17)
     857                    $C$DW$T$77      .dwtag  DW_TAG_typedef, DW_AT_name("int_least32_t")
     858                            .dwattr $C$DW$T$77, DW_AT_type(*$C$DW$T$72)
     859                            .dwattr $C$DW$T$77, DW_AT_language(DW_LANG_C)
     860                            .dwattr $C$DW$T$77, DW_AT_decl_file("C:/TI_CodeComposer/ccsv6/tools/compiler/ti-cgt-arm_5.2.2/
     861                            .dwattr $C$DW$T$77, DW_AT_decl_line(0x3c)
     862                            .dwattr $C$DW$T$77, DW_AT_decl_column(0x17)
     863                    $C$DW$T$78      .dwtag  DW_TAG_typedef, DW_AT_name("portBASE_TYPE")
     864                            .dwattr $C$DW$T$78, DW_AT_type(*$C$DW$T$72)
     865                            .dwattr $C$DW$T$78, DW_AT_language(DW_LANG_C)
     866                            .dwattr $C$DW$T$78, DW_AT_decl_file("H:/EECS_690/TI_ARM_Tiva_Projects_EECS_690_Sp16/Source/por
     867                            .dwattr $C$DW$T$78, DW_AT_decl_line(0x66)
     868                            .dwattr $C$DW$T$78, DW_AT_decl_column(0x12)
     869                    $C$DW$T$79      .dwtag  DW_TAG_typedef, DW_AT_name("portLONG")
     870                            .dwattr $C$DW$T$79, DW_AT_type(*$C$DW$T$72)
     871                            .dwattr $C$DW$T$79, DW_AT_language(DW_LANG_C)
     872                            .dwattr $C$DW$T$79, DW_AT_decl_file("H:/EECS_690/TI_ARM_Tiva_Projects_EECS_690_Sp16/Source/por
     873                            .dwattr $C$DW$T$79, DW_AT_decl_line(0x63)
     874                            .dwattr $C$DW$T$79, DW_AT_decl_column(0x12)
     875                    $C$DW$T$80      .dwtag  DW_TAG_typedef, DW_AT_name("intptr_t")
     876                            .dwattr $C$DW$T$80, DW_AT_type(*$C$DW$T$10)
     877                            .dwattr $C$DW$T$80, DW_AT_language(DW_LANG_C)
     878                            .dwattr $C$DW$T$80, DW_AT_decl_file("C:/TI_CodeComposer/ccsv6/tools/compiler/ti-cgt-arm_5.2.2/
     879                            .dwattr $C$DW$T$80, DW_AT_decl_line(0x52)
     880                            .dwattr $C$DW$T$80, DW_AT_decl_column(0x1a)
TI ARM Assembler PC v5.2.2 Thu Mar 10 16:27:00 2016

Tools Copyright (c) 1996-2015 Texas Instruments Incorporated
list.asm                                                             PAGE   17

     881                    $C$DW$T$81      .dwtag  DW_TAG_typedef, DW_AT_name("ptrdiff_t")
     882                            .dwattr $C$DW$T$81, DW_AT_type(*$C$DW$T$10)
     883                            .dwattr $C$DW$T$81, DW_AT_language(DW_LANG_C)
     884                            .dwattr $C$DW$T$81, DW_AT_decl_file("C:/TI_CodeComposer/ccsv6/tools/compiler/ti-cgt-arm_5.2.2/
     885                            .dwattr $C$DW$T$81, DW_AT_decl_line(0x36)
     886                            .dwattr $C$DW$T$81, DW_AT_decl_column(0x1c)
     887                    $C$DW$T$11      .dwtag  DW_TAG_base_type
     888                            .dwattr $C$DW$T$11, DW_AT_encoding(DW_ATE_unsigned)
     889                            .dwattr $C$DW$T$11, DW_AT_name("unsigned int")
     890                            .dwattr $C$DW$T$11, DW_AT_byte_size(0x04)
     891                    $C$DW$T$82      .dwtag  DW_TAG_typedef, DW_AT_name("_Sizet")
     892                            .dwattr $C$DW$T$82, DW_AT_type(*$C$DW$T$11)
     893                            .dwattr $C$DW$T$82, DW_AT_language(DW_LANG_C)
     894                            .dwattr $C$DW$T$82, DW_AT_decl_file("C:/TI_CodeComposer/ccsv6/tools/compiler/ti-cgt-arm_5.2.2/
     895                            .dwattr $C$DW$T$82, DW_AT_decl_line(0xab)
     896                            .dwattr $C$DW$T$82, DW_AT_decl_column(0x1a)
     897                    $C$DW$T$24      .dwtag  DW_TAG_typedef, DW_AT_name("size_t")
     898                            .dwattr $C$DW$T$24, DW_AT_type(*$C$DW$T$11)
     899                            .dwattr $C$DW$T$24, DW_AT_language(DW_LANG_C)
     900                            .dwattr $C$DW$T$24, DW_AT_decl_file("C:/TI_CodeComposer/ccsv6/tools/compiler/ti-cgt-arm_5.2.2/
     901                            .dwattr $C$DW$T$24, DW_AT_decl_line(0x6f)
     902                            .dwattr $C$DW$T$24, DW_AT_decl_column(0x19)
     903                    $C$DW$T$27      .dwtag  DW_TAG_typedef, DW_AT_name("uint32_t")
     904                            .dwattr $C$DW$T$27, DW_AT_type(*$C$DW$T$11)
     905                            .dwattr $C$DW$T$27, DW_AT_language(DW_LANG_C)
     906                            .dwattr $C$DW$T$27, DW_AT_decl_file("C:/TI_CodeComposer/ccsv6/tools/compiler/ti-cgt-arm_5.2.2/
     907                            .dwattr $C$DW$T$27, DW_AT_decl_line(0x2f)
     908                            .dwattr $C$DW$T$27, DW_AT_decl_column(0x1c)
     909                    $C$DW$T$83      .dwtag  DW_TAG_typedef, DW_AT_name("StackType_t")
     910                            .dwattr $C$DW$T$83, DW_AT_type(*$C$DW$T$27)
     911                            .dwattr $C$DW$T$83, DW_AT_language(DW_LANG_C)
     912                            .dwattr $C$DW$T$83, DW_AT_decl_file("H:/EECS_690/TI_ARM_Tiva_Projects_EECS_690_Sp16/Source/por
     913                            .dwattr $C$DW$T$83, DW_AT_decl_line(0x68)
     914                            .dwattr $C$DW$T$83, DW_AT_decl_column(0x12)
     915                    $C$DW$T$33      .dwtag  DW_TAG_typedef, DW_AT_name("TickType_t")
     916                            .dwattr $C$DW$T$33, DW_AT_type(*$C$DW$T$27)
     917                            .dwattr $C$DW$T$33, DW_AT_language(DW_LANG_C)
     918                            .dwattr $C$DW$T$33, DW_AT_decl_file("H:/EECS_690/TI_ARM_Tiva_Projects_EECS_690_Sp16/Source/por
     919                            .dwattr $C$DW$T$33, DW_AT_decl_line(0x70)
     920                            .dwattr $C$DW$T$33, DW_AT_decl_column(0x13)
     921                    $C$DW$T$84      .dwtag  DW_TAG_const_type
     922                            .dwattr $C$DW$T$84, DW_AT_type(*$C$DW$T$33)
     923                    $C$DW$T$28      .dwtag  DW_TAG_typedef, DW_AT_name("UBaseType_t")
     924                            .dwattr $C$DW$T$28, DW_AT_type(*$C$DW$T$27)
     925                            .dwattr $C$DW$T$28, DW_AT_language(DW_LANG_C)
     926                            .dwattr $C$DW$T$28, DW_AT_decl_file("H:/EECS_690/TI_ARM_Tiva_Projects_EECS_690_Sp16/Source/por
     927                            .dwattr $C$DW$T$28, DW_AT_decl_line(0x6a)
     928                            .dwattr $C$DW$T$28, DW_AT_decl_column(0x12)
     929                    $C$DW$T$86      .dwtag  DW_TAG_typedef, DW_AT_name("portSTACK_TYPE")
     930                            .dwattr $C$DW$T$86, DW_AT_type(*$C$DW$T$27)
     931                            .dwattr $C$DW$T$86, DW_AT_language(DW_LANG_C)
     932                            .dwattr $C$DW$T$86, DW_AT_decl_file("H:/EECS_690/TI_ARM_Tiva_Projects_EECS_690_Sp16/Source/por
     933                            .dwattr $C$DW$T$86, DW_AT_decl_line(0x65)
     934                            .dwattr $C$DW$T$86, DW_AT_decl_column(0x12)
     935                    $C$DW$T$87      .dwtag  DW_TAG_typedef, DW_AT_name("uint_fast16_t")
TI ARM Assembler PC v5.2.2 Thu Mar 10 16:27:00 2016

Tools Copyright (c) 1996-2015 Texas Instruments Incorporated
list.asm                                                             PAGE   18

     936                            .dwattr $C$DW$T$87, DW_AT_type(*$C$DW$T$27)
     937                            .dwattr $C$DW$T$87, DW_AT_language(DW_LANG_C)
     938                            .dwattr $C$DW$T$87, DW_AT_decl_file("C:/TI_CodeComposer/ccsv6/tools/compiler/ti-cgt-arm_5.2.2/
     939                            .dwattr $C$DW$T$87, DW_AT_decl_line(0x48)
     940                            .dwattr $C$DW$T$87, DW_AT_decl_column(0x16)
     941                    $C$DW$T$88      .dwtag  DW_TAG_typedef, DW_AT_name("uint_fast32_t")
     942                            .dwattr $C$DW$T$88, DW_AT_type(*$C$DW$T$27)
     943                            .dwattr $C$DW$T$88, DW_AT_language(DW_LANG_C)
     944                            .dwattr $C$DW$T$88, DW_AT_decl_file("C:/TI_CodeComposer/ccsv6/tools/compiler/ti-cgt-arm_5.2.2/
     945                            .dwattr $C$DW$T$88, DW_AT_decl_line(0x4b)
     946                            .dwattr $C$DW$T$88, DW_AT_decl_column(0x16)
     947                    $C$DW$T$89      .dwtag  DW_TAG_typedef, DW_AT_name("uint_fast8_t")
     948                            .dwattr $C$DW$T$89, DW_AT_type(*$C$DW$T$27)
     949                            .dwattr $C$DW$T$89, DW_AT_language(DW_LANG_C)
     950                            .dwattr $C$DW$T$89, DW_AT_decl_file("C:/TI_CodeComposer/ccsv6/tools/compiler/ti-cgt-arm_5.2.2/
     951                            .dwattr $C$DW$T$89, DW_AT_decl_line(0x46)
     952                            .dwattr $C$DW$T$89, DW_AT_decl_column(0x16)
     953                    $C$DW$T$90      .dwtag  DW_TAG_typedef, DW_AT_name("uint_least32_t")
     954                            .dwattr $C$DW$T$90, DW_AT_type(*$C$DW$T$27)
     955                            .dwattr $C$DW$T$90, DW_AT_language(DW_LANG_C)
     956                            .dwattr $C$DW$T$90, DW_AT_decl_file("C:/TI_CodeComposer/ccsv6/tools/compiler/ti-cgt-arm_5.2.2/
     957                            .dwattr $C$DW$T$90, DW_AT_decl_line(0x3d)
     958                            .dwattr $C$DW$T$90, DW_AT_decl_column(0x16)
     959                    $C$DW$T$91      .dwtag  DW_TAG_typedef, DW_AT_name("uintptr_t")
     960                            .dwattr $C$DW$T$91, DW_AT_type(*$C$DW$T$11)
     961                            .dwattr $C$DW$T$91, DW_AT_language(DW_LANG_C)
     962                            .dwattr $C$DW$T$91, DW_AT_decl_file("C:/TI_CodeComposer/ccsv6/tools/compiler/ti-cgt-arm_5.2.2/
     963                            .dwattr $C$DW$T$91, DW_AT_decl_line(0x53)
     964                            .dwattr $C$DW$T$91, DW_AT_decl_column(0x1a)
     965                    $C$DW$T$12      .dwtag  DW_TAG_base_type
     966                            .dwattr $C$DW$T$12, DW_AT_encoding(DW_ATE_signed)
     967                            .dwattr $C$DW$T$12, DW_AT_name("long")
     968                            .dwattr $C$DW$T$12, DW_AT_byte_size(0x04)
     969                    $C$DW$T$92      .dwtag  DW_TAG_typedef, DW_AT_name("_Int32t")
     970                            .dwattr $C$DW$T$92, DW_AT_type(*$C$DW$T$12)
     971                            .dwattr $C$DW$T$92, DW_AT_language(DW_LANG_C)
     972                            .dwattr $C$DW$T$92, DW_AT_decl_file("C:/TI_CodeComposer/ccsv6/tools/compiler/ti-cgt-arm_5.2.2/
     973                            .dwattr $C$DW$T$92, DW_AT_decl_line(0xa6)
     974                            .dwattr $C$DW$T$92, DW_AT_decl_column(0x0e)
     975                    $C$DW$T$13      .dwtag  DW_TAG_base_type
     976                            .dwattr $C$DW$T$13, DW_AT_encoding(DW_ATE_unsigned)
     977                            .dwattr $C$DW$T$13, DW_AT_name("unsigned long")
     978                            .dwattr $C$DW$T$13, DW_AT_byte_size(0x04)
     979                    $C$DW$T$93      .dwtag  DW_TAG_typedef, DW_AT_name("_Uint32t")
     980                            .dwattr $C$DW$T$93, DW_AT_type(*$C$DW$T$13)
     981                            .dwattr $C$DW$T$93, DW_AT_language(DW_LANG_C)
     982                            .dwattr $C$DW$T$93, DW_AT_decl_file("C:/TI_CodeComposer/ccsv6/tools/compiler/ti-cgt-arm_5.2.2/
     983                            .dwattr $C$DW$T$93, DW_AT_decl_line(0xa7)
     984                            .dwattr $C$DW$T$93, DW_AT_decl_column(0x17)
     985                    $C$DW$T$14      .dwtag  DW_TAG_base_type
     986                            .dwattr $C$DW$T$14, DW_AT_encoding(DW_ATE_signed)
     987                            .dwattr $C$DW$T$14, DW_AT_name("long long")
     988                            .dwattr $C$DW$T$14, DW_AT_byte_size(0x08)
     989                    $C$DW$T$94      .dwtag  DW_TAG_typedef, DW_AT_name("_Longlong")
     990                            .dwattr $C$DW$T$94, DW_AT_type(*$C$DW$T$14)
TI ARM Assembler PC v5.2.2 Thu Mar 10 16:27:00 2016

Tools Copyright (c) 1996-2015 Texas Instruments Incorporated
list.asm                                                             PAGE   19

     991                            .dwattr $C$DW$T$94, DW_AT_language(DW_LANG_C)
     992                            .dwattr $C$DW$T$94, DW_AT_decl_file("C:/TI_CodeComposer/ccsv6/tools/compiler/ti-cgt-arm_5.2.2/
     993                            .dwattr $C$DW$T$94, DW_AT_decl_line(0x1b5)
     994                            .dwattr $C$DW$T$94, DW_AT_decl_column(0x13)
     995                    $C$DW$T$95      .dwtag  DW_TAG_typedef, DW_AT_name("int64_t")
     996                            .dwattr $C$DW$T$95, DW_AT_type(*$C$DW$T$14)
     997                            .dwattr $C$DW$T$95, DW_AT_language(DW_LANG_C)
     998                            .dwattr $C$DW$T$95, DW_AT_decl_file("C:/TI_CodeComposer/ccsv6/tools/compiler/ti-cgt-arm_5.2.2/
     999                            .dwattr $C$DW$T$95, DW_AT_decl_line(0x32)
    1000                            .dwattr $C$DW$T$95, DW_AT_decl_column(0x21)
    1001                    $C$DW$T$96      .dwtag  DW_TAG_typedef, DW_AT_name("int_fast64_t")
    1002                            .dwattr $C$DW$T$96, DW_AT_type(*$C$DW$T$95)
    1003                            .dwattr $C$DW$T$96, DW_AT_language(DW_LANG_C)
    1004                            .dwattr $C$DW$T$96, DW_AT_decl_file("C:/TI_CodeComposer/ccsv6/tools/compiler/ti-cgt-arm_5.2.2/
    1005                            .dwattr $C$DW$T$96, DW_AT_decl_line(0x4e)
    1006                            .dwattr $C$DW$T$96, DW_AT_decl_column(0x17)
    1007                    $C$DW$T$97      .dwtag  DW_TAG_typedef, DW_AT_name("int_least64_t")
    1008                            .dwattr $C$DW$T$97, DW_AT_type(*$C$DW$T$95)
    1009                            .dwattr $C$DW$T$97, DW_AT_language(DW_LANG_C)
    1010                            .dwattr $C$DW$T$97, DW_AT_decl_file("C:/TI_CodeComposer/ccsv6/tools/compiler/ti-cgt-arm_5.2.2/
    1011                            .dwattr $C$DW$T$97, DW_AT_decl_line(0x40)
    1012                            .dwattr $C$DW$T$97, DW_AT_decl_column(0x17)
    1013                    $C$DW$T$98      .dwtag  DW_TAG_typedef, DW_AT_name("portDOUBLE")
    1014                            .dwattr $C$DW$T$98, DW_AT_type(*$C$DW$T$95)
    1015                            .dwattr $C$DW$T$98, DW_AT_language(DW_LANG_C)
    1016                            .dwattr $C$DW$T$98, DW_AT_decl_file("H:/EECS_690/TI_ARM_Tiva_Projects_EECS_690_Sp16/Source/por
    1017                            .dwattr $C$DW$T$98, DW_AT_decl_line(0x62)
    1018                            .dwattr $C$DW$T$98, DW_AT_decl_column(0x12)
    1019                    $C$DW$T$99      .dwtag  DW_TAG_typedef, DW_AT_name("intmax_t")
    1020                            .dwattr $C$DW$T$99, DW_AT_type(*$C$DW$T$14)
    1021                            .dwattr $C$DW$T$99, DW_AT_language(DW_LANG_C)
    1022                            .dwattr $C$DW$T$99, DW_AT_decl_file("C:/TI_CodeComposer/ccsv6/tools/compiler/ti-cgt-arm_5.2.2/
    1023                            .dwattr $C$DW$T$99, DW_AT_decl_line(0x56)
    1024                            .dwattr $C$DW$T$99, DW_AT_decl_column(0x20)
    1025                    $C$DW$T$15      .dwtag  DW_TAG_base_type
    1026                            .dwattr $C$DW$T$15, DW_AT_encoding(DW_ATE_unsigned)
    1027                            .dwattr $C$DW$T$15, DW_AT_name("unsigned long long")
    1028                            .dwattr $C$DW$T$15, DW_AT_byte_size(0x08)
    1029                    $C$DW$T$100     .dwtag  DW_TAG_typedef, DW_AT_name("_ULonglong")
    1030                            .dwattr $C$DW$T$100, DW_AT_type(*$C$DW$T$15)
    1031                            .dwattr $C$DW$T$100, DW_AT_language(DW_LANG_C)
    1032                            .dwattr $C$DW$T$100, DW_AT_decl_file("C:/TI_CodeComposer/ccsv6/tools/compiler/ti-cgt-arm_5.2.2
    1033                            .dwattr $C$DW$T$100, DW_AT_decl_line(0x1b6)
    1034                            .dwattr $C$DW$T$100, DW_AT_decl_column(0x14)
    1035                    $C$DW$T$101     .dwtag  DW_TAG_typedef, DW_AT_name("uint64_t")
    1036                            .dwattr $C$DW$T$101, DW_AT_type(*$C$DW$T$15)
    1037                            .dwattr $C$DW$T$101, DW_AT_language(DW_LANG_C)
    1038                            .dwattr $C$DW$T$101, DW_AT_decl_file("C:/TI_CodeComposer/ccsv6/tools/compiler/ti-cgt-arm_5.2.2
    1039                            .dwattr $C$DW$T$101, DW_AT_decl_line(0x33)
    1040                            .dwattr $C$DW$T$101, DW_AT_decl_column(0x20)
    1041                    $C$DW$T$102     .dwtag  DW_TAG_typedef, DW_AT_name("uint_fast64_t")
    1042                            .dwattr $C$DW$T$102, DW_AT_type(*$C$DW$T$101)
    1043                            .dwattr $C$DW$T$102, DW_AT_language(DW_LANG_C)
    1044                            .dwattr $C$DW$T$102, DW_AT_decl_file("C:/TI_CodeComposer/ccsv6/tools/compiler/ti-cgt-arm_5.2.2
    1045                            .dwattr $C$DW$T$102, DW_AT_decl_line(0x4f)
TI ARM Assembler PC v5.2.2 Thu Mar 10 16:27:00 2016

Tools Copyright (c) 1996-2015 Texas Instruments Incorporated
list.asm                                                             PAGE   20

    1046                            .dwattr $C$DW$T$102, DW_AT_decl_column(0x16)
    1047                    $C$DW$T$103     .dwtag  DW_TAG_typedef, DW_AT_name("uint_least64_t")
    1048                            .dwattr $C$DW$T$103, DW_AT_type(*$C$DW$T$101)
    1049                            .dwattr $C$DW$T$103, DW_AT_language(DW_LANG_C)
    1050                            .dwattr $C$DW$T$103, DW_AT_decl_file("C:/TI_CodeComposer/ccsv6/tools/compiler/ti-cgt-arm_5.2.2
    1051                            .dwattr $C$DW$T$103, DW_AT_decl_line(0x41)
    1052                            .dwattr $C$DW$T$103, DW_AT_decl_column(0x16)
    1053                    $C$DW$T$104     .dwtag  DW_TAG_typedef, DW_AT_name("uintmax_t")
    1054                            .dwattr $C$DW$T$104, DW_AT_type(*$C$DW$T$15)
    1055                            .dwattr $C$DW$T$104, DW_AT_language(DW_LANG_C)
    1056                            .dwattr $C$DW$T$104, DW_AT_decl_file("C:/TI_CodeComposer/ccsv6/tools/compiler/ti-cgt-arm_5.2.2
    1057                            .dwattr $C$DW$T$104, DW_AT_decl_line(0x57)
    1058                            .dwattr $C$DW$T$104, DW_AT_decl_column(0x20)
    1059                    $C$DW$T$16      .dwtag  DW_TAG_base_type
    1060                            .dwattr $C$DW$T$16, DW_AT_encoding(DW_ATE_float)
    1061                            .dwattr $C$DW$T$16, DW_AT_name("float")
    1062                            .dwattr $C$DW$T$16, DW_AT_byte_size(0x04)
    1063                    $C$DW$T$105     .dwtag  DW_TAG_typedef, DW_AT_name("portFLOAT")
    1064                            .dwattr $C$DW$T$105, DW_AT_type(*$C$DW$T$16)
    1065                            .dwattr $C$DW$T$105, DW_AT_language(DW_LANG_C)
    1066                            .dwattr $C$DW$T$105, DW_AT_decl_file("H:/EECS_690/TI_ARM_Tiva_Projects_EECS_690_Sp16/Source/po
    1067                            .dwattr $C$DW$T$105, DW_AT_decl_line(0x61)
    1068                            .dwattr $C$DW$T$105, DW_AT_decl_column(0x10)
    1069                    $C$DW$T$17      .dwtag  DW_TAG_base_type
    1070                            .dwattr $C$DW$T$17, DW_AT_encoding(DW_ATE_float)
    1071                            .dwattr $C$DW$T$17, DW_AT_name("double")
    1072                            .dwattr $C$DW$T$17, DW_AT_byte_size(0x08)
    1073                    $C$DW$T$18      .dwtag  DW_TAG_base_type
    1074                            .dwattr $C$DW$T$18, DW_AT_encoding(DW_ATE_float)
    1075                            .dwattr $C$DW$T$18, DW_AT_name("long double")
    1076                            .dwattr $C$DW$T$18, DW_AT_byte_size(0x08)
    1077                    $C$DW$T$107     .dwtag  DW_TAG_typedef, DW_AT_name("_Sysch_t")
    1078                            .dwattr $C$DW$T$107, DW_AT_type(*$C$DW$T$6)
    1079                            .dwattr $C$DW$T$107, DW_AT_language(DW_LANG_C)
    1080                            .dwattr $C$DW$T$107, DW_AT_decl_file("C:/TI_CodeComposer/ccsv6/tools/compiler/ti-cgt-arm_5.2.2
    1081                            .dwattr $C$DW$T$107, DW_AT_decl_line(0x218)
    1082                            .dwattr $C$DW$T$107, DW_AT_decl_column(0x0e)
    1083                    $C$DW$T$108     .dwtag  DW_TAG_pointer_type
    1084                            .dwattr $C$DW$T$108, DW_AT_type(*$C$DW$T$6)
    1085                            .dwattr $C$DW$T$108, DW_AT_address_class(0x20)
    1086                    $C$DW$T$109     .dwtag  DW_TAG_typedef, DW_AT_name("__builtin_va_list")
    1087                            .dwattr $C$DW$T$109, DW_AT_type(*$C$DW$T$108)
    1088                            .dwattr $C$DW$T$109, DW_AT_language(DW_LANG_C)
    1089                            .dwattr $C$DW$T$109, DW_AT_decl_file("H:/EECS_690/TI_ARM_Tiva_Projects_EECS_690_Sp16/Source/li
    1090                            .dwattr $C$DW$T$109, DW_AT_decl_line(0xee)
    1091                            .dwattr $C$DW$T$109, DW_AT_decl_column(0x01)
    1092                    
    1093                    $C$DW$T$26      .dwtag  DW_TAG_structure_type
    1094                            .dwattr $C$DW$T$26, DW_AT_name("__va_list")
    1095                            .dwattr $C$DW$T$26, DW_AT_byte_size(0x04)
    1096                    $C$DW$40        .dwtag  DW_TAG_member
    1097                            .dwattr $C$DW$40, DW_AT_type(*$C$DW$T$3)
    1098                            .dwattr $C$DW$40, DW_AT_name("__ap")
    1099                            .dwattr $C$DW$40, DW_AT_TI_symbol_name("__ap")
    1100                            .dwattr $C$DW$40, DW_AT_data_member_location[DW_OP_plus_uconst 0x0]
TI ARM Assembler PC v5.2.2 Thu Mar 10 16:27:00 2016

Tools Copyright (c) 1996-2015 Texas Instruments Incorporated
list.asm                                                             PAGE   21

    1101                            .dwattr $C$DW$40, DW_AT_accessibility(DW_ACCESS_public)
    1102                            .dwattr $C$DW$40, DW_AT_decl_file("C:/TI_CodeComposer/ccsv6/tools/compiler/ti-cgt-arm_5.2.2/in
    1103                            .dwattr $C$DW$40, DW_AT_decl_line(0x36)
    1104                            .dwattr $C$DW$40, DW_AT_decl_column(0x0c)
    1105                            .dwendtag $C$DW$T$26
    1106                    
    1107                            .dwattr $C$DW$T$26, DW_AT_decl_file("C:/TI_CodeComposer/ccsv6/tools/compiler/ti-cgt-arm_5.2.2/
    1108                            .dwattr $C$DW$T$26, DW_AT_decl_line(0x35)
    1109                            .dwattr $C$DW$T$26, DW_AT_decl_column(0x10)
    1110                    $C$DW$T$110     .dwtag  DW_TAG_typedef, DW_AT_name("va_list")
    1111                            .dwattr $C$DW$T$110, DW_AT_type(*$C$DW$T$26)
    1112                            .dwattr $C$DW$T$110, DW_AT_language(DW_LANG_C)
    1113                            .dwattr $C$DW$T$110, DW_AT_decl_file("C:/TI_CodeComposer/ccsv6/tools/compiler/ti-cgt-arm_5.2.2
    1114                            .dwattr $C$DW$T$110, DW_AT_decl_line(0x37)
    1115                            .dwattr $C$DW$T$110, DW_AT_decl_column(0x03)
    1116                    $C$DW$T$111     .dwtag  DW_TAG_typedef, DW_AT_name("_Va_list")
    1117                            .dwattr $C$DW$T$111, DW_AT_type(*$C$DW$T$110)
    1118                            .dwattr $C$DW$T$111, DW_AT_language(DW_LANG_C)
    1119                            .dwattr $C$DW$T$111, DW_AT_decl_file("C:/TI_CodeComposer/ccsv6/tools/compiler/ti-cgt-arm_5.2.2
    1120                            .dwattr $C$DW$T$111, DW_AT_decl_line(0x1f6)
    1121                            .dwattr $C$DW$T$111, DW_AT_decl_column(0x17)
    1122                    
    1123                    $C$DW$T$32      .dwtag  DW_TAG_structure_type
    1124                            .dwattr $C$DW$T$32, DW_AT_name("xLIST")
    1125                            .dwattr $C$DW$T$32, DW_AT_byte_size(0x14)
    1126                    $C$DW$41        .dwtag  DW_TAG_member
    1127                            .dwattr $C$DW$41, DW_AT_type(*$C$DW$T$28)
    1128                            .dwattr $C$DW$41, DW_AT_name("uxNumberOfItems")
    1129                            .dwattr $C$DW$41, DW_AT_TI_symbol_name("uxNumberOfItems")
    1130                            .dwattr $C$DW$41, DW_AT_data_member_location[DW_OP_plus_uconst 0x0]
    1131                            .dwattr $C$DW$41, DW_AT_accessibility(DW_ACCESS_public)
    1132                            .dwattr $C$DW$41, DW_AT_decl_file("H:/EECS_690/TI_ARM_Tiva_Projects_EECS_690_Sp16/Source/inclu
    1133                            .dwattr $C$DW$41, DW_AT_decl_line(0xd0)
    1134                            .dwattr $C$DW$41, DW_AT_decl_column(0x22)
    1135                    $C$DW$42        .dwtag  DW_TAG_member
    1136                            .dwattr $C$DW$42, DW_AT_type(*$C$DW$T$30)
    1137                            .dwattr $C$DW$42, DW_AT_name("pxIndex")
    1138                            .dwattr $C$DW$42, DW_AT_TI_symbol_name("pxIndex")
    1139                            .dwattr $C$DW$42, DW_AT_data_member_location[DW_OP_plus_uconst 0x4]
    1140                            .dwattr $C$DW$42, DW_AT_accessibility(DW_ACCESS_public)
    1141                            .dwattr $C$DW$42, DW_AT_decl_file("H:/EECS_690/TI_ARM_Tiva_Projects_EECS_690_Sp16/Source/inclu
    1142                            .dwattr $C$DW$42, DW_AT_decl_line(0xd1)
    1143                            .dwattr $C$DW$42, DW_AT_decl_column(0x23)
    1144                    $C$DW$43        .dwtag  DW_TAG_member
    1145                            .dwattr $C$DW$43, DW_AT_type(*$C$DW$T$31)
    1146                            .dwattr $C$DW$43, DW_AT_name("xListEnd")
    1147                            .dwattr $C$DW$43, DW_AT_TI_symbol_name("xListEnd")
    1148                            .dwattr $C$DW$43, DW_AT_data_member_location[DW_OP_plus_uconst 0x8]
    1149                            .dwattr $C$DW$43, DW_AT_accessibility(DW_ACCESS_public)
    1150                            .dwattr $C$DW$43, DW_AT_decl_file("H:/EECS_690/TI_ARM_Tiva_Projects_EECS_690_Sp16/Source/inclu
    1151                            .dwattr $C$DW$43, DW_AT_decl_line(0xd2)
    1152                            .dwattr $C$DW$43, DW_AT_decl_column(0x11)
    1153                            .dwendtag $C$DW$T$32
    1154                    
    1155                            .dwattr $C$DW$T$32, DW_AT_decl_file("H:/EECS_690/TI_ARM_Tiva_Projects_EECS_690_Sp16/Source/inc
TI ARM Assembler PC v5.2.2 Thu Mar 10 16:27:00 2016

Tools Copyright (c) 1996-2015 Texas Instruments Incorporated
list.asm                                                             PAGE   22

    1156                            .dwattr $C$DW$T$32, DW_AT_decl_line(0xcd)
    1157                            .dwattr $C$DW$T$32, DW_AT_decl_column(0x10)
    1158                    $C$DW$T$41      .dwtag  DW_TAG_typedef, DW_AT_name("List_t")
    1159                            .dwattr $C$DW$T$41, DW_AT_type(*$C$DW$T$32)
    1160                            .dwattr $C$DW$T$41, DW_AT_language(DW_LANG_C)
    1161                            .dwattr $C$DW$T$41, DW_AT_decl_file("H:/EECS_690/TI_ARM_Tiva_Projects_EECS_690_Sp16/Source/inc
    1162                            .dwattr $C$DW$T$41, DW_AT_decl_line(0xd4)
    1163                            .dwattr $C$DW$T$41, DW_AT_decl_column(0x03)
    1164                    $C$DW$T$42      .dwtag  DW_TAG_pointer_type
    1165                            .dwattr $C$DW$T$42, DW_AT_type(*$C$DW$T$41)
    1166                            .dwattr $C$DW$T$42, DW_AT_address_class(0x20)
    1167                    $C$DW$T$43      .dwtag  DW_TAG_const_type
    1168                            .dwattr $C$DW$T$43, DW_AT_type(*$C$DW$T$42)
    1169                    
    1170                    $C$DW$T$35      .dwtag  DW_TAG_structure_type
    1171                            .dwattr $C$DW$T$35, DW_AT_name("xLIST_ITEM")
    1172                            .dwattr $C$DW$T$35, DW_AT_byte_size(0x14)
    1173                    $C$DW$44        .dwtag  DW_TAG_member
    1174                            .dwattr $C$DW$44, DW_AT_type(*$C$DW$T$33)
    1175                            .dwattr $C$DW$44, DW_AT_name("xItemValue")
    1176                            .dwattr $C$DW$44, DW_AT_TI_symbol_name("xItemValue")
    1177                            .dwattr $C$DW$44, DW_AT_data_member_location[DW_OP_plus_uconst 0x0]
    1178                            .dwattr $C$DW$44, DW_AT_accessibility(DW_ACCESS_public)
    1179                            .dwattr $C$DW$44, DW_AT_decl_file("H:/EECS_690/TI_ARM_Tiva_Projects_EECS_690_Sp16/Source/inclu
    1180                            .dwattr $C$DW$44, DW_AT_decl_line(0xb8)
    1181                            .dwattr $C$DW$44, DW_AT_decl_column(0x21)
    1182                    $C$DW$45        .dwtag  DW_TAG_member
    1183                            .dwattr $C$DW$45, DW_AT_type(*$C$DW$T$34)
    1184                            .dwattr $C$DW$45, DW_AT_name("pxNext")
    1185                            .dwattr $C$DW$45, DW_AT_TI_symbol_name("pxNext")
    1186                            .dwattr $C$DW$45, DW_AT_data_member_location[DW_OP_plus_uconst 0x4]
    1187                            .dwattr $C$DW$45, DW_AT_accessibility(DW_ACCESS_public)
    1188                            .dwattr $C$DW$45, DW_AT_decl_file("H:/EECS_690/TI_ARM_Tiva_Projects_EECS_690_Sp16/Source/inclu
    1189                            .dwattr $C$DW$45, DW_AT_decl_line(0xb9)
    1190                            .dwattr $C$DW$45, DW_AT_decl_column(0x2a)
    1191                    $C$DW$46        .dwtag  DW_TAG_member
    1192                            .dwattr $C$DW$46, DW_AT_type(*$C$DW$T$34)
    1193                            .dwattr $C$DW$46, DW_AT_name("pxPrevious")
    1194                            .dwattr $C$DW$46, DW_AT_TI_symbol_name("pxPrevious")
    1195                            .dwattr $C$DW$46, DW_AT_data_member_location[DW_OP_plus_uconst 0x8]
    1196                            .dwattr $C$DW$46, DW_AT_accessibility(DW_ACCESS_public)
    1197                            .dwattr $C$DW$46, DW_AT_decl_file("H:/EECS_690/TI_ARM_Tiva_Projects_EECS_690_Sp16/Source/inclu
    1198                            .dwattr $C$DW$46, DW_AT_decl_line(0xba)
    1199                            .dwattr $C$DW$46, DW_AT_decl_column(0x2a)
    1200                    $C$DW$47        .dwtag  DW_TAG_member
    1201                            .dwattr $C$DW$47, DW_AT_type(*$C$DW$T$3)
    1202                            .dwattr $C$DW$47, DW_AT_name("pvOwner")
    1203                            .dwattr $C$DW$47, DW_AT_TI_symbol_name("pvOwner")
    1204                            .dwattr $C$DW$47, DW_AT_data_member_location[DW_OP_plus_uconst 0xc]
    1205                            .dwattr $C$DW$47, DW_AT_accessibility(DW_ACCESS_public)
    1206                            .dwattr $C$DW$47, DW_AT_decl_file("H:/EECS_690/TI_ARM_Tiva_Projects_EECS_690_Sp16/Source/inclu
    1207                            .dwattr $C$DW$47, DW_AT_decl_line(0xbb)
    1208                            .dwattr $C$DW$47, DW_AT_decl_column(0x09)
    1209                    $C$DW$48        .dwtag  DW_TAG_member
    1210                            .dwattr $C$DW$48, DW_AT_type(*$C$DW$T$3)
TI ARM Assembler PC v5.2.2 Thu Mar 10 16:27:00 2016

Tools Copyright (c) 1996-2015 Texas Instruments Incorporated
list.asm                                                             PAGE   23

    1211                            .dwattr $C$DW$48, DW_AT_name("pvContainer")
    1212                            .dwattr $C$DW$48, DW_AT_TI_symbol_name("pvContainer")
    1213                            .dwattr $C$DW$48, DW_AT_data_member_location[DW_OP_plus_uconst 0x10]
    1214                            .dwattr $C$DW$48, DW_AT_accessibility(DW_ACCESS_public)
    1215                            .dwattr $C$DW$48, DW_AT_decl_file("H:/EECS_690/TI_ARM_Tiva_Projects_EECS_690_Sp16/Source/inclu
    1216                            .dwattr $C$DW$48, DW_AT_decl_line(0xbc)
    1217                            .dwattr $C$DW$48, DW_AT_decl_column(0x1d)
    1218                            .dwendtag $C$DW$T$35
    1219                    
    1220                            .dwattr $C$DW$T$35, DW_AT_decl_file("H:/EECS_690/TI_ARM_Tiva_Projects_EECS_690_Sp16/Source/inc
    1221                            .dwattr $C$DW$T$35, DW_AT_decl_line(0xb5)
    1222                            .dwattr $C$DW$T$35, DW_AT_decl_column(0x08)
    1223                    $C$DW$T$29      .dwtag  DW_TAG_typedef, DW_AT_name("ListItem_t")
    1224                            .dwattr $C$DW$T$29, DW_AT_type(*$C$DW$T$35)
    1225                            .dwattr $C$DW$T$29, DW_AT_language(DW_LANG_C)
    1226                            .dwattr $C$DW$T$29, DW_AT_decl_file("H:/EECS_690/TI_ARM_Tiva_Projects_EECS_690_Sp16/Source/inc
    1227                            .dwattr $C$DW$T$29, DW_AT_decl_line(0xbf)
    1228                            .dwattr $C$DW$T$29, DW_AT_decl_column(0x1b)
    1229                    $C$DW$T$30      .dwtag  DW_TAG_pointer_type
    1230                            .dwattr $C$DW$T$30, DW_AT_type(*$C$DW$T$29)
    1231                            .dwattr $C$DW$T$30, DW_AT_address_class(0x20)
    1232                    $C$DW$T$45      .dwtag  DW_TAG_const_type
    1233                            .dwattr $C$DW$T$45, DW_AT_type(*$C$DW$T$30)
    1234                    $C$DW$T$34      .dwtag  DW_TAG_pointer_type
    1235                            .dwattr $C$DW$T$34, DW_AT_type(*$C$DW$T$35)
    1236                            .dwattr $C$DW$T$34, DW_AT_address_class(0x20)
    1237                    
    1238                    $C$DW$T$36      .dwtag  DW_TAG_structure_type
    1239                            .dwattr $C$DW$T$36, DW_AT_name("xMINI_LIST_ITEM")
    1240                            .dwattr $C$DW$T$36, DW_AT_byte_size(0x0c)
    1241                    $C$DW$49        .dwtag  DW_TAG_member
    1242                            .dwattr $C$DW$49, DW_AT_type(*$C$DW$T$33)
    1243                            .dwattr $C$DW$49, DW_AT_name("xItemValue")
    1244                            .dwattr $C$DW$49, DW_AT_TI_symbol_name("xItemValue")
    1245                            .dwattr $C$DW$49, DW_AT_data_member_location[DW_OP_plus_uconst 0x0]
    1246                            .dwattr $C$DW$49, DW_AT_accessibility(DW_ACCESS_public)
    1247                            .dwattr $C$DW$49, DW_AT_decl_file("H:/EECS_690/TI_ARM_Tiva_Projects_EECS_690_Sp16/Source/inclu
    1248                            .dwattr $C$DW$49, DW_AT_decl_line(0xc4)
    1249                            .dwattr $C$DW$49, DW_AT_decl_column(0x21)
    1250                    $C$DW$50        .dwtag  DW_TAG_member
    1251                            .dwattr $C$DW$50, DW_AT_type(*$C$DW$T$34)
    1252                            .dwattr $C$DW$50, DW_AT_name("pxNext")
    1253                            .dwattr $C$DW$50, DW_AT_TI_symbol_name("pxNext")
    1254                            .dwattr $C$DW$50, DW_AT_data_member_location[DW_OP_plus_uconst 0x4]
    1255                            .dwattr $C$DW$50, DW_AT_accessibility(DW_ACCESS_public)
    1256                            .dwattr $C$DW$50, DW_AT_decl_file("H:/EECS_690/TI_ARM_Tiva_Projects_EECS_690_Sp16/Source/inclu
    1257                            .dwattr $C$DW$50, DW_AT_decl_line(0xc5)
    1258                            .dwattr $C$DW$50, DW_AT_decl_column(0x2a)
    1259                    $C$DW$51        .dwtag  DW_TAG_member
    1260                            .dwattr $C$DW$51, DW_AT_type(*$C$DW$T$34)
    1261                            .dwattr $C$DW$51, DW_AT_name("pxPrevious")
    1262                            .dwattr $C$DW$51, DW_AT_TI_symbol_name("pxPrevious")
    1263                            .dwattr $C$DW$51, DW_AT_data_member_location[DW_OP_plus_uconst 0x8]
    1264                            .dwattr $C$DW$51, DW_AT_accessibility(DW_ACCESS_public)
    1265                            .dwattr $C$DW$51, DW_AT_decl_file("H:/EECS_690/TI_ARM_Tiva_Projects_EECS_690_Sp16/Source/inclu
TI ARM Assembler PC v5.2.2 Thu Mar 10 16:27:00 2016

Tools Copyright (c) 1996-2015 Texas Instruments Incorporated
list.asm                                                             PAGE   24

    1266                            .dwattr $C$DW$51, DW_AT_decl_line(0xc6)
    1267                            .dwattr $C$DW$51, DW_AT_decl_column(0x2a)
    1268                            .dwendtag $C$DW$T$36
    1269                    
    1270                            .dwattr $C$DW$T$36, DW_AT_decl_file("H:/EECS_690/TI_ARM_Tiva_Projects_EECS_690_Sp16/Source/inc
    1271                            .dwattr $C$DW$T$36, DW_AT_decl_line(0xc1)
    1272                            .dwattr $C$DW$T$36, DW_AT_decl_column(0x08)
    1273                    $C$DW$T$31      .dwtag  DW_TAG_typedef, DW_AT_name("MiniListItem_t")
    1274                            .dwattr $C$DW$T$31, DW_AT_type(*$C$DW$T$36)
    1275                            .dwattr $C$DW$T$31, DW_AT_language(DW_LANG_C)
    1276                            .dwattr $C$DW$T$31, DW_AT_decl_file("H:/EECS_690/TI_ARM_Tiva_Projects_EECS_690_Sp16/Source/inc
    1277                            .dwattr $C$DW$T$31, DW_AT_decl_line(0xc8)
    1278                            .dwattr $C$DW$T$31, DW_AT_decl_column(0x20)
    1279                            .dwattr $C$DW$CU, DW_AT_language(DW_LANG_C)
    1280                    
    1281                    ;***************************************************************
    1282                    ;* DWARF CIE ENTRIES                                           *
    1283                    ;***************************************************************
    1284                    
    1285                    $C$DW$CIE       .dwcie 14
    1286                            .dwcfi  cfa_register, 13
    1287                            .dwcfi  cfa_offset, 0
    1288                            .dwcfi  undefined, 0
    1289                            .dwcfi  undefined, 1
    1290                            .dwcfi  undefined, 2
    1291                            .dwcfi  undefined, 3
    1292                            .dwcfi  same_value, 4
    1293                            .dwcfi  same_value, 5
    1294                            .dwcfi  same_value, 6
    1295                            .dwcfi  same_value, 7
    1296                            .dwcfi  same_value, 8
    1297                            .dwcfi  same_value, 9
    1298                            .dwcfi  same_value, 10
    1299                            .dwcfi  same_value, 11
    1300                            .dwcfi  undefined, 12
    1301                            .dwcfi  undefined, 13
    1302                            .dwcfi  undefined, 14
    1303                            .dwcfi  undefined, 14
    1304                            .dwcfi  undefined, 7
    1305                            .dwcfi  undefined, 64
    1306                            .dwcfi  undefined, 65
    1307                            .dwcfi  undefined, 66
    1308                            .dwcfi  undefined, 67
    1309                            .dwcfi  undefined, 68
    1310                            .dwcfi  undefined, 69
    1311                            .dwcfi  undefined, 70
    1312                            .dwcfi  undefined, 71
    1313                            .dwcfi  undefined, 72
    1314                            .dwcfi  undefined, 73
    1315                            .dwcfi  undefined, 74
    1316                            .dwcfi  undefined, 75
    1317                            .dwcfi  undefined, 76
    1318                            .dwcfi  undefined, 77
    1319                            .dwcfi  undefined, 78
    1320                            .dwcfi  undefined, 79
TI ARM Assembler PC v5.2.2 Thu Mar 10 16:27:00 2016

Tools Copyright (c) 1996-2015 Texas Instruments Incorporated
list.asm                                                             PAGE   25

    1321                            .dwcfi  same_value, 80
    1322                            .dwcfi  same_value, 81
    1323                            .dwcfi  same_value, 82
    1324                            .dwcfi  same_value, 83
    1325                            .dwcfi  same_value, 84
    1326                            .dwcfi  same_value, 85
    1327                            .dwcfi  same_value, 86
    1328                            .dwcfi  same_value, 87
    1329                            .dwcfi  same_value, 88
    1330                            .dwcfi  same_value, 89
    1331                            .dwcfi  same_value, 90
    1332                            .dwcfi  same_value, 91
    1333                            .dwcfi  same_value, 92
    1334                            .dwcfi  same_value, 93
    1335                            .dwcfi  same_value, 94
    1336                            .dwcfi  same_value, 95
    1337                            .dwendentry
    1338                            .dwendtag $C$DW$CU
    1339                    

--------------------------
Thumb2 Statistics
--------------------------
Number of Thumb2 ins converted to Thumb = 0 (0%)
Number of Thumb ins in input = 155 (95%)
Number of Thumb2 ins encoded as Thumb2 = 7 (100%)
Number of Thumb2 ins converted to 2 OPND Thumb = 11


No Assembly Errors, No Assembly Warnings
