TI ARM Assembler PC v5.2.2 Thu Mar 10 16:27:04 2016

Tools Copyright (c) 1996-2015 Texas Instruments Incorporated
tasks.asm                                                            PAGE    1

       1                    ;******************************************************************************
       2                    ;* TI ARM C/C++ Codegen                                             PC v5.2.2 *
       3                    ;* Date/Time created: Thu Mar 10 16:27:03 2016                                *
       4                    ;******************************************************************************
       5                            .compiler_opts --abi=eabi --arm_vmrs_si_workaround=off --code_state=16 --diag_wrap=off --disab
       6 00000000                   .thumb
       7                    
       8                    $C$DW$CU        .dwtag  DW_TAG_compile_unit
       9                            .dwattr $C$DW$CU, DW_AT_name("H:/EECS_690/TI_ARM_Tiva_Projects_EECS_690_Sp16/Source/tasks.c")
      10                            .dwattr $C$DW$CU, DW_AT_producer("TI TI ARM C/C++ Codegen PC v5.2.2 Copyright (c) 1996-2015 Te
      11                            .dwattr $C$DW$CU, DW_AT_TI_version(0x01)
      12                            .dwattr $C$DW$CU, DW_AT_comp_dir("H:\EECS_690\TI_ARM_Tiva_Projects_EECS_690_Sp16\FreeRTOS823_3
      13                    
      14                    $C$DW$1 .dwtag  DW_TAG_subprogram, DW_AT_name("__clz")
      15                            .dwattr $C$DW$1, DW_AT_TI_symbol_name("__clz")
      16                            .dwattr $C$DW$1, DW_AT_type(*$C$DW$T$10)
      17                            .dwattr $C$DW$1, DW_AT_declaration
      18                            .dwattr $C$DW$1, DW_AT_external
      19                    $C$DW$2 .dwtag  DW_TAG_formal_parameter
      20                            .dwattr $C$DW$2, DW_AT_type(*$C$DW$T$10)
      21                            .dwendtag $C$DW$1
      22                    
      23                    
      24                    $C$DW$3 .dwtag  DW_TAG_subprogram, DW_AT_name("_set_interrupt_priority")
      25                            .dwattr $C$DW$3, DW_AT_TI_symbol_name("_set_interrupt_priority")
      26                            .dwattr $C$DW$3, DW_AT_type(*$C$DW$T$11)
      27                            .dwattr $C$DW$3, DW_AT_declaration
      28                            .dwattr $C$DW$3, DW_AT_external
      29                    $C$DW$4 .dwtag  DW_TAG_formal_parameter
      30                            .dwattr $C$DW$4, DW_AT_type(*$C$DW$T$11)
      31                            .dwendtag $C$DW$3
      32                    
      33                    
      34                    $C$DW$5 .dwtag  DW_TAG_subprogram, DW_AT_name("memset")
      35                            .dwattr $C$DW$5, DW_AT_TI_symbol_name("memset")
      36                            .dwattr $C$DW$5, DW_AT_type(*$C$DW$T$3)
      37                            .dwattr $C$DW$5, DW_AT_declaration
      38                            .dwattr $C$DW$5, DW_AT_external
      39                            .dwattr $C$DW$5, DW_AT_decl_file("C:/TI_CodeComposer/ccsv6/tools/compiler/ti-cgt-arm_5.2.2/inc
      40                            .dwattr $C$DW$5, DW_AT_decl_line(0x6f)
      41                            .dwattr $C$DW$5, DW_AT_decl_column(0x16)
      42                    $C$DW$6 .dwtag  DW_TAG_formal_parameter
      43                            .dwattr $C$DW$6, DW_AT_type(*$C$DW$T$3)
      44                    $C$DW$7 .dwtag  DW_TAG_formal_parameter
      45                            .dwattr $C$DW$7, DW_AT_type(*$C$DW$T$10)
      46                    $C$DW$8 .dwtag  DW_TAG_formal_parameter
      47                            .dwattr $C$DW$8, DW_AT_type(*$C$DW$T$24)
      48                            .dwendtag $C$DW$5
      49                    
      50                    
      51                    $C$DW$9 .dwtag  DW_TAG_subprogram, DW_AT_name("vPortEnterCritical")
      52                            .dwattr $C$DW$9, DW_AT_TI_symbol_name("vPortEnterCritical")
      53                            .dwattr $C$DW$9, DW_AT_declaration
      54                            .dwattr $C$DW$9, DW_AT_external
      55                            .dwattr $C$DW$9, DW_AT_decl_file("H:/EECS_690/TI_ARM_Tiva_Projects_EECS_690_Sp16/Source/portab
TI ARM Assembler PC v5.2.2 Thu Mar 10 16:27:04 2016

Tools Copyright (c) 1996-2015 Texas Instruments Incorporated
tasks.asm                                                            PAGE    2

      56                            .dwattr $C$DW$9, DW_AT_decl_line(0xa7)
      57                            .dwattr $C$DW$9, DW_AT_decl_column(0x0d)
      58                    
      59                    $C$DW$10        .dwtag  DW_TAG_subprogram, DW_AT_name("vPortExitCritical")
      60                            .dwattr $C$DW$10, DW_AT_TI_symbol_name("vPortExitCritical")
      61                            .dwattr $C$DW$10, DW_AT_declaration
      62                            .dwattr $C$DW$10, DW_AT_external
      63                            .dwattr $C$DW$10, DW_AT_decl_file("H:/EECS_690/TI_ARM_Tiva_Projects_EECS_690_Sp16/Source/porta
      64                            .dwattr $C$DW$10, DW_AT_decl_line(0xa8)
      65                            .dwattr $C$DW$10, DW_AT_decl_column(0x0d)
      66                    
      67                    $C$DW$11        .dwtag  DW_TAG_subprogram, DW_AT_name("pxPortInitialiseStack")
      68                            .dwattr $C$DW$11, DW_AT_TI_symbol_name("pxPortInitialiseStack")
      69                            .dwattr $C$DW$11, DW_AT_type(*$C$DW$T$33)
      70                            .dwattr $C$DW$11, DW_AT_declaration
      71                            .dwattr $C$DW$11, DW_AT_external
      72                            .dwattr $C$DW$11, DW_AT_decl_file("H:\EECS_690\TI_ARM_Tiva_Projects_EECS_690_Sp16\Source\inclu
      73                            .dwattr $C$DW$11, DW_AT_decl_line(0x90)
      74                            .dwattr $C$DW$11, DW_AT_decl_column(0x0f)
      75                    $C$DW$12        .dwtag  DW_TAG_formal_parameter
      76                            .dwattr $C$DW$12, DW_AT_type(*$C$DW$T$33)
      77                    $C$DW$13        .dwtag  DW_TAG_formal_parameter
      78                            .dwattr $C$DW$13, DW_AT_type(*$C$DW$T$51)
      79                    $C$DW$14        .dwtag  DW_TAG_formal_parameter
      80                            .dwattr $C$DW$14, DW_AT_type(*$C$DW$T$3)
      81                            .dwendtag $C$DW$11
      82                    
      83                    
      84                    $C$DW$15        .dwtag  DW_TAG_subprogram, DW_AT_name("pvPortMalloc")
      85                            .dwattr $C$DW$15, DW_AT_TI_symbol_name("pvPortMalloc")
      86                            .dwattr $C$DW$15, DW_AT_type(*$C$DW$T$3)
      87                            .dwattr $C$DW$15, DW_AT_declaration
      88                            .dwattr $C$DW$15, DW_AT_external
      89                            .dwattr $C$DW$15, DW_AT_decl_file("H:\EECS_690\TI_ARM_Tiva_Projects_EECS_690_Sp16\Source\inclu
      90                            .dwattr $C$DW$15, DW_AT_decl_line(0xab)
      91                            .dwattr $C$DW$15, DW_AT_decl_column(0x07)
      92                    $C$DW$16        .dwtag  DW_TAG_formal_parameter
      93                            .dwattr $C$DW$16, DW_AT_type(*$C$DW$T$24)
      94                            .dwendtag $C$DW$15
      95                    
      96                    
      97                    $C$DW$17        .dwtag  DW_TAG_subprogram, DW_AT_name("vPortFree")
      98                            .dwattr $C$DW$17, DW_AT_TI_symbol_name("vPortFree")
      99                            .dwattr $C$DW$17, DW_AT_declaration
     100                            .dwattr $C$DW$17, DW_AT_external
     101                            .dwattr $C$DW$17, DW_AT_decl_file("H:\EECS_690\TI_ARM_Tiva_Projects_EECS_690_Sp16\Source\inclu
     102                            .dwattr $C$DW$17, DW_AT_decl_line(0xac)
     103                            .dwattr $C$DW$17, DW_AT_decl_column(0x06)
     104                    $C$DW$18        .dwtag  DW_TAG_formal_parameter
     105                            .dwattr $C$DW$18, DW_AT_type(*$C$DW$T$3)
     106                            .dwendtag $C$DW$17
     107                    
     108                    
     109                    $C$DW$19        .dwtag  DW_TAG_subprogram, DW_AT_name("xPortStartScheduler")
     110                            .dwattr $C$DW$19, DW_AT_TI_symbol_name("xPortStartScheduler")
TI ARM Assembler PC v5.2.2 Thu Mar 10 16:27:04 2016

Tools Copyright (c) 1996-2015 Texas Instruments Incorporated
tasks.asm                                                            PAGE    3

     111                            .dwattr $C$DW$19, DW_AT_type(*$C$DW$T$64)
     112                            .dwattr $C$DW$19, DW_AT_declaration
     113                            .dwattr $C$DW$19, DW_AT_external
     114                            .dwattr $C$DW$19, DW_AT_decl_file("H:\EECS_690\TI_ARM_Tiva_Projects_EECS_690_Sp16\Source\inclu
     115                            .dwattr $C$DW$19, DW_AT_decl_line(0xb5)
     116                            .dwattr $C$DW$19, DW_AT_decl_column(0x0c)
     117                    
     118                    $C$DW$20        .dwtag  DW_TAG_subprogram, DW_AT_name("vPortEndScheduler")
     119                            .dwattr $C$DW$20, DW_AT_TI_symbol_name("vPortEndScheduler")
     120                            .dwattr $C$DW$20, DW_AT_declaration
     121                            .dwattr $C$DW$20, DW_AT_external
     122                            .dwattr $C$DW$20, DW_AT_decl_file("H:\EECS_690\TI_ARM_Tiva_Projects_EECS_690_Sp16\Source\inclu
     123                            .dwattr $C$DW$20, DW_AT_decl_line(0xbc)
     124                            .dwattr $C$DW$20, DW_AT_decl_column(0x06)
     125                    
     126                    $C$DW$21        .dwtag  DW_TAG_subprogram, DW_AT_name("vListInitialise")
     127                            .dwattr $C$DW$21, DW_AT_TI_symbol_name("vListInitialise")
     128                            .dwattr $C$DW$21, DW_AT_declaration
     129                            .dwattr $C$DW$21, DW_AT_external
     130                            .dwattr $C$DW$21, DW_AT_decl_file("H:\EECS_690\TI_ARM_Tiva_Projects_EECS_690_Sp16\Source\inclu
     131                            .dwattr $C$DW$21, DW_AT_decl_line(0x182)
     132                            .dwattr $C$DW$21, DW_AT_decl_column(0x06)
     133                    $C$DW$22        .dwtag  DW_TAG_formal_parameter
     134                            .dwattr $C$DW$22, DW_AT_type(*$C$DW$T$91)
     135                            .dwendtag $C$DW$21
     136                    
     137                    
     138                    $C$DW$23        .dwtag  DW_TAG_subprogram, DW_AT_name("vListInitialiseItem")
     139                            .dwattr $C$DW$23, DW_AT_TI_symbol_name("vListInitialiseItem")
     140                            .dwattr $C$DW$23, DW_AT_declaration
     141                            .dwattr $C$DW$23, DW_AT_external
     142                            .dwattr $C$DW$23, DW_AT_decl_file("H:\EECS_690\TI_ARM_Tiva_Projects_EECS_690_Sp16\Source\inclu
     143                            .dwattr $C$DW$23, DW_AT_decl_line(0x18d)
     144                            .dwattr $C$DW$23, DW_AT_decl_column(0x06)
     145                    $C$DW$24        .dwtag  DW_TAG_formal_parameter
     146                            .dwattr $C$DW$24, DW_AT_type(*$C$DW$T$94)
     147                            .dwendtag $C$DW$23
     148                    
     149                    
     150                    $C$DW$25        .dwtag  DW_TAG_subprogram, DW_AT_name("vListInsert")
     151                            .dwattr $C$DW$25, DW_AT_TI_symbol_name("vListInsert")
     152                            .dwattr $C$DW$25, DW_AT_declaration
     153                            .dwattr $C$DW$25, DW_AT_external
     154                            .dwattr $C$DW$25, DW_AT_decl_file("H:\EECS_690\TI_ARM_Tiva_Projects_EECS_690_Sp16\Source\inclu
     155                            .dwattr $C$DW$25, DW_AT_decl_line(0x19a)
     156                            .dwattr $C$DW$25, DW_AT_decl_column(0x06)
     157                    $C$DW$26        .dwtag  DW_TAG_formal_parameter
     158                            .dwattr $C$DW$26, DW_AT_type(*$C$DW$T$91)
     159                    $C$DW$27        .dwtag  DW_TAG_formal_parameter
     160                            .dwattr $C$DW$27, DW_AT_type(*$C$DW$T$94)
     161                            .dwendtag $C$DW$25
     162                    
     163                    
     164                    $C$DW$28        .dwtag  DW_TAG_subprogram, DW_AT_name("vListInsertEnd")
     165                            .dwattr $C$DW$28, DW_AT_TI_symbol_name("vListInsertEnd")
TI ARM Assembler PC v5.2.2 Thu Mar 10 16:27:04 2016

Tools Copyright (c) 1996-2015 Texas Instruments Incorporated
tasks.asm                                                            PAGE    4

     166                            .dwattr $C$DW$28, DW_AT_declaration
     167                            .dwattr $C$DW$28, DW_AT_external
     168                            .dwattr $C$DW$28, DW_AT_decl_file("H:\EECS_690\TI_ARM_Tiva_Projects_EECS_690_Sp16\Source\inclu
     169                            .dwattr $C$DW$28, DW_AT_decl_line(0x1af)
     170                            .dwattr $C$DW$28, DW_AT_decl_column(0x06)
     171                    $C$DW$29        .dwtag  DW_TAG_formal_parameter
     172                            .dwattr $C$DW$29, DW_AT_type(*$C$DW$T$91)
     173                    $C$DW$30        .dwtag  DW_TAG_formal_parameter
     174                            .dwattr $C$DW$30, DW_AT_type(*$C$DW$T$94)
     175                            .dwendtag $C$DW$28
     176                    
     177                    
     178                    $C$DW$31        .dwtag  DW_TAG_subprogram, DW_AT_name("uxListRemove")
     179                            .dwattr $C$DW$31, DW_AT_TI_symbol_name("uxListRemove")
     180                            .dwattr $C$DW$31, DW_AT_type(*$C$DW$T$32)
     181                            .dwattr $C$DW$31, DW_AT_declaration
     182                            .dwattr $C$DW$31, DW_AT_external
     183                            .dwattr $C$DW$31, DW_AT_decl_file("H:\EECS_690\TI_ARM_Tiva_Projects_EECS_690_Sp16\Source\inclu
     184                            .dwattr $C$DW$31, DW_AT_decl_line(0x1be)
     185                            .dwattr $C$DW$31, DW_AT_decl_column(0x0d)
     186                    $C$DW$32        .dwtag  DW_TAG_formal_parameter
     187                            .dwattr $C$DW$32, DW_AT_type(*$C$DW$T$94)
     188                            .dwendtag $C$DW$31
     189                    
     190                    
     191                    $C$DW$33        .dwtag  DW_TAG_subprogram, DW_AT_name("xTimerCreateTimerTask")
     192                            .dwattr $C$DW$33, DW_AT_TI_symbol_name("xTimerCreateTimerTask")
     193                            .dwattr $C$DW$33, DW_AT_type(*$C$DW$T$64)
     194                            .dwattr $C$DW$33, DW_AT_declaration
     195                            .dwattr $C$DW$33, DW_AT_external
     196                            .dwattr $C$DW$33, DW_AT_decl_file("H:/EECS_690/TI_ARM_Tiva_Projects_EECS_690_Sp16/Source/inclu
     197                            .dwattr $C$DW$33, DW_AT_decl_line(0x471)
     198                            .dwattr $C$DW$33, DW_AT_decl_column(0x0c)
     199                            .global pxCurrentTCB
     200 00000000                   .data
     201                            .align  4
     202                            .elfsym pxCurrentTCB,SYM_SIZE(4)
     203 00000000           pxCurrentTCB:
     204 00000000 00000000          .bits   0,32                    ; pxCurrentTCB @ 0
     205                    
     206                    $C$DW$34        .dwtag  DW_TAG_variable, DW_AT_name("pxCurrentTCB")
     207                            .dwattr $C$DW$34, DW_AT_TI_symbol_name("pxCurrentTCB")
     208                            .dwattr $C$DW$34, DW_AT_location[DW_OP_addr pxCurrentTCB]
     209                            .dwattr $C$DW$34, DW_AT_type(*$C$DW$T$248)
     210                            .dwattr $C$DW$34, DW_AT_external
     211                            .dwattr $C$DW$34, DW_AT_decl_file("H:/EECS_690/TI_ARM_Tiva_Projects_EECS_690_Sp16/Source/tasks
     212                            .dwattr $C$DW$34, DW_AT_decl_line(0xd4)
     213                            .dwattr $C$DW$34, DW_AT_decl_column(0x22)
     214 00000000           pxReadyTasksLists:      .usect  ".bss:pxReadyTasksLists",100,4
     215                    $C$DW$35        .dwtag  DW_TAG_variable, DW_AT_name("pxReadyTasksLists")
     216                            .dwattr $C$DW$35, DW_AT_TI_symbol_name("pxReadyTasksLists")
     217                            .dwattr $C$DW$35, DW_AT_type(*$C$DW$T$250)
     218                            .dwattr $C$DW$35, DW_AT_location[DW_OP_addr pxReadyTasksLists]
     219                            .dwattr $C$DW$35, DW_AT_decl_file("H:/EECS_690/TI_ARM_Tiva_Projects_EECS_690_Sp16/Source/tasks
     220                            .dwattr $C$DW$35, DW_AT_decl_line(0xd7)
TI ARM Assembler PC v5.2.2 Thu Mar 10 16:27:04 2016

Tools Copyright (c) 1996-2015 Texas Instruments Incorporated
tasks.asm                                                            PAGE    5

     221                            .dwattr $C$DW$35, DW_AT_decl_column(0x1f)
     222                            .common xDelayedTaskList1,20,4
     223                    $C$DW$36        .dwtag  DW_TAG_variable, DW_AT_name("xDelayedTaskList1")
     224                            .dwattr $C$DW$36, DW_AT_TI_symbol_name("xDelayedTaskList1")
     225                            .dwattr $C$DW$36, DW_AT_type(*$C$DW$T$89)
     226                            .dwattr $C$DW$36, DW_AT_location[DW_OP_addr xDelayedTaskList1]
     227                            .dwattr $C$DW$36, DW_AT_decl_file("H:/EECS_690/TI_ARM_Tiva_Projects_EECS_690_Sp16/Source/tasks
     228                            .dwattr $C$DW$36, DW_AT_decl_line(0xd8)
     229                            .dwattr $C$DW$36, DW_AT_decl_column(0x1f)
     230                            .common xDelayedTaskList2,20,4
     231                    $C$DW$37        .dwtag  DW_TAG_variable, DW_AT_name("xDelayedTaskList2")
     232                            .dwattr $C$DW$37, DW_AT_TI_symbol_name("xDelayedTaskList2")
     233                            .dwattr $C$DW$37, DW_AT_type(*$C$DW$T$89)
     234                            .dwattr $C$DW$37, DW_AT_location[DW_OP_addr xDelayedTaskList2]
     235                            .dwattr $C$DW$37, DW_AT_decl_file("H:/EECS_690/TI_ARM_Tiva_Projects_EECS_690_Sp16/Source/tasks
     236                            .dwattr $C$DW$37, DW_AT_decl_line(0xd9)
     237                            .dwattr $C$DW$37, DW_AT_decl_column(0x1f)
     238                            .common pxDelayedTaskList,4,4
     239                    $C$DW$38        .dwtag  DW_TAG_variable, DW_AT_name("pxDelayedTaskList")
     240                            .dwattr $C$DW$38, DW_AT_TI_symbol_name("pxDelayedTaskList")
     241                            .dwattr $C$DW$38, DW_AT_type(*$C$DW$T$249)
     242                            .dwattr $C$DW$38, DW_AT_location[DW_OP_addr pxDelayedTaskList]
     243                            .dwattr $C$DW$38, DW_AT_decl_file("H:/EECS_690/TI_ARM_Tiva_Projects_EECS_690_Sp16/Source/tasks
     244                            .dwattr $C$DW$38, DW_AT_decl_line(0xda)
     245                            .dwattr $C$DW$38, DW_AT_decl_column(0x2a)
     246                            .common pxOverflowDelayedTaskList,4,4
     247                    $C$DW$39        .dwtag  DW_TAG_variable, DW_AT_name("pxOverflowDelayedTaskList")
     248                            .dwattr $C$DW$39, DW_AT_TI_symbol_name("pxOverflowDelayedTaskList")
     249                            .dwattr $C$DW$39, DW_AT_type(*$C$DW$T$249)
     250                            .dwattr $C$DW$39, DW_AT_location[DW_OP_addr pxOverflowDelayedTaskList]
     251                            .dwattr $C$DW$39, DW_AT_decl_file("H:/EECS_690/TI_ARM_Tiva_Projects_EECS_690_Sp16/Source/tasks
     252                            .dwattr $C$DW$39, DW_AT_decl_line(0xdb)
     253                            .dwattr $C$DW$39, DW_AT_decl_column(0x2a)
     254                            .common xPendingReadyList,20,4
     255                    $C$DW$40        .dwtag  DW_TAG_variable, DW_AT_name("xPendingReadyList")
     256                            .dwattr $C$DW$40, DW_AT_TI_symbol_name("xPendingReadyList")
     257                            .dwattr $C$DW$40, DW_AT_type(*$C$DW$T$89)
     258                            .dwattr $C$DW$40, DW_AT_location[DW_OP_addr xPendingReadyList]
     259                            .dwattr $C$DW$40, DW_AT_decl_file("H:/EECS_690/TI_ARM_Tiva_Projects_EECS_690_Sp16/Source/tasks
     260                            .dwattr $C$DW$40, DW_AT_decl_line(0xdc)
     261                            .dwattr $C$DW$40, DW_AT_decl_column(0x1f)
     262                            .common xTasksWaitingTermination,20,4
     263                    $C$DW$41        .dwtag  DW_TAG_variable, DW_AT_name("xTasksWaitingTermination")
     264                            .dwattr $C$DW$41, DW_AT_TI_symbol_name("xTasksWaitingTermination")
     265                            .dwattr $C$DW$41, DW_AT_type(*$C$DW$T$89)
     266                            .dwattr $C$DW$41, DW_AT_location[DW_OP_addr xTasksWaitingTermination]
     267                            .dwattr $C$DW$41, DW_AT_decl_file("H:/EECS_690/TI_ARM_Tiva_Projects_EECS_690_Sp16/Source/tasks
     268                            .dwattr $C$DW$41, DW_AT_decl_line(0xe0)
     269                            .dwattr $C$DW$41, DW_AT_decl_column(0x20)
     270 00000004                   .data
     271                            .align  4
     272                            .elfsym uxTasksDeleted,SYM_SIZE(4)
     273 00000004           uxTasksDeleted:
     274 00000004 00000000          .bits   0,32                    ; uxTasksDeleted @ 0
     275                    
TI ARM Assembler PC v5.2.2 Thu Mar 10 16:27:04 2016

Tools Copyright (c) 1996-2015 Texas Instruments Incorporated
tasks.asm                                                            PAGE    6

     276                    $C$DW$42        .dwtag  DW_TAG_variable, DW_AT_name("uxTasksDeleted")
     277                            .dwattr $C$DW$42, DW_AT_TI_symbol_name("uxTasksDeleted")
     278                            .dwattr $C$DW$42, DW_AT_type(*$C$DW$T$198)
     279                            .dwattr $C$DW$42, DW_AT_location[DW_OP_addr uxTasksDeleted]
     280                            .dwattr $C$DW$42, DW_AT_decl_file("H:/EECS_690/TI_ARM_Tiva_Projects_EECS_690_Sp16/Source/tasks
     281                            .dwattr $C$DW$42, DW_AT_decl_line(0xe1)
     282                            .dwattr $C$DW$42, DW_AT_decl_column(0x2e)
     283                            .common xSuspendedTaskList,20,4
     284                    $C$DW$43        .dwtag  DW_TAG_variable, DW_AT_name("xSuspendedTaskList")
     285                            .dwattr $C$DW$43, DW_AT_TI_symbol_name("xSuspendedTaskList")
     286                            .dwattr $C$DW$43, DW_AT_type(*$C$DW$T$89)
     287                            .dwattr $C$DW$43, DW_AT_location[DW_OP_addr xSuspendedTaskList]
     288                            .dwattr $C$DW$43, DW_AT_decl_file("H:/EECS_690/TI_ARM_Tiva_Projects_EECS_690_Sp16/Source/tasks
     289                            .dwattr $C$DW$43, DW_AT_decl_line(0xe7)
     290                            .dwattr $C$DW$43, DW_AT_decl_column(0x20)
     291 00000008                   .data
     292                            .align  4
     293                            .elfsym uxCurrentNumberOfTasks,SYM_SIZE(4)
     294 00000008           uxCurrentNumberOfTasks:
     295 00000008 00000000          .bits   0,32                    ; uxCurrentNumberOfTasks @ 0
     296                    
     297                    $C$DW$44        .dwtag  DW_TAG_variable, DW_AT_name("uxCurrentNumberOfTasks")
     298                            .dwattr $C$DW$44, DW_AT_TI_symbol_name("uxCurrentNumberOfTasks")
     299                            .dwattr $C$DW$44, DW_AT_type(*$C$DW$T$198)
     300                            .dwattr $C$DW$44, DW_AT_location[DW_OP_addr uxCurrentNumberOfTasks]
     301                            .dwattr $C$DW$44, DW_AT_decl_file("H:/EECS_690/TI_ARM_Tiva_Projects_EECS_690_Sp16/Source/tasks
     302                            .dwattr $C$DW$44, DW_AT_decl_line(0xf2)
     303                            .dwattr $C$DW$44, DW_AT_decl_column(0x2d)
     304 0000000c                   .data
     305                            .align  4
     306                            .elfsym xTickCount,SYM_SIZE(4)
     307 0000000c           xTickCount:
     308 0000000c 00000000          .bits   0,32                    ; xTickCount @ 0
     309                    
     310                    $C$DW$45        .dwtag  DW_TAG_variable, DW_AT_name("xTickCount")
     311                            .dwattr $C$DW$45, DW_AT_TI_symbol_name("xTickCount")
     312                            .dwattr $C$DW$45, DW_AT_type(*$C$DW$T$196)
     313                            .dwattr $C$DW$45, DW_AT_location[DW_OP_addr xTickCount]
     314                            .dwattr $C$DW$45, DW_AT_decl_file("H:/EECS_690/TI_ARM_Tiva_Projects_EECS_690_Sp16/Source/tasks
     315                            .dwattr $C$DW$45, DW_AT_decl_line(0xf3)
     316                            .dwattr $C$DW$45, DW_AT_decl_column(0x2c)
     317 00000010                   .data
     318                            .align  4
     319                            .elfsym uxTopReadyPriority,SYM_SIZE(4)
     320 00000010           uxTopReadyPriority:
     321 00000010 00000000          .bits   0,32                    ; uxTopReadyPriority @ 0
     322                    
     323                    $C$DW$46        .dwtag  DW_TAG_variable, DW_AT_name("uxTopReadyPriority")
     324                            .dwattr $C$DW$46, DW_AT_TI_symbol_name("uxTopReadyPriority")
     325                            .dwattr $C$DW$46, DW_AT_type(*$C$DW$T$198)
     326                            .dwattr $C$DW$46, DW_AT_location[DW_OP_addr uxTopReadyPriority]
     327                            .dwattr $C$DW$46, DW_AT_decl_file("H:/EECS_690/TI_ARM_Tiva_Projects_EECS_690_Sp16/Source/tasks
     328                            .dwattr $C$DW$46, DW_AT_decl_line(0xf4)
     329                            .dwattr $C$DW$46, DW_AT_decl_column(0x2d)
     330 00000014                   .data
TI ARM Assembler PC v5.2.2 Thu Mar 10 16:27:04 2016

Tools Copyright (c) 1996-2015 Texas Instruments Incorporated
tasks.asm                                                            PAGE    7

     331                            .align  4
     332                            .elfsym xSchedulerRunning,SYM_SIZE(4)
     333 00000014           xSchedulerRunning:
     334 00000014 00000000          .bits   0,32                    ; xSchedulerRunning @ 0
     335                    
     336                    $C$DW$47        .dwtag  DW_TAG_variable, DW_AT_name("xSchedulerRunning")
     337                            .dwattr $C$DW$47, DW_AT_TI_symbol_name("xSchedulerRunning")
     338                            .dwattr $C$DW$47, DW_AT_type(*$C$DW$T$161)
     339                            .dwattr $C$DW$47, DW_AT_location[DW_OP_addr xSchedulerRunning]
     340                            .dwattr $C$DW$47, DW_AT_decl_file("H:/EECS_690/TI_ARM_Tiva_Projects_EECS_690_Sp16/Source/tasks
     341                            .dwattr $C$DW$47, DW_AT_decl_line(0xf5)
     342                            .dwattr $C$DW$47, DW_AT_decl_column(0x2c)
     343 00000018                   .data
     344                            .align  4
     345                            .elfsym uxPendedTicks,SYM_SIZE(4)
     346 00000018           uxPendedTicks:
     347 00000018 00000000          .bits   0,32                    ; uxPendedTicks @ 0
     348                    
     349                    $C$DW$48        .dwtag  DW_TAG_variable, DW_AT_name("uxPendedTicks")
     350                            .dwattr $C$DW$48, DW_AT_TI_symbol_name("uxPendedTicks")
     351                            .dwattr $C$DW$48, DW_AT_type(*$C$DW$T$198)
     352                            .dwattr $C$DW$48, DW_AT_location[DW_OP_addr uxPendedTicks]
     353                            .dwattr $C$DW$48, DW_AT_decl_file("H:/EECS_690/TI_ARM_Tiva_Projects_EECS_690_Sp16/Source/tasks
     354                            .dwattr $C$DW$48, DW_AT_decl_line(0xf6)
     355                            .dwattr $C$DW$48, DW_AT_decl_column(0x2d)
     356 0000001c                   .data
     357                            .align  4
     358                            .elfsym xYieldPending,SYM_SIZE(4)
     359 0000001c           xYieldPending:
     360 0000001c 00000000          .bits   0,32                    ; xYieldPending @ 0
     361                    
     362                    $C$DW$49        .dwtag  DW_TAG_variable, DW_AT_name("xYieldPending")
     363                            .dwattr $C$DW$49, DW_AT_TI_symbol_name("xYieldPending")
     364                            .dwattr $C$DW$49, DW_AT_type(*$C$DW$T$161)
     365                            .dwattr $C$DW$49, DW_AT_location[DW_OP_addr xYieldPending]
     366                            .dwattr $C$DW$49, DW_AT_decl_file("H:/EECS_690/TI_ARM_Tiva_Projects_EECS_690_Sp16/Source/tasks
     367                            .dwattr $C$DW$49, DW_AT_decl_line(0xf7)
     368                            .dwattr $C$DW$49, DW_AT_decl_column(0x2c)
     369 00000020                   .data
     370                            .align  4
     371                            .elfsym xNumOfOverflows,SYM_SIZE(4)
     372 00000020           xNumOfOverflows:
     373 00000020 00000000          .bits   0,32                    ; xNumOfOverflows @ 0
     374                    
     375                    $C$DW$50        .dwtag  DW_TAG_variable, DW_AT_name("xNumOfOverflows")
     376                            .dwattr $C$DW$50, DW_AT_TI_symbol_name("xNumOfOverflows")
     377                            .dwattr $C$DW$50, DW_AT_type(*$C$DW$T$161)
     378                            .dwattr $C$DW$50, DW_AT_location[DW_OP_addr xNumOfOverflows]
     379                            .dwattr $C$DW$50, DW_AT_decl_file("H:/EECS_690/TI_ARM_Tiva_Projects_EECS_690_Sp16/Source/tasks
     380                            .dwattr $C$DW$50, DW_AT_decl_line(0xf8)
     381                            .dwattr $C$DW$50, DW_AT_decl_column(0x2c)
     382 00000024                   .data
     383                            .align  4
     384                            .elfsym uxTaskNumber,SYM_SIZE(4)
     385 00000024           uxTaskNumber:
TI ARM Assembler PC v5.2.2 Thu Mar 10 16:27:04 2016

Tools Copyright (c) 1996-2015 Texas Instruments Incorporated
tasks.asm                                                            PAGE    8

     386 00000024 00000000          .bits   0,32                    ; uxTaskNumber @ 0
     387                    
     388                    $C$DW$51        .dwtag  DW_TAG_variable, DW_AT_name("uxTaskNumber")
     389                            .dwattr $C$DW$51, DW_AT_TI_symbol_name("uxTaskNumber")
     390                            .dwattr $C$DW$51, DW_AT_type(*$C$DW$T$32)
     391                            .dwattr $C$DW$51, DW_AT_location[DW_OP_addr uxTaskNumber]
     392                            .dwattr $C$DW$51, DW_AT_decl_file("H:/EECS_690/TI_ARM_Tiva_Projects_EECS_690_Sp16/Source/tasks
     393                            .dwattr $C$DW$51, DW_AT_decl_line(0xf9)
     394                            .dwattr $C$DW$51, DW_AT_decl_column(0x24)
     395 00000028                   .data
     396                            .align  4
     397                            .elfsym xNextTaskUnblockTime,SYM_SIZE(4)
     398 00000028           xNextTaskUnblockTime:
     399 00000028 00000000          .bits   0,32                    ; xNextTaskUnblockTime @ 0
     400                    
     401                    $C$DW$52        .dwtag  DW_TAG_variable, DW_AT_name("xNextTaskUnblockTime")
     402                            .dwattr $C$DW$52, DW_AT_TI_symbol_name("xNextTaskUnblockTime")
     403                            .dwattr $C$DW$52, DW_AT_type(*$C$DW$T$196)
     404                            .dwattr $C$DW$52, DW_AT_location[DW_OP_addr xNextTaskUnblockTime]
     405                            .dwattr $C$DW$52, DW_AT_decl_file("H:/EECS_690/TI_ARM_Tiva_Projects_EECS_690_Sp16/Source/tasks
     406                            .dwattr $C$DW$52, DW_AT_decl_line(0xfa)
     407                            .dwattr $C$DW$52, DW_AT_decl_column(0x2c)
     408 0000002c                   .data
     409                            .align  4
     410                            .elfsym uxSchedulerSuspended,SYM_SIZE(4)
     411 0000002c           uxSchedulerSuspended:
     412 0000002c 00000000          .bits   0,32                    ; uxSchedulerSuspended @ 0
     413                    
     414                    $C$DW$53        .dwtag  DW_TAG_variable, DW_AT_name("uxSchedulerSuspended")
     415                            .dwattr $C$DW$53, DW_AT_TI_symbol_name("uxSchedulerSuspended")
     416                            .dwattr $C$DW$53, DW_AT_type(*$C$DW$T$198)
     417                            .dwattr $C$DW$53, DW_AT_location[DW_OP_addr uxSchedulerSuspended]
     418                            .dwattr $C$DW$53, DW_AT_decl_file("H:/EECS_690/TI_ARM_Tiva_Projects_EECS_690_Sp16/Source/tasks
     419                            .dwattr $C$DW$53, DW_AT_decl_line(0x104)
     420                            .dwattr $C$DW$53, DW_AT_decl_column(0x2d)
     421                    ;       C:\TI_CodeComposer\ccsv6\tools\compiler\ti-cgt-arm_5.2.2\bin\armacpia.exe -@C:\\Users\\callmon
     422 00000000                   .sect   ".text"
     423                            .clink
     424                            .thumbfunc xTaskGenericCreate
     425 00000000                   .thumb
     426                            .global xTaskGenericCreate
     427                    
     428                    $C$DW$54        .dwtag  DW_TAG_subprogram, DW_AT_name("xTaskGenericCreate")
     429                            .dwattr $C$DW$54, DW_AT_low_pc(xTaskGenericCreate)
     430                            .dwattr $C$DW$54, DW_AT_high_pc(0x00)
     431                            .dwattr $C$DW$54, DW_AT_TI_symbol_name("xTaskGenericCreate")
     432                            .dwattr $C$DW$54, DW_AT_external
     433                            .dwattr $C$DW$54, DW_AT_type(*$C$DW$T$64)
     434                            .dwattr $C$DW$54, DW_AT_TI_begin_file("H:/EECS_690/TI_ARM_Tiva_Projects_EECS_690_Sp16/Source/t
     435                            .dwattr $C$DW$54, DW_AT_TI_begin_line(0x227)
     436                            .dwattr $C$DW$54, DW_AT_TI_begin_column(0x0c)
     437                            .dwattr $C$DW$54, DW_AT_decl_file("H:/EECS_690/TI_ARM_Tiva_Projects_EECS_690_Sp16/Source/tasks
     438                            .dwattr $C$DW$54, DW_AT_decl_line(0x227)
     439                            .dwattr $C$DW$54, DW_AT_decl_column(0x0c)
     440                            .dwattr $C$DW$54, DW_AT_TI_max_frame_size(0x28)
TI ARM Assembler PC v5.2.2 Thu Mar 10 16:27:04 2016

Tools Copyright (c) 1996-2015 Texas Instruments Incorporated
tasks.asm                                                            PAGE    9

     441                            .dwpsn  file "H:/EECS_690/TI_ARM_Tiva_Projects_EECS_690_Sp16/Source/tasks.c",line 552,column 1
     442                    
     443                            .dwfde $C$DW$CIE, xTaskGenericCreate
     444                    $C$DW$55        .dwtag  DW_TAG_formal_parameter, DW_AT_name("pxTaskCode")
     445                            .dwattr $C$DW$55, DW_AT_TI_symbol_name("pxTaskCode")
     446                            .dwattr $C$DW$55, DW_AT_type(*$C$DW$T$51)
     447                            .dwattr $C$DW$55, DW_AT_location[DW_OP_reg0]
     448                    $C$DW$56        .dwtag  DW_TAG_formal_parameter, DW_AT_name("pcName")
     449                            .dwattr $C$DW$56, DW_AT_TI_symbol_name("pcName")
     450                            .dwattr $C$DW$56, DW_AT_type(*$C$DW$T$54)
     451                            .dwattr $C$DW$56, DW_AT_location[DW_OP_reg1]
     452                    $C$DW$57        .dwtag  DW_TAG_formal_parameter, DW_AT_name("usStackDepth")
     453                            .dwattr $C$DW$57, DW_AT_TI_symbol_name("usStackDepth")
     454                            .dwattr $C$DW$57, DW_AT_type(*$C$DW$T$125)
     455                            .dwattr $C$DW$57, DW_AT_location[DW_OP_reg2]
     456                    $C$DW$58        .dwtag  DW_TAG_formal_parameter, DW_AT_name("pvParameters")
     457                            .dwattr $C$DW$58, DW_AT_TI_symbol_name("pvParameters")
     458                            .dwattr $C$DW$58, DW_AT_type(*$C$DW$T$83)
     459                            .dwattr $C$DW$58, DW_AT_location[DW_OP_reg3]
     460                    $C$DW$59        .dwtag  DW_TAG_formal_parameter, DW_AT_name("uxPriority")
     461                            .dwattr $C$DW$59, DW_AT_TI_symbol_name("uxPriority")
     462                            .dwattr $C$DW$59, DW_AT_type(*$C$DW$T$32)
     463                            .dwattr $C$DW$59, DW_AT_location[DW_OP_breg13 40]
     464                    $C$DW$60        .dwtag  DW_TAG_formal_parameter, DW_AT_name("pxCreatedTask")
     465                            .dwattr $C$DW$60, DW_AT_TI_symbol_name("pxCreatedTask")
     466                            .dwattr $C$DW$60, DW_AT_type(*$C$DW$T$76)
     467                            .dwattr $C$DW$60, DW_AT_location[DW_OP_breg13 44]
     468                    $C$DW$61        .dwtag  DW_TAG_formal_parameter, DW_AT_name("puxStackBuffer")
     469                            .dwattr $C$DW$61, DW_AT_TI_symbol_name("puxStackBuffer")
     470                            .dwattr $C$DW$61, DW_AT_type(*$C$DW$T$164)
     471                            .dwattr $C$DW$61, DW_AT_location[DW_OP_breg13 48]
     472                    $C$DW$62        .dwtag  DW_TAG_formal_parameter, DW_AT_name("xRegions")
     473                            .dwattr $C$DW$62, DW_AT_TI_symbol_name("xRegions")
     474                            .dwattr $C$DW$62, DW_AT_type(*$C$DW$T$124)
     475                            .dwattr $C$DW$62, DW_AT_location[DW_OP_breg13 52]
     476                    
     477                    ;*****************************************************************************
     478                    ;* FUNCTION NAME: xTaskGenericCreate                                         *
     479                    ;*                                                                           *
     480                    ;*   Regs Modified     : A1,A2,A3,A4,V1,V9,SP,LR,SR,D0,D0_hi,D1,D1_hi,D2,    *
     481                    ;*                           D2_hi,D3,D3_hi,D4,D4_hi,D5,D5_hi,D6,D6_hi,D7,   *
     482                    ;*                           D7_hi,FPEXC,FPSCR                               *
     483                    ;*   Regs Used         : A1,A2,A3,A4,V1,V9,SP,LR,SR,D0,D0_hi,D1,D1_hi,D2,    *
     484                    ;*                           D2_hi,D3,D3_hi,D4,D4_hi,D5,D5_hi,D6,D6_hi,D7,   *
     485                    ;*                           D7_hi,FPEXC,FPSCR                               *
     486                    ;*   Local Frame Size  : 4 Args + 28 Auto + 8 Save = 40 byte                 *
     487                    ;*****************************************************************************
     488 00000000           xTaskGenericCreate:
     489                    ;* --------------------------------------------------------------------------*
     490                            .dwcfi  cfa_offset, 0
     491 00000000 B510              PUSH      {V1, LR}              ; [DPU_3_PIPE]  ; [ORIG 16-BIT INS]
     492                            .dwcfi  cfa_offset, 8
     493                            .dwcfi  save_reg_to_mem, 14, -4
     494                            .dwcfi  save_reg_to_mem, 4, -8
     495 00000002 0D20F1AD          SUB       SP, SP, #32           ; [DPU_3_PIPE]  ; [KEEP 32-BIT INS]
TI ARM Assembler PC v5.2.2 Thu Mar 10 16:27:04 2016

Tools Copyright (c) 1996-2015 Texas Instruments Incorporated
tasks.asm                                                            PAGE   10

     496                            .dwcfi  cfa_offset, 40
     497                    $C$DW$63        .dwtag  DW_TAG_variable, DW_AT_name("pxTaskCode")
     498                            .dwattr $C$DW$63, DW_AT_TI_symbol_name("pxTaskCode")
     499                            .dwattr $C$DW$63, DW_AT_type(*$C$DW$T$51)
     500                            .dwattr $C$DW$63, DW_AT_location[DW_OP_breg13 4]
     501                    $C$DW$64        .dwtag  DW_TAG_variable, DW_AT_name("pcName")
     502                            .dwattr $C$DW$64, DW_AT_TI_symbol_name("pcName")
     503                            .dwattr $C$DW$64, DW_AT_type(*$C$DW$T$54)
     504                            .dwattr $C$DW$64, DW_AT_location[DW_OP_breg13 8]
     505                    $C$DW$65        .dwtag  DW_TAG_variable, DW_AT_name("usStackDepth")
     506                            .dwattr $C$DW$65, DW_AT_TI_symbol_name("usStackDepth")
     507                            .dwattr $C$DW$65, DW_AT_type(*$C$DW$T$125)
     508                            .dwattr $C$DW$65, DW_AT_location[DW_OP_breg13 12]
     509                    $C$DW$66        .dwtag  DW_TAG_variable, DW_AT_name("pvParameters")
     510                            .dwattr $C$DW$66, DW_AT_TI_symbol_name("pvParameters")
     511                            .dwattr $C$DW$66, DW_AT_type(*$C$DW$T$83)
     512                            .dwattr $C$DW$66, DW_AT_location[DW_OP_breg13 16]
     513                    $C$DW$67        .dwtag  DW_TAG_variable, DW_AT_name("xReturn")
     514                            .dwattr $C$DW$67, DW_AT_TI_symbol_name("xReturn")
     515                            .dwattr $C$DW$67, DW_AT_type(*$C$DW$T$64)
     516                            .dwattr $C$DW$67, DW_AT_location[DW_OP_breg13 20]
     517                    $C$DW$68        .dwtag  DW_TAG_variable, DW_AT_name("pxNewTCB")
     518                            .dwattr $C$DW$68, DW_AT_TI_symbol_name("pxNewTCB")
     519                            .dwattr $C$DW$68, DW_AT_type(*$C$DW$T$120)
     520                            .dwattr $C$DW$68, DW_AT_location[DW_OP_breg13 24]
     521                    $C$DW$69        .dwtag  DW_TAG_variable, DW_AT_name("pxTopOfStack")
     522                            .dwattr $C$DW$69, DW_AT_TI_symbol_name("pxTopOfStack")
     523                            .dwattr $C$DW$69, DW_AT_type(*$C$DW$T$33)
     524                            .dwattr $C$DW$69, DW_AT_location[DW_OP_breg13 28]
     525 00000006 9304              STR       A4, [SP, #16]         ; [DPU_3_PIPE] |552|  ; [ORIG 16-BIT INS]
     526 00000008 200CF8AD          STRH      A3, [SP, #12]         ; [DPU_3_PIPE] |552|  ; [KEEP 32-BIT INS]
     527 0000000c 9102              STR       A2, [SP, #8]          ; [DPU_3_PIPE] |552|  ; [ORIG 16-BIT INS]
     528 0000000e 9001              STR       A1, [SP, #4]          ; [DPU_3_PIPE] |552|  ; [ORIG 16-BIT INS]
     529                            .dwpsn  file "H:/EECS_690/TI_ARM_Tiva_Projects_EECS_690_Sp16/Source/tasks.c",line 562,column 2
     530 00000010 990C              LDR       A2, [SP, #48]         ; [DPU_3_PIPE] |562|  ; [ORIG 16-BIT INS]
     531 00000012 000CF8BD          LDRH      A1, [SP, #12]         ; [DPU_3_PIPE] |562|  ; [KEEP 32-BIT INS]
     532                    $C$DW$70        .dwtag  DW_TAG_TI_branch
     533                            .dwattr $C$DW$70, DW_AT_low_pc(0x00)
     534                            .dwattr $C$DW$70, DW_AT_name("prvAllocateTCBAndStack")
     535                            .dwattr $C$DW$70, DW_AT_TI_call
     536 00000016 FF91F000          BL        prvAllocateTCBAndStack ; [DPU_3_PIPE] |562|  ; [KEEP 32-BIT INS]
     537                            ; CALL OCCURS {prvAllocateTCBAndStack }  ; [] |562| 
     538 0000001a 9006              STR       A1, [SP, #24]         ; [DPU_3_PIPE] |562|  ; [ORIG 16-BIT INS]
     539                            .dwpsn  file "H:/EECS_690/TI_ARM_Tiva_Projects_EECS_690_Sp16/Source/tasks.c",line 564,column 2
     540 0000001c 9806              LDR       A1, [SP, #24]         ; [DPU_3_PIPE] |564|  ; [ORIG 16-BIT INS]
     541 0000001e 2800              CMP       A1, #0                ; [DPU_3_PIPE] |564|  ; [ORIG 16-BIT INS]
     542 00000020 D060              BEQ       ||$C$L4||             ; [DPU_3_PIPE] |564|  ; [ORIG 16-BIT INS]
     543                            ; BRANCHCC OCCURS {||$C$L4||}    ; [] |564| 
     544                    ;* --------------------------------------------------------------------------*
     545                            .dwpsn  file "H:/EECS_690/TI_ARM_Tiva_Projects_EECS_690_Sp16/Source/tasks.c",line 600,column 4
     546 00000022 9906              LDR       A2, [SP, #24]         ; [DPU_3_PIPE] |600|  ; [ORIG 16-BIT INS]
     547 00000024 000CF8BD          LDRH      A1, [SP, #12]         ; [DPU_3_PIPE] |600|  ; [KEEP 32-BIT INS]
     548 00000028 6B09              LDR       A2, [A2, #48]         ; [DPU_3_PIPE] |600|  ; [ORIG 16-BIT INS]
     549 0000002a 1E40              SUBS      A1, A1, #1            ; [DPU_3_PIPE] |600|  ; [ORIG 16-BIT INS]
     550 0000002c 0180EB01          ADD       A2, A2, A1, LSL #2    ; [DPU_3_PIPE] |600|  ; [KEEP 32-BIT INS]
TI ARM Assembler PC v5.2.2 Thu Mar 10 16:27:04 2016

Tools Copyright (c) 1996-2015 Texas Instruments Incorporated
tasks.asm                                                            PAGE   11

     551 00000030 9107              STR       A2, [SP, #28]         ; [DPU_3_PIPE] |600|  ; [ORIG 16-BIT INS]
     552                            .dwpsn  file "H:/EECS_690/TI_ARM_Tiva_Projects_EECS_690_Sp16/Source/tasks.c",line 601,column 4
     553 00000032 9807              LDR       A1, [SP, #28]         ; [DPU_3_PIPE] |601|  ; [ORIG 16-BIT INS]
     554 00000034 0007F020          BIC       A1, A1, #7            ; [DPU_3_PIPE] |601|  ; [KEEP 32-BIT INS]
     555 00000038 9007              STR       A1, [SP, #28]         ; [DPU_3_PIPE] |601|  ; [ORIG 16-BIT INS]
     556                            .dwpsn  file "H:/EECS_690/TI_ARM_Tiva_Projects_EECS_690_Sp16/Source/tasks.c",line 621,column 3
     557 0000003a 000CF8BD          LDRH      A1, [SP, #12]         ; [DPU_3_PIPE] |621|  ; [KEEP 32-BIT INS]
     558 0000003e 9A0A              LDR       A3, [SP, #40]         ; [DPU_3_PIPE] |621|  ; [ORIG 16-BIT INS]
     559 00000040 9B0D              LDR       A4, [SP, #52]         ; [DPU_3_PIPE] |621|  ; [ORIG 16-BIT INS]
     560 00000042 9000              STR       A1, [SP, #0]          ; [DPU_3_PIPE] |621|  ; [ORIG 16-BIT INS]
     561 00000044 9902              LDR       A2, [SP, #8]          ; [DPU_3_PIPE] |621|  ; [ORIG 16-BIT INS]
     562 00000046 9806              LDR       A1, [SP, #24]         ; [DPU_3_PIPE] |621|  ; [ORIG 16-BIT INS]
     563                    $C$DW$71        .dwtag  DW_TAG_TI_branch
     564                            .dwattr $C$DW$71, DW_AT_low_pc(0x00)
     565                            .dwattr $C$DW$71, DW_AT_name("prvInitialiseTCBVariables")
     566                            .dwattr $C$DW$71, DW_AT_TI_call
     567 00000048 FEA8F000          BL        prvInitialiseTCBVariables ; [DPU_3_PIPE] |621|  ; [KEEP 32-BIT INS]
     568                            ; CALL OCCURS {prvInitialiseTCBVariables }  ; [] |621| 
     569                            .dwpsn  file "H:/EECS_690/TI_ARM_Tiva_Projects_EECS_690_Sp16/Source/tasks.c",line 633,column 4
     570 0000004c 9807              LDR       A1, [SP, #28]         ; [DPU_3_PIPE] |633|  ; [ORIG 16-BIT INS]
     571 0000004e 9901              LDR       A2, [SP, #4]          ; [DPU_3_PIPE] |633|  ; [ORIG 16-BIT INS]
     572 00000050 9A04              LDR       A3, [SP, #16]         ; [DPU_3_PIPE] |633|  ; [ORIG 16-BIT INS]
     573                    $C$DW$72        .dwtag  DW_TAG_TI_branch
     574                            .dwattr $C$DW$72, DW_AT_low_pc(0x00)
     575                            .dwattr $C$DW$72, DW_AT_name("pxPortInitialiseStack")
     576                            .dwattr $C$DW$72, DW_AT_TI_call
     577 00000052 FFFEF7FF!         BL        pxPortInitialiseStack ; [DPU_3_PIPE] |633|  ; [KEEP 32-BIT INS]
     578                            ; CALL OCCURS {pxPortInitialiseStack }  ; [] |633| 
     579 00000056 9906              LDR       A2, [SP, #24]         ; [DPU_3_PIPE] |633|  ; [ORIG 16-BIT INS]
     580 00000058 6008              STR       A1, [A2, #0]          ; [DPU_3_PIPE] |633|  ; [ORIG 16-BIT INS]
     581                            .dwpsn  file "H:/EECS_690/TI_ARM_Tiva_Projects_EECS_690_Sp16/Source/tasks.c",line 637,column 3
     582 0000005a 980B              LDR       A1, [SP, #44]         ; [DPU_3_PIPE] |637|  ; [ORIG 16-BIT INS]
     583 0000005c B110              CBZ       A1, ||$C$L1||         ; []  ; [ORIG 16-BIT INS]
     584                            ; BRANCHCC OCCURS {||$C$L1||}    ; [] |637| 
     585                    ;* --------------------------------------------------------------------------*
     586                            .dwpsn  file "H:/EECS_690/TI_ARM_Tiva_Projects_EECS_690_Sp16/Source/tasks.c",line 642,column 4
     587 0000005e 9806              LDR       A1, [SP, #24]         ; [DPU_3_PIPE] |642|  ; [ORIG 16-BIT INS]
     588 00000060 990B              LDR       A2, [SP, #44]         ; [DPU_3_PIPE] |642|  ; [ORIG 16-BIT INS]
     589 00000062 6008              STR       A1, [A2, #0]          ; [DPU_3_PIPE] |642|  ; [ORIG 16-BIT INS]
     590                            .dwpsn  file "H:/EECS_690/TI_ARM_Tiva_Projects_EECS_690_Sp16/Source/tasks.c",line 643,column 3
     591                    ;* --------------------------------------------------------------------------*
     592 00000064           ||$C$L1||:    
     593                            .dwpsn  file "H:/EECS_690/TI_ARM_Tiva_Projects_EECS_690_Sp16/Source/tasks.c",line 651,column 3
     594                    $C$DW$73        .dwtag  DW_TAG_TI_branch
     595                            .dwattr $C$DW$73, DW_AT_low_pc(0x00)
     596                            .dwattr $C$DW$73, DW_AT_name("vPortEnterCritical")
     597                            .dwattr $C$DW$73, DW_AT_TI_call
     598 00000064 FFFEF7FF!         BL        vPortEnterCritical    ; [DPU_3_PIPE] |651|  ; [KEEP 32-BIT INS]
     599                            ; CALL OCCURS {vPortEnterCritical }  ; [] |651| 
     600                            .dwpsn  file "H:/EECS_690/TI_ARM_Tiva_Projects_EECS_690_Sp16/Source/tasks.c",line 653,column 4
     601 00000068 499D              LDR       A2, $C$CON1           ; [DPU_3_PIPE] |653|  ; [ORIG 16-BIT INS]
     602 0000006a 6808              LDR       A1, [A2, #0]          ; [DPU_3_PIPE] |653|  ; [ORIG 16-BIT INS]
     603 0000006c 1C40              ADDS      A1, A1, #1            ; [DPU_3_PIPE] |653|  ; [ORIG 16-BIT INS]
     604 0000006e 6008              STR       A1, [A2, #0]          ; [DPU_3_PIPE] |653|  ; [ORIG 16-BIT INS]
     605                            .dwpsn  file "H:/EECS_690/TI_ARM_Tiva_Projects_EECS_690_Sp16/Source/tasks.c",line 654,column 4
TI ARM Assembler PC v5.2.2 Thu Mar 10 16:27:04 2016

Tools Copyright (c) 1996-2015 Texas Instruments Incorporated
tasks.asm                                                            PAGE   12

     606 00000070 489C              LDR       A1, $C$CON2           ; [DPU_3_PIPE] |654|  ; [ORIG 16-BIT INS]
     607 00000072 6800              LDR       A1, [A1, #0]          ; [DPU_3_PIPE] |654|  ; [ORIG 16-BIT INS]
     608 00000074 B948              CBNZ      A1, ||$C$L2||         ; []  ; [ORIG 16-BIT INS]
     609                            ; BRANCHCC OCCURS {||$C$L2||}    ; [] |654| 
     610                    ;* --------------------------------------------------------------------------*
     611                            .dwpsn  file "H:/EECS_690/TI_ARM_Tiva_Projects_EECS_690_Sp16/Source/tasks.c",line 658,column 5
     612 00000076 9806              LDR       A1, [SP, #24]         ; [DPU_3_PIPE] |658|  ; [ORIG 16-BIT INS]
     613 00000078 499A              LDR       A2, $C$CON2           ; [DPU_3_PIPE] |658|  ; [ORIG 16-BIT INS]
     614 0000007a 6008              STR       A1, [A2, #0]          ; [DPU_3_PIPE] |658|  ; [ORIG 16-BIT INS]
     615                            .dwpsn  file "H:/EECS_690/TI_ARM_Tiva_Projects_EECS_690_Sp16/Source/tasks.c",line 660,column 5
     616 0000007c 4898              LDR       A1, $C$CON1           ; [DPU_3_PIPE] |660|  ; [ORIG 16-BIT INS]
     617 0000007e 6800              LDR       A1, [A1, #0]          ; [DPU_3_PIPE] |660|  ; [ORIG 16-BIT INS]
     618 00000080 2801              CMP       A1, #1                ; [DPU_3_PIPE] |660|  ; [ORIG 16-BIT INS]
     619 00000082 D10F              BNE       ||$C$L3||             ; [DPU_3_PIPE] |660|  ; [ORIG 16-BIT INS]
     620                            ; BRANCHCC OCCURS {||$C$L3||}    ; [] |660| 
     621                    ;* --------------------------------------------------------------------------*
     622                            .dwpsn  file "H:/EECS_690/TI_ARM_Tiva_Projects_EECS_690_Sp16/Source/tasks.c",line 665,column 6
     623                    $C$DW$74        .dwtag  DW_TAG_TI_branch
     624                            .dwattr $C$DW$74, DW_AT_low_pc(0x00)
     625                            .dwattr $C$DW$74, DW_AT_name("prvInitialiseTaskLists")
     626                            .dwattr $C$DW$74, DW_AT_TI_call
     627 00000084 FEDAF000          BL        prvInitialiseTaskLists ; [DPU_3_PIPE] |665|  ; [KEEP 32-BIT INS]
     628                            ; CALL OCCURS {prvInitialiseTaskLists }  ; [] |665| 
     629                            .dwpsn  file "H:/EECS_690/TI_ARM_Tiva_Projects_EECS_690_Sp16/Source/tasks.c",line 666,column 5
     630 00000088 E00C              B         ||$C$L3||             ; [DPU_3_PIPE] |666|  ; [ORIG 16-BIT INS]
     631                            ; BRANCH OCCURS {||$C$L3||}      ; [] |666| 
     632                    ;* --------------------------------------------------------------------------*
     633                    ;* --------------------------------------------------------------------------*
     634 0000008a           ||$C$L2||:    
     635                            .dwpsn  file "H:/EECS_690/TI_ARM_Tiva_Projects_EECS_690_Sp16/Source/tasks.c",line 677,column 5
     636 0000008a 4897              LDR       A1, $C$CON3           ; [DPU_3_PIPE] |677|  ; [ORIG 16-BIT INS]
     637 0000008c 6800              LDR       A1, [A1, #0]          ; [DPU_3_PIPE] |677|  ; [ORIG 16-BIT INS]
     638 0000008e B948              CBNZ      A1, ||$C$L3||         ; []  ; [ORIG 16-BIT INS]
     639                            ; BRANCHCC OCCURS {||$C$L3||}    ; [] |677| 
     640                    ;* --------------------------------------------------------------------------*
     641                            .dwpsn  file "H:/EECS_690/TI_ARM_Tiva_Projects_EECS_690_Sp16/Source/tasks.c",line 679,column 6
     642 00000090 4894              LDR       A1, $C$CON2           ; [DPU_3_PIPE] |679|  ; [ORIG 16-BIT INS]
     643 00000092 6801              LDR       A2, [A1, #0]          ; [DPU_3_PIPE] |679|  ; [ORIG 16-BIT INS]
     644 00000094 980A              LDR       A1, [SP, #40]         ; [DPU_3_PIPE] |679|  ; [ORIG 16-BIT INS]
     645 00000096 6AC9              LDR       A2, [A2, #44]         ; [DPU_3_PIPE] |679|  ; [ORIG 16-BIT INS]
     646 00000098 4288              CMP       A1, A2                ; [DPU_3_PIPE] |679|  ; [ORIG 16-BIT INS]
     647 0000009a D303              BCC       ||$C$L3||             ; [DPU_3_PIPE] |679|  ; [ORIG 16-BIT INS]
     648                            ; BRANCHCC OCCURS {||$C$L3||}    ; [] |679| 
     649                    ;* --------------------------------------------------------------------------*
     650                            .dwpsn  file "H:/EECS_690/TI_ARM_Tiva_Projects_EECS_690_Sp16/Source/tasks.c",line 681,column 7
     651 0000009c 9806              LDR       A1, [SP, #24]         ; [DPU_3_PIPE] |681|  ; [ORIG 16-BIT INS]
     652 0000009e 4991              LDR       A2, $C$CON2           ; [DPU_3_PIPE] |681|  ; [ORIG 16-BIT INS]
     653 000000a0 6008              STR       A1, [A2, #0]          ; [DPU_3_PIPE] |681|  ; [ORIG 16-BIT INS]
     654                            .dwpsn  file "H:/EECS_690/TI_ARM_Tiva_Projects_EECS_690_Sp16/Source/tasks.c",line 682,column 6
     655 000000a2 E7FF              B         ||$C$L3||             ; [DPU_3_PIPE] |682|  ; [ORIG 16-BIT INS]
     656                            ; BRANCH OCCURS {||$C$L3||}      ; [] |682| 
     657                    ;* --------------------------------------------------------------------------*
     658                    ;* --------------------------------------------------------------------------*
     659 000000a4           ||$C$L3||:    
     660                            .dwpsn  file "H:/EECS_690/TI_ARM_Tiva_Projects_EECS_690_Sp16/Source/tasks.c",line 694,column 4
TI ARM Assembler PC v5.2.2 Thu Mar 10 16:27:04 2016

Tools Copyright (c) 1996-2015 Texas Instruments Incorporated
tasks.asm                                                            PAGE   13

     661 000000a4 49A0              LDR       A2, $C$CON4           ; [DPU_3_PIPE] |694|  ; [ORIG 16-BIT INS]
     662 000000a6 6808              LDR       A1, [A2, #0]          ; [DPU_3_PIPE] |694|  ; [ORIG 16-BIT INS]
     663 000000a8 1C40              ADDS      A1, A1, #1            ; [DPU_3_PIPE] |694|  ; [ORIG 16-BIT INS]
     664 000000aa 6008              STR       A1, [A2, #0]          ; [DPU_3_PIPE] |694|  ; [ORIG 16-BIT INS]
     665                            .dwpsn  file "H:/EECS_690/TI_ARM_Tiva_Projects_EECS_690_Sp16/Source/tasks.c",line 699,column 5
     666 000000ac 489E              LDR       A1, $C$CON4           ; [DPU_3_PIPE] |699|  ; [ORIG 16-BIT INS]
     667 000000ae 9906              LDR       A2, [SP, #24]         ; [DPU_3_PIPE] |699|  ; [ORIG 16-BIT INS]
     668 000000b0 6800              LDR       A1, [A1, #0]          ; [DPU_3_PIPE] |699|  ; [ORIG 16-BIT INS]
     669 000000b2 6408              STR       A1, [A2, #64]         ; [DPU_3_PIPE] |699|  ; [ORIG 16-BIT INS]
     670                            .dwpsn  file "H:/EECS_690/TI_ARM_Tiva_Projects_EECS_690_Sp16/Source/tasks.c",line 704,column 4
     671 000000b4 4A9D              LDR       A3, $C$CON5           ; [DPU_3_PIPE] |704|  ; [ORIG 16-BIT INS]
     672 000000b6 9806              LDR       A1, [SP, #24]         ; [DPU_3_PIPE] |704|  ; [ORIG 16-BIT INS]
     673 000000b8 6813              LDR       A4, [A3, #0]          ; [DPU_3_PIPE] |704|  ; [ORIG 16-BIT INS]
     674 000000ba 9906              LDR       A2, [SP, #24]         ; [DPU_3_PIPE] |704|  ; [ORIG 16-BIT INS]
     675 000000bc 6AC4              LDR       V1, [A1, #44]         ; [DPU_3_PIPE] |704|  ; [ORIG 16-BIT INS]
     676 000000be 2001              MOVS      A1, #1                ; [DPU_3_PIPE] |704|  ; [ORIG 16-BIT INS]
     677 000000c0 40A0              LSLS      A1, A1, V1            ; [DPU_3_PIPE] |704|  ; [ORIG 16-BIT INS]
     678 000000c2 4318              ORRS      A1, A1, A4            ; [DPU_3_PIPE] |704|  ; [ORIG 16-BIT INS]
     679 000000c4 6010              STR       A1, [A3, #0]          ; [DPU_3_PIPE] |704|  ; [ORIG 16-BIT INS]
     680 000000c6 489A              LDR       A1, $C$CON6           ; [DPU_3_PIPE] |704|  ; [ORIG 16-BIT INS]
     681 000000c8 6ACB              LDR       A4, [A2, #44]         ; [DPU_3_PIPE] |704|  ; [ORIG 16-BIT INS]
     682 000000ca 9906              LDR       A2, [SP, #24]         ; [DPU_3_PIPE] |704|  ; [ORIG 16-BIT INS]
     683 000000cc 009A              LSLS      A3, A4, #2            ; [DPU_3_PIPE] |704|  ; [ORIG 16-BIT INS]
     684 000000ce 1D09              ADDS      A2, A2, #4            ; [DPU_3_PIPE] |704|  ; [ORIG 16-BIT INS]
     685 000000d0 1203EB02          ADD       A3, A3, A4, LSL #4    ; [DPU_3_PIPE] |704|  ; [KEEP 32-BIT INS]
     686 000000d4 1880              ADDS      A1, A1, A3            ; [DPU_3_PIPE] |704|  ; [ORIG 16-BIT INS]
     687                    $C$DW$75        .dwtag  DW_TAG_TI_branch
     688                            .dwattr $C$DW$75, DW_AT_low_pc(0x00)
     689                            .dwattr $C$DW$75, DW_AT_name("vListInsertEnd")
     690                            .dwattr $C$DW$75, DW_AT_TI_call
     691 000000d6 FFFEF7FF!         BL        vListInsertEnd        ; [DPU_3_PIPE] |704|  ; [KEEP 32-BIT INS]
     692                            ; CALL OCCURS {vListInsertEnd }  ; [] |704| 
     693                            .dwpsn  file "H:/EECS_690/TI_ARM_Tiva_Projects_EECS_690_Sp16/Source/tasks.c",line 706,column 4
     694 000000da 2001              MOVS      A1, #1                ; [DPU_3_PIPE] |706|  ; [ORIG 16-BIT INS]
     695 000000dc 9005              STR       A1, [SP, #20]         ; [DPU_3_PIPE] |706|  ; [ORIG 16-BIT INS]
     696                            .dwpsn  file "H:/EECS_690/TI_ARM_Tiva_Projects_EECS_690_Sp16/Source/tasks.c",line 707,column 4
     697                            .dwpsn  file "H:/EECS_690/TI_ARM_Tiva_Projects_EECS_690_Sp16/Source/tasks.c",line 709,column 3
     698                    $C$DW$76        .dwtag  DW_TAG_TI_branch
     699                            .dwattr $C$DW$76, DW_AT_low_pc(0x00)
     700                            .dwattr $C$DW$76, DW_AT_name("vPortExitCritical")
     701                            .dwattr $C$DW$76, DW_AT_TI_call
     702 000000de FFFEF7FF!         BL        vPortExitCritical     ; [DPU_3_PIPE] |709|  ; [KEEP 32-BIT INS]
     703                            ; CALL OCCURS {vPortExitCritical }  ; [] |709| 
     704                            .dwpsn  file "H:/EECS_690/TI_ARM_Tiva_Projects_EECS_690_Sp16/Source/tasks.c",line 710,column 2
     705 000000e2 E002              B         ||$C$L5||             ; [DPU_3_PIPE] |710|  ; [ORIG 16-BIT INS]
     706                            ; BRANCH OCCURS {||$C$L5||}      ; [] |710| 
     707                    ;* --------------------------------------------------------------------------*
     708 000000e4           ||$C$L4||:    
     709                            .dwpsn  file "H:/EECS_690/TI_ARM_Tiva_Projects_EECS_690_Sp16/Source/tasks.c",line 713,column 3
     710 000000e4 30FFF04F          MOV       A1, #-1               ; [DPU_3_PIPE] |713|  ; [KEEP 32-BIT INS]
     711 000000e8 9005              STR       A1, [SP, #20]         ; [DPU_3_PIPE] |713|  ; [ORIG 16-BIT INS]
     712                    ;* --------------------------------------------------------------------------*
     713 000000ea           ||$C$L5||:    
     714                            .dwpsn  file "H:/EECS_690/TI_ARM_Tiva_Projects_EECS_690_Sp16/Source/tasks.c",line 717,column 2
     715 000000ea 9805              LDR       A1, [SP, #20]         ; [DPU_3_PIPE] |717|  ; [ORIG 16-BIT INS]
TI ARM Assembler PC v5.2.2 Thu Mar 10 16:27:04 2016

Tools Copyright (c) 1996-2015 Texas Instruments Incorporated
tasks.asm                                                            PAGE   14

     716 000000ec 2801              CMP       A1, #1                ; [DPU_3_PIPE] |717|  ; [ORIG 16-BIT INS]
     717 000000ee D111              BNE       ||$C$L6||             ; [DPU_3_PIPE] |717|  ; [ORIG 16-BIT INS]
     718                            ; BRANCHCC OCCURS {||$C$L6||}    ; [] |717| 
     719                    ;* --------------------------------------------------------------------------*
     720                            .dwpsn  file "H:/EECS_690/TI_ARM_Tiva_Projects_EECS_690_Sp16/Source/tasks.c",line 719,column 3
     721 000000f0 487D              LDR       A1, $C$CON3           ; [DPU_3_PIPE] |719|  ; [ORIG 16-BIT INS]
     722 000000f2 6800              LDR       A1, [A1, #0]          ; [DPU_3_PIPE] |719|  ; [ORIG 16-BIT INS]
     723 000000f4 B170              CBZ       A1, ||$C$L6||         ; []  ; [ORIG 16-BIT INS]
     724                            ; BRANCHCC OCCURS {||$C$L6||}    ; [] |719| 
     725                    ;* --------------------------------------------------------------------------*
     726                            .dwpsn  file "H:/EECS_690/TI_ARM_Tiva_Projects_EECS_690_Sp16/Source/tasks.c",line 723,column 4
     727 000000f6 487B              LDR       A1, $C$CON2           ; [DPU_3_PIPE] |723|  ; [ORIG 16-BIT INS]
     728 000000f8 6801              LDR       A2, [A1, #0]          ; [DPU_3_PIPE] |723|  ; [ORIG 16-BIT INS]
     729 000000fa 980A              LDR       A1, [SP, #40]         ; [DPU_3_PIPE] |723|  ; [ORIG 16-BIT INS]
     730 000000fc 6AC9              LDR       A2, [A2, #44]         ; [DPU_3_PIPE] |723|  ; [ORIG 16-BIT INS]
     731 000000fe 4288              CMP       A1, A2                ; [DPU_3_PIPE] |723|  ; [ORIG 16-BIT INS]
     732 00000100 D908              BLS       ||$C$L6||             ; [DPU_3_PIPE] |723|  ; [ORIG 16-BIT INS]
     733                            ; BRANCHCC OCCURS {||$C$L6||}    ; [] |723| 
     734                    ;* --------------------------------------------------------------------------*
     735                            .dwpsn  file "H:/EECS_690/TI_ARM_Tiva_Projects_EECS_690_Sp16/Source/tasks.c",line 725,column 5
     736 00000102 498C              LDR       A2, $C$CON7           ; [DPU_3_PIPE] |725|  ; [ORIG 16-BIT INS]
     737 00000104 5080F04F          MOV       A1, #268435456        ; [DPU_3_PIPE] |725|  ; [KEEP 32-BIT INS]
     738 00000108 6008              STR       A1, [A2, #0]          ; [DPU_3_PIPE] |725|  ; [ORIG 16-BIT INS]
     739 0000010a 8F4FF3BF          dsb ; [KEEP 32-BIT INS]
     740 0000010e 8F6FF3BF          isb ; [KEEP 32-BIT INS]
     741                            .dwpsn  file "H:/EECS_690/TI_ARM_Tiva_Projects_EECS_690_Sp16/Source/tasks.c",line 726,column 4
     742 00000112 E7FF              B         ||$C$L6||             ; [DPU_3_PIPE] |726|  ; [ORIG 16-BIT INS]
     743                            ; BRANCH OCCURS {||$C$L6||}      ; [] |726| 
     744                    ;* --------------------------------------------------------------------------*
     745                    ;* --------------------------------------------------------------------------*
     746 00000114           ||$C$L6||:    
     747                            .dwpsn  file "H:/EECS_690/TI_ARM_Tiva_Projects_EECS_690_Sp16/Source/tasks.c",line 738,column 2
     748 00000114 9805              LDR       A1, [SP, #20]         ; [DPU_3_PIPE] |738|  ; [ORIG 16-BIT INS]
     749                            .dwpsn  file "H:/EECS_690/TI_ARM_Tiva_Projects_EECS_690_Sp16/Source/tasks.c",line 739,column 1
     750 00000116 B008              ADD       SP, SP, #32           ; [DPU_3_PIPE]  ; [ORIG 16-BIT INS]
     751                            .dwcfi  cfa_offset, 8
     752                    $C$DW$77        .dwtag  DW_TAG_TI_branch
     753                            .dwattr $C$DW$77, DW_AT_low_pc(0x00)
     754                            .dwattr $C$DW$77, DW_AT_TI_return
     755 00000118 BD10              POP       {V1, PC}              ; [DPU_3_PIPE]  ; [ORIG 16-BIT INS]
     756                            .dwcfi  cfa_offset, 0
     757                            ; BRANCH OCCURS                  ; [] 
     758                            .dwattr $C$DW$54, DW_AT_TI_end_file("H:/EECS_690/TI_ARM_Tiva_Projects_EECS_690_Sp16/Source/tas
     759                            .dwattr $C$DW$54, DW_AT_TI_end_line(0x2e3)
     760                            .dwattr $C$DW$54, DW_AT_TI_end_column(0x01)
     761                            .dwendentry
     762                            .dwendtag $C$DW$54
     763                    
     764 0000011a                   .sect   ".text"
     765                            .clink
     766                            .thumbfunc vTaskDelete
     767 0000011a                   .thumb
     768                            .global vTaskDelete
     769                    
     770                    $C$DW$78        .dwtag  DW_TAG_subprogram, DW_AT_name("vTaskDelete")
TI ARM Assembler PC v5.2.2 Thu Mar 10 16:27:04 2016

Tools Copyright (c) 1996-2015 Texas Instruments Incorporated
tasks.asm                                                            PAGE   15

     771                            .dwattr $C$DW$78, DW_AT_low_pc(vTaskDelete)
     772                            .dwattr $C$DW$78, DW_AT_high_pc(0x00)
     773                            .dwattr $C$DW$78, DW_AT_TI_symbol_name("vTaskDelete")
     774                            .dwattr $C$DW$78, DW_AT_external
     775                            .dwattr $C$DW$78, DW_AT_TI_begin_file("H:/EECS_690/TI_ARM_Tiva_Projects_EECS_690_Sp16/Source/t
     776                            .dwattr $C$DW$78, DW_AT_TI_begin_line(0x2e8)
     777                            .dwattr $C$DW$78, DW_AT_TI_begin_column(0x07)
     778                            .dwattr $C$DW$78, DW_AT_decl_file("H:/EECS_690/TI_ARM_Tiva_Projects_EECS_690_Sp16/Source/tasks
     779                            .dwattr $C$DW$78, DW_AT_decl_line(0x2e8)
     780                            .dwattr $C$DW$78, DW_AT_decl_column(0x07)
     781                            .dwattr $C$DW$78, DW_AT_TI_max_frame_size(0x10)
     782                            .dwpsn  file "H:/EECS_690/TI_ARM_Tiva_Projects_EECS_690_Sp16/Source/tasks.c",line 745,column 2
     783                    
     784                            .dwfde $C$DW$CIE, vTaskDelete
     785                    $C$DW$79        .dwtag  DW_TAG_formal_parameter, DW_AT_name("xTaskToDelete")
     786                            .dwattr $C$DW$79, DW_AT_TI_symbol_name("xTaskToDelete")
     787                            .dwattr $C$DW$79, DW_AT_type(*$C$DW$T$59)
     788                            .dwattr $C$DW$79, DW_AT_location[DW_OP_reg0]
     789                    
     790                    ;*****************************************************************************
     791                    ;* FUNCTION NAME: vTaskDelete                                                *
     792                    ;*                                                                           *
     793                    ;*   Regs Modified     : A1,A2,A3,A4,V9,SP,LR,SR,D0,D0_hi,D1,D1_hi,D2,D2_hi, *
     794                    ;*                           D3,D3_hi,D4,D4_hi,D5,D5_hi,D6,D6_hi,D7,D7_hi,   *
     795                    ;*                           FPEXC,FPSCR                                     *
     796                    ;*   Regs Used         : A1,A2,A3,A4,V9,SP,LR,SR,D0,D0_hi,D1,D1_hi,D2,D2_hi, *
     797                    ;*                           D3,D3_hi,D4,D4_hi,D5,D5_hi,D6,D6_hi,D7,D7_hi,   *
     798                    ;*                           FPEXC,FPSCR                                     *
     799                    ;*   Local Frame Size  : 0 Args + 8 Auto + 4 Save = 12 byte                  *
     800                    ;*****************************************************************************
     801 0000011a           vTaskDelete:
     802                    ;* --------------------------------------------------------------------------*
     803                            .dwcfi  cfa_offset, 0
     804 0000011a B50E              PUSH      {A2, A3, A4, LR}      ; [DPU_3_PIPE]  ; [ORIG 16-BIT INS]
     805                            .dwcfi  cfa_offset, 16
     806                            .dwcfi  save_reg_to_mem, 14, -4
     807                            .dwcfi  save_reg_to_mem, 3, -8
     808                            .dwcfi  save_reg_to_mem, 2, -12
     809                            .dwcfi  save_reg_to_mem, 1, -16
     810                    $C$DW$80        .dwtag  DW_TAG_variable, DW_AT_name("xTaskToDelete")
     811                            .dwattr $C$DW$80, DW_AT_TI_symbol_name("xTaskToDelete")
     812                            .dwattr $C$DW$80, DW_AT_type(*$C$DW$T$59)
     813                            .dwattr $C$DW$80, DW_AT_location[DW_OP_breg13 0]
     814                    $C$DW$81        .dwtag  DW_TAG_variable, DW_AT_name("pxTCB")
     815                            .dwattr $C$DW$81, DW_AT_TI_symbol_name("pxTCB")
     816                            .dwattr $C$DW$81, DW_AT_type(*$C$DW$T$120)
     817                            .dwattr $C$DW$81, DW_AT_location[DW_OP_breg13 4]
     818 0000011c 9000              STR       A1, [SP, #0]          ; [DPU_3_PIPE] |745|  ; [ORIG 16-BIT INS]
     819                            .dwpsn  file "H:/EECS_690/TI_ARM_Tiva_Projects_EECS_690_Sp16/Source/tasks.c",line 748,column 3
     820                    $C$DW$82        .dwtag  DW_TAG_TI_branch
     821                            .dwattr $C$DW$82, DW_AT_low_pc(0x00)
     822                            .dwattr $C$DW$82, DW_AT_name("vPortEnterCritical")
     823                            .dwattr $C$DW$82, DW_AT_TI_call
     824 0000011e FFFEF7FF!         BL        vPortEnterCritical    ; [DPU_3_PIPE] |748|  ; [KEEP 32-BIT INS]
     825                            ; CALL OCCURS {vPortEnterCritical }  ; [] |748| 
TI ARM Assembler PC v5.2.2 Thu Mar 10 16:27:04 2016

Tools Copyright (c) 1996-2015 Texas Instruments Incorporated
tasks.asm                                                            PAGE   16

     826                            .dwpsn  file "H:/EECS_690/TI_ARM_Tiva_Projects_EECS_690_Sp16/Source/tasks.c",line 752,column 4
     827 00000122 9800              LDR       A1, [SP, #0]          ; [DPU_3_PIPE] |752|  ; [ORIG 16-BIT INS]
     828 00000124 B910              CBNZ      A1, ||$C$L7||         ; []  ; [ORIG 16-BIT INS]
     829                            ; BRANCHCC OCCURS {||$C$L7||}    ; [] |752| 
     830                    ;* --------------------------------------------------------------------------*
     831 00000126 486F              LDR       A1, $C$CON2           ; [DPU_3_PIPE] |752|  ; [ORIG 16-BIT INS]
     832 00000128 6800              LDR       A1, [A1, #0]          ; [DPU_3_PIPE] |752|  ; [ORIG 16-BIT INS]
     833 0000012a E000              B         ||$C$L8||             ; [DPU_3_PIPE] |752|  ; [ORIG 16-BIT INS]
     834                            ; BRANCH OCCURS {||$C$L8||}      ; [] |752| 
     835                    ;* --------------------------------------------------------------------------*
     836 0000012c           ||$C$L7||:    
     837 0000012c 9800              LDR       A1, [SP, #0]          ; [DPU_3_PIPE] |752|  ; [ORIG 16-BIT INS]
     838                    ;* --------------------------------------------------------------------------*
     839 0000012e           ||$C$L8||:    
     840 0000012e 9001              STR       A1, [SP, #4]          ; [DPU_3_PIPE] |752|  ; [ORIG 16-BIT INS]
     841                            .dwpsn  file "H:/EECS_690/TI_ARM_Tiva_Projects_EECS_690_Sp16/Source/tasks.c",line 758,column 4
     842 00000130 9801              LDR       A1, [SP, #4]          ; [DPU_3_PIPE] |758|  ; [ORIG 16-BIT INS]
     843 00000132 1D00              ADDS      A1, A1, #4            ; [DPU_3_PIPE] |758|  ; [ORIG 16-BIT INS]
     844                    $C$DW$83        .dwtag  DW_TAG_TI_branch
     845                            .dwattr $C$DW$83, DW_AT_low_pc(0x00)
     846                            .dwattr $C$DW$83, DW_AT_name("uxListRemove")
     847                            .dwattr $C$DW$83, DW_AT_TI_call
     848 00000134 FFFEF7FF!         BL        uxListRemove          ; [DPU_3_PIPE] |758|  ; [KEEP 32-BIT INS]
     849                            ; CALL OCCURS {uxListRemove }    ; [] |758| 
     850 00000138 B978              CBNZ      A1, ||$C$L9||         ; []  ; [ORIG 16-BIT INS]
     851                            ; BRANCHCC OCCURS {||$C$L9||}    ; [] |758| 
     852                    ;* --------------------------------------------------------------------------*
     853                            .dwpsn  file "H:/EECS_690/TI_ARM_Tiva_Projects_EECS_690_Sp16/Source/tasks.c",line 760,column 5
     854 0000013a 9801              LDR       A1, [SP, #4]          ; [DPU_3_PIPE] |760|  ; [ORIG 16-BIT INS]
     855 0000013c 497C              LDR       A2, $C$CON6           ; [DPU_3_PIPE] |760|  ; [ORIG 16-BIT INS]
     856 0000013e 6AC2              LDR       A3, [A1, #44]         ; [DPU_3_PIPE] |760|  ; [ORIG 16-BIT INS]
     857 00000140 0090              LSLS      A1, A3, #2            ; [DPU_3_PIPE] |760|  ; [ORIG 16-BIT INS]
     858 00000142 1002EB00          ADD       A1, A1, A3, LSL #4    ; [DPU_3_PIPE] |760|  ; [KEEP 32-BIT INS]
     859 00000146 5808              LDR       A1, [A2, +A1]         ; [DPU_3_PIPE] |760|  ; [ORIG 16-BIT INS]
     860 00000148 B938              CBNZ      A1, ||$C$L9||         ; []  ; [ORIG 16-BIT INS]
     861                            ; BRANCHCC OCCURS {||$C$L9||}    ; [] |760| 
     862                    ;* --------------------------------------------------------------------------*
     863 0000014a 9801              LDR       A1, [SP, #4]          ; [DPU_3_PIPE] |760|  ; [ORIG 16-BIT INS]
     864 0000014c 4A77              LDR       A3, $C$CON5           ; [DPU_3_PIPE] |760|  ; [ORIG 16-BIT INS]
     865 0000014e 6AC3              LDR       A4, [A1, #44]         ; [DPU_3_PIPE] |760|  ; [ORIG 16-BIT INS]
     866 00000150 6811              LDR       A2, [A3, #0]          ; [DPU_3_PIPE] |760|  ; [ORIG 16-BIT INS]
     867 00000152 2001              MOVS      A1, #1                ; [DPU_3_PIPE] |760|  ; [ORIG 16-BIT INS]
     868 00000154 4098              LSLS      A1, A1, A4            ; [DPU_3_PIPE] |760|  ; [ORIG 16-BIT INS]
     869 00000156 4381              BICS      A2, A2, A1            ; [DPU_3_PIPE] |760|  ; [ORIG 16-BIT INS]
     870 00000158 6011              STR       A2, [A3, #0]          ; [DPU_3_PIPE] |760|  ; [ORIG 16-BIT INS]
     871                            .dwpsn  file "H:/EECS_690/TI_ARM_Tiva_Projects_EECS_690_Sp16/Source/tasks.c",line 761,column 4
     872                    ;* --------------------------------------------------------------------------*
     873 0000015a           ||$C$L9||:    
     874                            .dwpsn  file "H:/EECS_690/TI_ARM_Tiva_Projects_EECS_690_Sp16/Source/tasks.c",line 768,column 4
     875 0000015a 9801              LDR       A1, [SP, #4]          ; [DPU_3_PIPE] |768|  ; [ORIG 16-BIT INS]
     876 0000015c 6A80              LDR       A1, [A1, #40]         ; [DPU_3_PIPE] |768|  ; [ORIG 16-BIT INS]
     877 0000015e B118              CBZ       A1, ||$C$L10||        ; []  ; [ORIG 16-BIT INS]
     878                            ; BRANCHCC OCCURS {||$C$L10||}   ; [] |768| 
     879                    ;* --------------------------------------------------------------------------*
     880                            .dwpsn  file "H:/EECS_690/TI_ARM_Tiva_Projects_EECS_690_Sp16/Source/tasks.c",line 770,column 5
TI ARM Assembler PC v5.2.2 Thu Mar 10 16:27:04 2016

Tools Copyright (c) 1996-2015 Texas Instruments Incorporated
tasks.asm                                                            PAGE   17

     881 00000160 9801              LDR       A1, [SP, #4]          ; [DPU_3_PIPE] |770|  ; [ORIG 16-BIT INS]
     882 00000162 3018              ADDS      A1, A1, #24           ; [DPU_3_PIPE] |770|  ; [ORIG 16-BIT INS]
     883                    $C$DW$84        .dwtag  DW_TAG_TI_branch
     884                            .dwattr $C$DW$84, DW_AT_low_pc(0x00)
     885                            .dwattr $C$DW$84, DW_AT_name("uxListRemove")
     886                            .dwattr $C$DW$84, DW_AT_TI_call
     887 00000164 FFFEF7FF!         BL        uxListRemove          ; [DPU_3_PIPE] |770|  ; [KEEP 32-BIT INS]
     888                            ; CALL OCCURS {uxListRemove }    ; [] |770| 
     889                            .dwpsn  file "H:/EECS_690/TI_ARM_Tiva_Projects_EECS_690_Sp16/Source/tasks.c",line 771,column 4
     890                    ;* --------------------------------------------------------------------------*
     891 00000168           ||$C$L10||:    
     892                            .dwpsn  file "H:/EECS_690/TI_ARM_Tiva_Projects_EECS_690_Sp16/Source/tasks.c",line 777,column 4
     893 00000168 9901              LDR       A2, [SP, #4]          ; [DPU_3_PIPE] |777|  ; [ORIG 16-BIT INS]
     894 0000016a 4873              LDR       A1, $C$CON8           ; [DPU_3_PIPE] |777|  ; [ORIG 16-BIT INS]
     895 0000016c 1D09              ADDS      A2, A2, #4            ; [DPU_3_PIPE] |777|  ; [ORIG 16-BIT INS]
     896                    $C$DW$85        .dwtag  DW_TAG_TI_branch
     897                            .dwattr $C$DW$85, DW_AT_low_pc(0x00)
     898                            .dwattr $C$DW$85, DW_AT_name("vListInsertEnd")
     899                            .dwattr $C$DW$85, DW_AT_TI_call
     900 0000016e FFFEF7FF!         BL        vListInsertEnd        ; [DPU_3_PIPE] |777|  ; [KEEP 32-BIT INS]
     901                            ; CALL OCCURS {vListInsertEnd }  ; [] |777| 
     902                            .dwpsn  file "H:/EECS_690/TI_ARM_Tiva_Projects_EECS_690_Sp16/Source/tasks.c",line 782,column 4
     903 00000172 4972              LDR       A2, $C$CON9           ; [DPU_3_PIPE] |782|  ; [ORIG 16-BIT INS]
     904 00000174 6808              LDR       A1, [A2, #0]          ; [DPU_3_PIPE] |782|  ; [ORIG 16-BIT INS]
     905 00000176 1C40              ADDS      A1, A1, #1            ; [DPU_3_PIPE] |782|  ; [ORIG 16-BIT INS]
     906 00000178 6008              STR       A1, [A2, #0]          ; [DPU_3_PIPE] |782|  ; [ORIG 16-BIT INS]
     907                            .dwpsn  file "H:/EECS_690/TI_ARM_Tiva_Projects_EECS_690_Sp16/Source/tasks.c",line 786,column 4
     908 0000017a 496B              LDR       A2, $C$CON4           ; [DPU_3_PIPE] |786|  ; [ORIG 16-BIT INS]
     909 0000017c 6808              LDR       A1, [A2, #0]          ; [DPU_3_PIPE] |786|  ; [ORIG 16-BIT INS]
     910 0000017e 1C40              ADDS      A1, A1, #1            ; [DPU_3_PIPE] |786|  ; [ORIG 16-BIT INS]
     911 00000180 6008              STR       A1, [A2, #0]          ; [DPU_3_PIPE] |786|  ; [ORIG 16-BIT INS]
     912                            .dwpsn  file "H:/EECS_690/TI_ARM_Tiva_Projects_EECS_690_Sp16/Source/tasks.c",line 790,column 3
     913                    $C$DW$86        .dwtag  DW_TAG_TI_branch
     914                            .dwattr $C$DW$86, DW_AT_low_pc(0x00)
     915                            .dwattr $C$DW$86, DW_AT_name("vPortExitCritical")
     916                            .dwattr $C$DW$86, DW_AT_TI_call
     917 00000182 FFFEF7FF!         BL        vPortExitCritical     ; [DPU_3_PIPE] |790|  ; [KEEP 32-BIT INS]
     918                            ; CALL OCCURS {vPortExitCritical }  ; [] |790| 
     919                            .dwpsn  file "H:/EECS_690/TI_ARM_Tiva_Projects_EECS_690_Sp16/Source/tasks.c",line 794,column 3
     920 00000186 4858              LDR       A1, $C$CON3           ; [DPU_3_PIPE] |794|  ; [ORIG 16-BIT INS]
     921 00000188 6800              LDR       A1, [A1, #0]          ; [DPU_3_PIPE] |794|  ; [ORIG 16-BIT INS]
     922 0000018a B198              CBZ       A1, ||$C$L12||        ; []  ; [ORIG 16-BIT INS]
     923                            ; BRANCHCC OCCURS {||$C$L12||}   ; [] |794| 
     924                    ;* --------------------------------------------------------------------------*
     925                            .dwpsn  file "H:/EECS_690/TI_ARM_Tiva_Projects_EECS_690_Sp16/Source/tasks.c",line 796,column 4
     926 0000018c 4855              LDR       A1, $C$CON2           ; [DPU_3_PIPE] |796|  ; [ORIG 16-BIT INS]
     927 0000018e 9901              LDR       A2, [SP, #4]          ; [DPU_3_PIPE] |796|  ; [ORIG 16-BIT INS]
     928 00000190 6800              LDR       A1, [A1, #0]          ; [DPU_3_PIPE] |796|  ; [ORIG 16-BIT INS]
     929 00000192 4288              CMP       A1, A2                ; [DPU_3_PIPE] |796|  ; [ORIG 16-BIT INS]
     930 00000194 D108              BNE       ||$C$L11||            ; [DPU_3_PIPE] |796|  ; [ORIG 16-BIT INS]
     931                            ; BRANCHCC OCCURS {||$C$L11||}   ; [] |796| 
     932                    ;* --------------------------------------------------------------------------*
     933                            .dwpsn  file "H:/EECS_690/TI_ARM_Tiva_Projects_EECS_690_Sp16/Source/tasks.c",line 806,column 5
     934 00000196 4967              LDR       A2, $C$CON7           ; [DPU_3_PIPE] |806|  ; [ORIG 16-BIT INS]
     935 00000198 5080F04F          MOV       A1, #268435456        ; [DPU_3_PIPE] |806|  ; [KEEP 32-BIT INS]
TI ARM Assembler PC v5.2.2 Thu Mar 10 16:27:04 2016

Tools Copyright (c) 1996-2015 Texas Instruments Incorporated
tasks.asm                                                            PAGE   18

     936 0000019c 6008              STR       A1, [A2, #0]          ; [DPU_3_PIPE] |806|  ; [ORIG 16-BIT INS]
     937 0000019e 8F4FF3BF          dsb ; [KEEP 32-BIT INS]
     938 000001a2 8F6FF3BF          isb ; [KEEP 32-BIT INS]
     939                            .dwpsn  file "H:/EECS_690/TI_ARM_Tiva_Projects_EECS_690_Sp16/Source/tasks.c",line 807,column 4
     940 000001a6 E005              B         ||$C$L12||            ; [DPU_3_PIPE] |807|  ; [ORIG 16-BIT INS]
     941                            ; BRANCH OCCURS {||$C$L12||}     ; [] |807| 
     942                    ;* --------------------------------------------------------------------------*
     943 000001a8           ||$C$L11||:    
     944                            .dwpsn  file "H:/EECS_690/TI_ARM_Tiva_Projects_EECS_690_Sp16/Source/tasks.c",line 812,column 5
     945                    $C$DW$87        .dwtag  DW_TAG_TI_branch
     946                            .dwattr $C$DW$87, DW_AT_low_pc(0x00)
     947                            .dwattr $C$DW$87, DW_AT_name("vPortEnterCritical")
     948                            .dwattr $C$DW$87, DW_AT_TI_call
     949 000001a8 FFFEF7FF!         BL        vPortEnterCritical    ; [DPU_3_PIPE] |812|  ; [KEEP 32-BIT INS]
     950                            ; CALL OCCURS {vPortEnterCritical }  ; [] |812| 
     951                            .dwpsn  file "H:/EECS_690/TI_ARM_Tiva_Projects_EECS_690_Sp16/Source/tasks.c",line 814,column 6
     952                    $C$DW$88        .dwtag  DW_TAG_TI_branch
     953                            .dwattr $C$DW$88, DW_AT_low_pc(0x00)
     954                            .dwattr $C$DW$88, DW_AT_name("prvResetNextTaskUnblockTime")
     955                            .dwattr $C$DW$88, DW_AT_TI_call
     956 000001ac FFB0F000          BL        prvResetNextTaskUnblockTime ; [DPU_3_PIPE] |814|  ; [KEEP 32-BIT INS]
     957                            ; CALL OCCURS {prvResetNextTaskUnblockTime }  ; [] |814| 
     958                            .dwpsn  file "H:/EECS_690/TI_ARM_Tiva_Projects_EECS_690_Sp16/Source/tasks.c",line 816,column 5
     959                    $C$DW$89        .dwtag  DW_TAG_TI_branch
     960                            .dwattr $C$DW$89, DW_AT_low_pc(0x00)
     961                            .dwattr $C$DW$89, DW_AT_name("vPortExitCritical")
     962                            .dwattr $C$DW$89, DW_AT_TI_call
     963 000001b0 FFFEF7FF!         BL        vPortExitCritical     ; [DPU_3_PIPE] |816|  ; [KEEP 32-BIT INS]
     964                            ; CALL OCCURS {vPortExitCritical }  ; [] |816| 
     965                            .dwpsn  file "H:/EECS_690/TI_ARM_Tiva_Projects_EECS_690_Sp16/Source/tasks.c",line 819,column 2
     966                    ;* --------------------------------------------------------------------------*
     967                    ||$C$L12||:    
     968                    $C$DW$90        .dwtag  DW_TAG_TI_branch
     969                            .dwattr $C$DW$90, DW_AT_low_pc(0x00)
     970                            .dwattr $C$DW$90, DW_AT_TI_return
     971 000001b4 BD0E              POP       {A2, A3, A4, PC}      ; [DPU_3_PIPE]  ; [ORIG 16-BIT INS]
     972                            .dwcfi  cfa_offset, 0
     973                            ; BRANCH OCCURS                  ; [] 
     974                            .dwattr $C$DW$78, DW_AT_TI_end_file("H:/EECS_690/TI_ARM_Tiva_Projects_EECS_690_Sp16/Source/tas
     975                            .dwattr $C$DW$78, DW_AT_TI_end_line(0x333)
     976                            .dwattr $C$DW$78, DW_AT_TI_end_column(0x02)
     977                            .dwendentry
     978                            .dwendtag $C$DW$78
     979                    
     980 000001b6                   .sect   ".text"
     981                            .clink
     982                            .thumbfunc vTaskDelayUntil
     983 000001b6                   .thumb
     984                            .global vTaskDelayUntil
     985                    
     986                    $C$DW$91        .dwtag  DW_TAG_subprogram, DW_AT_name("vTaskDelayUntil")
     987                            .dwattr $C$DW$91, DW_AT_low_pc(vTaskDelayUntil)
     988                            .dwattr $C$DW$91, DW_AT_high_pc(0x00)
     989                            .dwattr $C$DW$91, DW_AT_TI_symbol_name("vTaskDelayUntil")
     990                            .dwattr $C$DW$91, DW_AT_external
TI ARM Assembler PC v5.2.2 Thu Mar 10 16:27:04 2016

Tools Copyright (c) 1996-2015 Texas Instruments Incorporated
tasks.asm                                                            PAGE   19

     991                            .dwattr $C$DW$91, DW_AT_TI_begin_file("H:/EECS_690/TI_ARM_Tiva_Projects_EECS_690_Sp16/Source/t
     992                            .dwattr $C$DW$91, DW_AT_TI_begin_line(0x33a)
     993                            .dwattr $C$DW$91, DW_AT_TI_begin_column(0x07)
     994                            .dwattr $C$DW$91, DW_AT_decl_file("H:/EECS_690/TI_ARM_Tiva_Projects_EECS_690_Sp16/Source/tasks
     995                            .dwattr $C$DW$91, DW_AT_decl_line(0x33a)
     996                            .dwattr $C$DW$91, DW_AT_decl_column(0x07)
     997                            .dwattr $C$DW$91, DW_AT_TI_max_frame_size(0x20)
     998                            .dwpsn  file "H:/EECS_690/TI_ARM_Tiva_Projects_EECS_690_Sp16/Source/tasks.c",line 827,column 2
     999                    
    1000                            .dwfde $C$DW$CIE, vTaskDelayUntil
    1001                    $C$DW$92        .dwtag  DW_TAG_formal_parameter, DW_AT_name("pxPreviousWakeTime")
    1002                            .dwattr $C$DW$92, DW_AT_TI_symbol_name("pxPreviousWakeTime")
    1003                            .dwattr $C$DW$92, DW_AT_type(*$C$DW$T$101)
    1004                            .dwattr $C$DW$92, DW_AT_location[DW_OP_reg0]
    1005                    $C$DW$93        .dwtag  DW_TAG_formal_parameter, DW_AT_name("xTimeIncrement")
    1006                            .dwattr $C$DW$93, DW_AT_TI_symbol_name("xTimeIncrement")
    1007                            .dwattr $C$DW$93, DW_AT_type(*$C$DW$T$102)
    1008                            .dwattr $C$DW$93, DW_AT_location[DW_OP_reg1]
    1009                    
    1010                    ;*****************************************************************************
    1011                    ;* FUNCTION NAME: vTaskDelayUntil                                            *
    1012                    ;*                                                                           *
    1013                    ;*   Regs Modified     : A1,A2,A3,A4,V9,SP,LR,SR,D0,D0_hi,D1,D1_hi,D2,D2_hi, *
    1014                    ;*                           D3,D3_hi,D4,D4_hi,D5,D5_hi,D6,D6_hi,D7,D7_hi,   *
    1015                    ;*                           FPEXC,FPSCR                                     *
    1016                    ;*   Regs Used         : A1,A2,A3,A4,V9,SP,LR,SR,D0,D0_hi,D1,D1_hi,D2,D2_hi, *
    1017                    ;*                           D3,D3_hi,D4,D4_hi,D5,D5_hi,D6,D6_hi,D7,D7_hi,   *
    1018                    ;*                           FPEXC,FPSCR                                     *
    1019                    ;*   Local Frame Size  : 0 Args + 24 Auto + 4 Save = 28 byte                 *
    1020                    ;*****************************************************************************
    1021 000001b6           vTaskDelayUntil:
    1022                    ;* --------------------------------------------------------------------------*
    1023                            .dwcfi  cfa_offset, 0
    1024 000001b6 B500              PUSH      {LR}                  ; [DPU_3_PIPE]  ; [ORIG 16-BIT INS]
    1025                            .dwcfi  cfa_offset, 4
    1026                            .dwcfi  save_reg_to_mem, 14, -4
    1027 000001b8 0D1CF1AD          SUB       SP, SP, #28           ; [DPU_3_PIPE]  ; [KEEP 32-BIT INS]
    1028                            .dwcfi  cfa_offset, 32
    1029                    $C$DW$94        .dwtag  DW_TAG_variable, DW_AT_name("pxPreviousWakeTime")
    1030                            .dwattr $C$DW$94, DW_AT_TI_symbol_name("pxPreviousWakeTime")
    1031                            .dwattr $C$DW$94, DW_AT_type(*$C$DW$T$101)
    1032                            .dwattr $C$DW$94, DW_AT_location[DW_OP_breg13 0]
    1033                    $C$DW$95        .dwtag  DW_TAG_variable, DW_AT_name("xTimeIncrement")
    1034                            .dwattr $C$DW$95, DW_AT_TI_symbol_name("xTimeIncrement")
    1035                            .dwattr $C$DW$95, DW_AT_type(*$C$DW$T$102)
    1036                            .dwattr $C$DW$95, DW_AT_location[DW_OP_breg13 4]
    1037                    $C$DW$96        .dwtag  DW_TAG_variable, DW_AT_name("xTimeToWake")
    1038                            .dwattr $C$DW$96, DW_AT_TI_symbol_name("xTimeToWake")
    1039                            .dwattr $C$DW$96, DW_AT_type(*$C$DW$T$44)
    1040                            .dwattr $C$DW$96, DW_AT_location[DW_OP_breg13 8]
    1041                    $C$DW$97        .dwtag  DW_TAG_variable, DW_AT_name("xAlreadyYielded")
    1042                            .dwattr $C$DW$97, DW_AT_TI_symbol_name("xAlreadyYielded")
    1043                            .dwattr $C$DW$97, DW_AT_type(*$C$DW$T$64)
    1044                            .dwattr $C$DW$97, DW_AT_location[DW_OP_breg13 12]
    1045                    $C$DW$98        .dwtag  DW_TAG_variable, DW_AT_name("xShouldDelay")
TI ARM Assembler PC v5.2.2 Thu Mar 10 16:27:04 2016

Tools Copyright (c) 1996-2015 Texas Instruments Incorporated
tasks.asm                                                            PAGE   20

    1046                            .dwattr $C$DW$98, DW_AT_TI_symbol_name("xShouldDelay")
    1047                            .dwattr $C$DW$98, DW_AT_type(*$C$DW$T$64)
    1048                            .dwattr $C$DW$98, DW_AT_location[DW_OP_breg13 16]
    1049 000001bc 9101              STR       A2, [SP, #4]          ; [DPU_3_PIPE] |827|  ; [ORIG 16-BIT INS]
    1050 000001be 9000              STR       A1, [SP, #0]          ; [DPU_3_PIPE] |827|  ; [ORIG 16-BIT INS]
    1051                            .dwpsn  file "H:/EECS_690/TI_ARM_Tiva_Projects_EECS_690_Sp16/Source/tasks.c",line 829,column 4
    1052 000001c0 2000              MOVS      A1, #0                ; [DPU_3_PIPE] |829|  ; [ORIG 16-BIT INS]
    1053 000001c2 9004              STR       A1, [SP, #16]         ; [DPU_3_PIPE] |829|  ; [ORIG 16-BIT INS]
    1054                            .dwpsn  file "H:/EECS_690/TI_ARM_Tiva_Projects_EECS_690_Sp16/Source/tasks.c",line 835,column 3
    1055                    $C$DW$99        .dwtag  DW_TAG_TI_branch
    1056                            .dwattr $C$DW$99, DW_AT_low_pc(0x00)
    1057                            .dwattr $C$DW$99, DW_AT_name("vTaskSuspendAll")
    1058                            .dwattr $C$DW$99, DW_AT_TI_call
    1059 000001c4 FA8CF000          BL        vTaskSuspendAll       ; [DPU_3_PIPE] |835|  ; [KEEP 32-BIT INS]
    1060                            ; CALL OCCURS {vTaskSuspendAll }  ; [] |835| 
    1061                    
    1062                    $C$DW$100       .dwtag  DW_TAG_lexical_block, DW_AT_low_pc(0x00), DW_AT_high_pc(0x00)
    1063                    $C$DW$101       .dwtag  DW_TAG_variable, DW_AT_name("xConstTickCount")
    1064                            .dwattr $C$DW$101, DW_AT_TI_symbol_name("xConstTickCount")
    1065                            .dwattr $C$DW$101, DW_AT_type(*$C$DW$T$102)
    1066                            .dwattr $C$DW$101, DW_AT_location[DW_OP_breg13 20]
    1067                            .dwpsn  file "H:/EECS_690/TI_ARM_Tiva_Projects_EECS_690_Sp16/Source/tasks.c",line 839,column 3
    1068 000001c8 48A1              LDR       A1, $C$CON10          ; [DPU_3_PIPE] |839|  ; [ORIG 16-BIT INS]
    1069 000001ca 6800              LDR       A1, [A1, #0]          ; [DPU_3_PIPE] |839|  ; [ORIG 16-BIT INS]
    1070 000001cc 9005              STR       A1, [SP, #20]         ; [DPU_3_PIPE] |839|  ; [ORIG 16-BIT INS]
    1071                            .dwpsn  file "H:/EECS_690/TI_ARM_Tiva_Projects_EECS_690_Sp16/Source/tasks.c",line 842,column 4
    1072 000001ce 9900              LDR       A2, [SP, #0]          ; [DPU_3_PIPE] |842|  ; [ORIG 16-BIT INS]
    1073 000001d0 9801              LDR       A1, [SP, #4]          ; [DPU_3_PIPE] |842|  ; [ORIG 16-BIT INS]
    1074 000001d2 6809              LDR       A2, [A2, #0]          ; [DPU_3_PIPE] |842|  ; [ORIG 16-BIT INS]
    1075 000001d4 1840              ADDS      A1, A1, A2            ; [DPU_3_PIPE] |842|  ; [ORIG 16-BIT INS]
    1076 000001d6 9002              STR       A1, [SP, #8]          ; [DPU_3_PIPE] |842|  ; [ORIG 16-BIT INS]
    1077                            .dwpsn  file "H:/EECS_690/TI_ARM_Tiva_Projects_EECS_690_Sp16/Source/tasks.c",line 844,column 4
    1078 000001d8 9800              LDR       A1, [SP, #0]          ; [DPU_3_PIPE] |844|  ; [ORIG 16-BIT INS]
    1079 000001da 9905              LDR       A2, [SP, #20]         ; [DPU_3_PIPE] |844|  ; [ORIG 16-BIT INS]
    1080 000001dc 6800              LDR       A1, [A1, #0]          ; [DPU_3_PIPE] |844|  ; [ORIG 16-BIT INS]
    1081 000001de 4288              CMP       A1, A2                ; [DPU_3_PIPE] |844|  ; [ORIG 16-BIT INS]
    1082 000001e0 D90B              BLS       ||$C$L13||            ; [DPU_3_PIPE] |844|  ; [ORIG 16-BIT INS]
    1083                            ; BRANCHCC OCCURS {||$C$L13||}   ; [] |844| 
    1084                    ;* --------------------------------------------------------------------------*
    1085                            .dwpsn  file "H:/EECS_690/TI_ARM_Tiva_Projects_EECS_690_Sp16/Source/tasks.c",line 851,column 5
    1086 000001e2 9800              LDR       A1, [SP, #0]          ; [DPU_3_PIPE] |851|  ; [ORIG 16-BIT INS]
    1087 000001e4 9902              LDR       A2, [SP, #8]          ; [DPU_3_PIPE] |851|  ; [ORIG 16-BIT INS]
    1088 000001e6 6800              LDR       A1, [A1, #0]          ; [DPU_3_PIPE] |851|  ; [ORIG 16-BIT INS]
    1089 000001e8 4288              CMP       A1, A2                ; [DPU_3_PIPE] |851|  ; [ORIG 16-BIT INS]
    1090 000001ea D911              BLS       ||$C$L15||            ; [DPU_3_PIPE] |851|  ; [ORIG 16-BIT INS]
    1091                            ; BRANCHCC OCCURS {||$C$L15||}   ; [] |851| 
    1092                    ;* --------------------------------------------------------------------------*
    1093 000001ec 9805              LDR       A1, [SP, #20]         ; [DPU_3_PIPE] |851|  ; [ORIG 16-BIT INS]
    1094 000001ee 9902              LDR       A2, [SP, #8]          ; [DPU_3_PIPE] |851|  ; [ORIG 16-BIT INS]
    1095 000001f0 4288              CMP       A1, A2                ; [DPU_3_PIPE] |851|  ; [ORIG 16-BIT INS]
    1096 000001f2 D20D              BCS       ||$C$L15||            ; [DPU_3_PIPE] |851|  ; [ORIG 16-BIT INS]
    1097                            ; BRANCHCC OCCURS {||$C$L15||}   ; [] |851| 
    1098                    ;* --------------------------------------------------------------------------*
    1099                            .dwpsn  file "H:/EECS_690/TI_ARM_Tiva_Projects_EECS_690_Sp16/Source/tasks.c",line 853,column 6
    1100 000001f4 2001              MOVS      A1, #1                ; [DPU_3_PIPE] |853|  ; [ORIG 16-BIT INS]
TI ARM Assembler PC v5.2.2 Thu Mar 10 16:27:04 2016

Tools Copyright (c) 1996-2015 Texas Instruments Incorporated
tasks.asm                                                            PAGE   21

    1101 000001f6 9004              STR       A1, [SP, #16]         ; [DPU_3_PIPE] |853|  ; [ORIG 16-BIT INS]
    1102                            .dwpsn  file "H:/EECS_690/TI_ARM_Tiva_Projects_EECS_690_Sp16/Source/tasks.c",line 854,column 5
    1103 000001f8 E00A              B         ||$C$L15||            ; [DPU_3_PIPE] |854|  ; [ORIG 16-BIT INS]
    1104                            ; BRANCH OCCURS {||$C$L15||}     ; [] |854| 
    1105                    ;* --------------------------------------------------------------------------*
    1106                    ;* --------------------------------------------------------------------------*
    1107 000001fa           ||$C$L13||:    
    1108                            .dwpsn  file "H:/EECS_690/TI_ARM_Tiva_Projects_EECS_690_Sp16/Source/tasks.c",line 865,column 5
    1109 000001fa 9800              LDR       A1, [SP, #0]          ; [DPU_3_PIPE] |865|  ; [ORIG 16-BIT INS]
    1110 000001fc 9902              LDR       A2, [SP, #8]          ; [DPU_3_PIPE] |865|  ; [ORIG 16-BIT INS]
    1111 000001fe 6800              LDR       A1, [A1, #0]          ; [DPU_3_PIPE] |865|  ; [ORIG 16-BIT INS]
    1112 00000200 4288              CMP       A1, A2                ; [DPU_3_PIPE] |865|  ; [ORIG 16-BIT INS]
    1113 00000202 D803              BHI       ||$C$L14||            ; [DPU_3_PIPE] |865|  ; [ORIG 16-BIT INS]
    1114                            ; BRANCHCC OCCURS {||$C$L14||}   ; [] |865| 
    1115                    ;* --------------------------------------------------------------------------*
    1116 00000204 9805              LDR       A1, [SP, #20]         ; [DPU_3_PIPE] |865|  ; [ORIG 16-BIT INS]
    1117 00000206 9902              LDR       A2, [SP, #8]          ; [DPU_3_PIPE] |865|  ; [ORIG 16-BIT INS]
    1118 00000208 4288              CMP       A1, A2                ; [DPU_3_PIPE] |865|  ; [ORIG 16-BIT INS]
    1119 0000020a D201              BCS       ||$C$L15||            ; [DPU_3_PIPE] |865|  ; [ORIG 16-BIT INS]
    1120                            ; BRANCHCC OCCURS {||$C$L15||}   ; [] |865| 
    1121                    ;* --------------------------------------------------------------------------*
    1122 0000020c           ||$C$L14||:    
    1123                            .dwpsn  file "H:/EECS_690/TI_ARM_Tiva_Projects_EECS_690_Sp16/Source/tasks.c",line 867,column 6
    1124 0000020c 2001              MOVS      A1, #1                ; [DPU_3_PIPE] |867|  ; [ORIG 16-BIT INS]
    1125 0000020e 9004              STR       A1, [SP, #16]         ; [DPU_3_PIPE] |867|  ; [ORIG 16-BIT INS]
    1126                            .dwpsn  file "H:/EECS_690/TI_ARM_Tiva_Projects_EECS_690_Sp16/Source/tasks.c",line 868,column 5
    1127                    ;* --------------------------------------------------------------------------*
    1128 00000210           ||$C$L15||:    
    1129                            .dwpsn  file "H:/EECS_690/TI_ARM_Tiva_Projects_EECS_690_Sp16/Source/tasks.c",line 876,column 4
    1130 00000210 9802              LDR       A1, [SP, #8]          ; [DPU_3_PIPE] |876|  ; [ORIG 16-BIT INS]
    1131 00000212 9900              LDR       A2, [SP, #0]          ; [DPU_3_PIPE] |876|  ; [ORIG 16-BIT INS]
    1132 00000214 6008              STR       A1, [A2, #0]          ; [DPU_3_PIPE] |876|  ; [ORIG 16-BIT INS]
    1133                            .dwpsn  file "H:/EECS_690/TI_ARM_Tiva_Projects_EECS_690_Sp16/Source/tasks.c",line 878,column 4
    1134 00000216 9804              LDR       A1, [SP, #16]         ; [DPU_3_PIPE] |878|  ; [ORIG 16-BIT INS]
    1135 00000218 B188              CBZ       A1, ||$C$L17||        ; []  ; [ORIG 16-BIT INS]
    1136                            ; BRANCHCC OCCURS {||$C$L17||}   ; [] |878| 
    1137                    ;* --------------------------------------------------------------------------*
    1138                            .dwpsn  file "H:/EECS_690/TI_ARM_Tiva_Projects_EECS_690_Sp16/Source/tasks.c",line 884,column 5
    1139 0000021a 4832              LDR       A1, $C$CON2           ; [DPU_3_PIPE] |884|  ; [ORIG 16-BIT INS]
    1140 0000021c 6800              LDR       A1, [A1, #0]          ; [DPU_3_PIPE] |884|  ; [ORIG 16-BIT INS]
    1141 0000021e 1D00              ADDS      A1, A1, #4            ; [DPU_3_PIPE] |884|  ; [ORIG 16-BIT INS]
    1142                    $C$DW$102       .dwtag  DW_TAG_TI_branch
    1143                            .dwattr $C$DW$102, DW_AT_low_pc(0x00)
    1144                            .dwattr $C$DW$102, DW_AT_name("uxListRemove")
    1145                            .dwattr $C$DW$102, DW_AT_TI_call
    1146 00000220 FFFEF7FF!         BL        uxListRemove          ; [DPU_3_PIPE] |884|  ; [KEEP 32-BIT INS]
    1147                            ; CALL OCCURS {uxListRemove }    ; [] |884| 
    1148 00000224 B940              CBNZ      A1, ||$C$L16||        ; []  ; [ORIG 16-BIT INS]
    1149                            ; BRANCHCC OCCURS {||$C$L16||}   ; [] |884| 
    1150                    ;* --------------------------------------------------------------------------*
    1151                            .dwpsn  file "H:/EECS_690/TI_ARM_Tiva_Projects_EECS_690_Sp16/Source/tasks.c",line 889,column 6
    1152 00000226 482F              LDR       A1, $C$CON2           ; [DPU_3_PIPE] |889|  ; [ORIG 16-BIT INS]
    1153 00000228 6800              LDR       A1, [A1, #0]          ; [DPU_3_PIPE] |889|  ; [ORIG 16-BIT INS]
    1154 0000022a 4A40              LDR       A3, $C$CON5           ; [DPU_3_PIPE] |889|  ; [ORIG 16-BIT INS]
    1155 0000022c 6AC3              LDR       A4, [A1, #44]         ; [DPU_3_PIPE] |889|  ; [ORIG 16-BIT INS]
TI ARM Assembler PC v5.2.2 Thu Mar 10 16:27:04 2016

Tools Copyright (c) 1996-2015 Texas Instruments Incorporated
tasks.asm                                                            PAGE   22

    1156 0000022e 6811              LDR       A2, [A3, #0]          ; [DPU_3_PIPE] |889|  ; [ORIG 16-BIT INS]
    1157 00000230 2001              MOVS      A1, #1                ; [DPU_3_PIPE] |889|  ; [ORIG 16-BIT INS]
    1158 00000232 4098              LSLS      A1, A1, A4            ; [DPU_3_PIPE] |889|  ; [ORIG 16-BIT INS]
    1159 00000234 4381              BICS      A2, A2, A1            ; [DPU_3_PIPE] |889|  ; [ORIG 16-BIT INS]
    1160 00000236 6011              STR       A2, [A3, #0]          ; [DPU_3_PIPE] |889|  ; [ORIG 16-BIT INS]
    1161                            .dwpsn  file "H:/EECS_690/TI_ARM_Tiva_Projects_EECS_690_Sp16/Source/tasks.c",line 890,column 5
    1162                    ;* --------------------------------------------------------------------------*
    1163 00000238           ||$C$L16||:    
    1164                            .dwpsn  file "H:/EECS_690/TI_ARM_Tiva_Projects_EECS_690_Sp16/Source/tasks.c",line 896,column 5
    1165 00000238 9802              LDR       A1, [SP, #8]          ; [DPU_3_PIPE] |896|  ; [ORIG 16-BIT INS]
    1166                    $C$DW$103       .dwtag  DW_TAG_TI_branch
    1167                            .dwattr $C$DW$103, DW_AT_low_pc(0x00)
    1168                            .dwattr $C$DW$103, DW_AT_name("prvAddCurrentTaskToDelayedList")
    1169                            .dwattr $C$DW$103, DW_AT_TI_call
    1170 0000023a FE5BF000          BL        prvAddCurrentTaskToDelayedList ; [DPU_3_PIPE] |896|  ; [KEEP 32-BIT INS]
    1171                            ; CALL OCCURS {prvAddCurrentTaskToDelayedList }  ; [] |896| 
    1172                            .dwpsn  file "H:/EECS_690/TI_ARM_Tiva_Projects_EECS_690_Sp16/Source/tasks.c",line 897,column 4
    1173                    ;* --------------------------------------------------------------------------*
    1174                    ||$C$L17||:    
    1175                            .dwendtag $C$DW$100
    1176                    
    1177                            .dwpsn  file "H:/EECS_690/TI_ARM_Tiva_Projects_EECS_690_Sp16/Source/tasks.c",line 903,column 3
    1178                    $C$DW$104       .dwtag  DW_TAG_TI_branch
    1179                            .dwattr $C$DW$104, DW_AT_low_pc(0x00)
    1180                            .dwattr $C$DW$104, DW_AT_name("xTaskResumeAll")
    1181                            .dwattr $C$DW$104, DW_AT_TI_call
    1182 0000023e FA59F000          BL        xTaskResumeAll        ; [DPU_3_PIPE] |903|  ; [KEEP 32-BIT INS]
    1183                            ; CALL OCCURS {xTaskResumeAll }  ; [] |903| 
    1184 00000242 9003              STR       A1, [SP, #12]         ; [DPU_3_PIPE] |903|  ; [ORIG 16-BIT INS]
    1185                            .dwpsn  file "H:/EECS_690/TI_ARM_Tiva_Projects_EECS_690_Sp16/Source/tasks.c",line 907,column 3
    1186 00000244 9803              LDR       A1, [SP, #12]         ; [DPU_3_PIPE] |907|  ; [ORIG 16-BIT INS]
    1187 00000246 B940              CBNZ      A1, ||$C$L18||        ; []  ; [ORIG 16-BIT INS]
    1188                            ; BRANCHCC OCCURS {||$C$L18||}   ; [] |907| 
    1189                    ;* --------------------------------------------------------------------------*
    1190                            .dwpsn  file "H:/EECS_690/TI_ARM_Tiva_Projects_EECS_690_Sp16/Source/tasks.c",line 909,column 4
    1191 00000248 493A              LDR       A2, $C$CON7           ; [DPU_3_PIPE] |909|  ; [ORIG 16-BIT INS]
    1192 0000024a 5080F04F          MOV       A1, #268435456        ; [DPU_3_PIPE] |909|  ; [KEEP 32-BIT INS]
    1193 0000024e 6008              STR       A1, [A2, #0]          ; [DPU_3_PIPE] |909|  ; [ORIG 16-BIT INS]
    1194 00000250 8F4FF3BF          dsb ; [KEEP 32-BIT INS]
    1195 00000254 8F6FF3BF          isb ; [KEEP 32-BIT INS]
    1196                            .dwpsn  file "H:/EECS_690/TI_ARM_Tiva_Projects_EECS_690_Sp16/Source/tasks.c",line 910,column 3
    1197 00000258 E7FF              B         ||$C$L18||            ; [DPU_3_PIPE] |910|  ; [ORIG 16-BIT INS]
    1198                            ; BRANCH OCCURS {||$C$L18||}     ; [] |910| 
    1199                    ;* --------------------------------------------------------------------------*
    1200                    ;* --------------------------------------------------------------------------*
    1201 0000025a           ||$C$L18||:    
    1202 0000025a B007              ADD       SP, SP, #28           ; [DPU_3_PIPE]  ; [ORIG 16-BIT INS]
    1203                            .dwcfi  cfa_offset, 4
    1204                    $C$DW$105       .dwtag  DW_TAG_TI_branch
    1205                            .dwattr $C$DW$105, DW_AT_low_pc(0x00)
    1206                            .dwattr $C$DW$105, DW_AT_TI_return
    1207 0000025c BD00              POP       {PC}                  ; [DPU_3_PIPE]  ; [ORIG 16-BIT INS]
    1208                            .dwcfi  cfa_offset, 0
    1209                            ; BRANCH OCCURS                  ; [] 
    1210                            .dwattr $C$DW$91, DW_AT_TI_end_file("H:/EECS_690/TI_ARM_Tiva_Projects_EECS_690_Sp16/Source/tas
TI ARM Assembler PC v5.2.2 Thu Mar 10 16:27:04 2016

Tools Copyright (c) 1996-2015 Texas Instruments Incorporated
tasks.asm                                                            PAGE   23

    1211                            .dwattr $C$DW$91, DW_AT_TI_end_line(0x393)
    1212                            .dwattr $C$DW$91, DW_AT_TI_end_column(0x02)
    1213                            .dwendentry
    1214                            .dwendtag $C$DW$91
    1215                    
    1216 0000025e                   .sect   ".text"
    1217                            .clink
    1218                            .thumbfunc vTaskDelay
    1219 0000025e                   .thumb
    1220                            .global vTaskDelay
    1221                    
    1222                    $C$DW$106       .dwtag  DW_TAG_subprogram, DW_AT_name("vTaskDelay")
    1223                            .dwattr $C$DW$106, DW_AT_low_pc(vTaskDelay)
    1224                            .dwattr $C$DW$106, DW_AT_high_pc(0x00)
    1225                            .dwattr $C$DW$106, DW_AT_TI_symbol_name("vTaskDelay")
    1226                            .dwattr $C$DW$106, DW_AT_external
    1227                            .dwattr $C$DW$106, DW_AT_TI_begin_file("H:/EECS_690/TI_ARM_Tiva_Projects_EECS_690_Sp16/Source/
    1228                            .dwattr $C$DW$106, DW_AT_TI_begin_line(0x39a)
    1229                            .dwattr $C$DW$106, DW_AT_TI_begin_column(0x07)
    1230                            .dwattr $C$DW$106, DW_AT_decl_file("H:/EECS_690/TI_ARM_Tiva_Projects_EECS_690_Sp16/Source/task
    1231                            .dwattr $C$DW$106, DW_AT_decl_line(0x39a)
    1232                            .dwattr $C$DW$106, DW_AT_decl_column(0x07)
    1233                            .dwattr $C$DW$106, DW_AT_TI_max_frame_size(0x10)
    1234                            .dwpsn  file "H:/EECS_690/TI_ARM_Tiva_Projects_EECS_690_Sp16/Source/tasks.c",line 923,column 2
    1235                    
    1236                            .dwfde $C$DW$CIE, vTaskDelay
    1237                    $C$DW$107       .dwtag  DW_TAG_formal_parameter, DW_AT_name("xTicksToDelay")
    1238                            .dwattr $C$DW$107, DW_AT_TI_symbol_name("xTicksToDelay")
    1239                            .dwattr $C$DW$107, DW_AT_type(*$C$DW$T$102)
    1240                            .dwattr $C$DW$107, DW_AT_location[DW_OP_reg0]
    1241                    
    1242                    ;*****************************************************************************
    1243                    ;* FUNCTION NAME: vTaskDelay                                                 *
    1244                    ;*                                                                           *
    1245                    ;*   Regs Modified     : A1,A2,A3,A4,V9,SP,LR,SR,D0,D0_hi,D1,D1_hi,D2,D2_hi, *
    1246                    ;*                           D3,D3_hi,D4,D4_hi,D5,D5_hi,D6,D6_hi,D7,D7_hi,   *
    1247                    ;*                           FPEXC,FPSCR                                     *
    1248                    ;*   Regs Used         : A1,A2,A3,A4,V9,SP,LR,SR,D0,D0_hi,D1,D1_hi,D2,D2_hi, *
    1249                    ;*                           D3,D3_hi,D4,D4_hi,D5,D5_hi,D6,D6_hi,D7,D7_hi,   *
    1250                    ;*                           FPEXC,FPSCR                                     *
    1251                    ;*   Local Frame Size  : 0 Args + 12 Auto + 4 Save = 16 byte                 *
    1252                    ;*****************************************************************************
    1253 0000025e           vTaskDelay:
    1254                    ;* --------------------------------------------------------------------------*
    1255                            .dwcfi  cfa_offset, 0
    1256 0000025e B50E              PUSH      {A2, A3, A4, LR}      ; [DPU_3_PIPE]  ; [ORIG 16-BIT INS]
    1257                            .dwcfi  cfa_offset, 16
    1258                            .dwcfi  save_reg_to_mem, 14, -4
    1259                            .dwcfi  save_reg_to_mem, 3, -8
    1260                            .dwcfi  save_reg_to_mem, 2, -12
    1261                            .dwcfi  save_reg_to_mem, 1, -16
    1262                    $C$DW$108       .dwtag  DW_TAG_variable, DW_AT_name("xTicksToDelay")
    1263                            .dwattr $C$DW$108, DW_AT_TI_symbol_name("xTicksToDelay")
    1264                            .dwattr $C$DW$108, DW_AT_type(*$C$DW$T$102)
    1265                            .dwattr $C$DW$108, DW_AT_location[DW_OP_breg13 0]
TI ARM Assembler PC v5.2.2 Thu Mar 10 16:27:04 2016

Tools Copyright (c) 1996-2015 Texas Instruments Incorporated
tasks.asm                                                            PAGE   24

    1266                    $C$DW$109       .dwtag  DW_TAG_variable, DW_AT_name("xTimeToWake")
    1267                            .dwattr $C$DW$109, DW_AT_TI_symbol_name("xTimeToWake")
    1268                            .dwattr $C$DW$109, DW_AT_type(*$C$DW$T$44)
    1269                            .dwattr $C$DW$109, DW_AT_location[DW_OP_breg13 4]
    1270                    $C$DW$110       .dwtag  DW_TAG_variable, DW_AT_name("xAlreadyYielded")
    1271                            .dwattr $C$DW$110, DW_AT_TI_symbol_name("xAlreadyYielded")
    1272                            .dwattr $C$DW$110, DW_AT_type(*$C$DW$T$64)
    1273                            .dwattr $C$DW$110, DW_AT_location[DW_OP_breg13 8]
    1274 00000260 9000              STR       A1, [SP, #0]          ; [DPU_3_PIPE] |923|  ; [ORIG 16-BIT INS]
    1275                            .dwpsn  file "H:/EECS_690/TI_ARM_Tiva_Projects_EECS_690_Sp16/Source/tasks.c",line 925,column 2
    1276 00000262 2000              MOVS      A1, #0                ; [DPU_3_PIPE] |925|  ; [ORIG 16-BIT INS]
    1277 00000264 9002              STR       A1, [SP, #8]          ; [DPU_3_PIPE] |925|  ; [ORIG 16-BIT INS]
    1278                            .dwpsn  file "H:/EECS_690/TI_ARM_Tiva_Projects_EECS_690_Sp16/Source/tasks.c",line 929,column 3
    1279 00000266 9800              LDR       A1, [SP, #0]          ; [DPU_3_PIPE] |929|  ; [ORIG 16-BIT INS]
    1280 00000268 B1D8              CBZ       A1, ||$C$L20||        ; []  ; [ORIG 16-BIT INS]
    1281                            ; BRANCHCC OCCURS {||$C$L20||}   ; [] |929| 
    1282                    ;* --------------------------------------------------------------------------*
    1283                            .dwpsn  file "H:/EECS_690/TI_ARM_Tiva_Projects_EECS_690_Sp16/Source/tasks.c",line 932,column 4
    1284                    $C$DW$111       .dwtag  DW_TAG_TI_branch
    1285                            .dwattr $C$DW$111, DW_AT_low_pc(0x00)
    1286                            .dwattr $C$DW$111, DW_AT_name("vTaskSuspendAll")
    1287                            .dwattr $C$DW$111, DW_AT_TI_call
    1288 0000026a FA39F000          BL        vTaskSuspendAll       ; [DPU_3_PIPE] |932|  ; [KEEP 32-BIT INS]
    1289                            ; CALL OCCURS {vTaskSuspendAll }  ; [] |932| 
    1290                            .dwpsn  file "H:/EECS_690/TI_ARM_Tiva_Projects_EECS_690_Sp16/Source/tasks.c",line 946,column 5
    1291 0000026e 4978              LDR       A2, $C$CON10          ; [DPU_3_PIPE] |946|  ; [ORIG 16-BIT INS]
    1292 00000270 9800              LDR       A1, [SP, #0]          ; [DPU_3_PIPE] |946|  ; [ORIG 16-BIT INS]
    1293 00000272 6809              LDR       A2, [A2, #0]          ; [DPU_3_PIPE] |946|  ; [ORIG 16-BIT INS]
    1294 00000274 1840              ADDS      A1, A1, A2            ; [DPU_3_PIPE] |946|  ; [ORIG 16-BIT INS]
    1295 00000276 9001              STR       A1, [SP, #4]          ; [DPU_3_PIPE] |946|  ; [ORIG 16-BIT INS]
    1296                            .dwpsn  file "H:/EECS_690/TI_ARM_Tiva_Projects_EECS_690_Sp16/Source/tasks.c",line 951,column 5
    1297 00000278 481A              LDR       A1, $C$CON2           ; [DPU_3_PIPE] |951|  ; [ORIG 16-BIT INS]
    1298 0000027a 6800              LDR       A1, [A1, #0]          ; [DPU_3_PIPE] |951|  ; [ORIG 16-BIT INS]
    1299 0000027c 1D00              ADDS      A1, A1, #4            ; [DPU_3_PIPE] |951|  ; [ORIG 16-BIT INS]
    1300                    $C$DW$112       .dwtag  DW_TAG_TI_branch
    1301                            .dwattr $C$DW$112, DW_AT_low_pc(0x00)
    1302                            .dwattr $C$DW$112, DW_AT_name("uxListRemove")
    1303                            .dwattr $C$DW$112, DW_AT_TI_call
    1304 0000027e FFFEF7FF!         BL        uxListRemove          ; [DPU_3_PIPE] |951|  ; [KEEP 32-BIT INS]
    1305                            ; CALL OCCURS {uxListRemove }    ; [] |951| 
    1306 00000282 B940              CBNZ      A1, ||$C$L19||        ; []  ; [ORIG 16-BIT INS]
    1307                            ; BRANCHCC OCCURS {||$C$L19||}   ; [] |951| 
    1308                    ;* --------------------------------------------------------------------------*
    1309                            .dwpsn  file "H:/EECS_690/TI_ARM_Tiva_Projects_EECS_690_Sp16/Source/tasks.c",line 956,column 6
    1310 00000284 4817              LDR       A1, $C$CON2           ; [DPU_3_PIPE] |956|  ; [ORIG 16-BIT INS]
    1311 00000286 6800              LDR       A1, [A1, #0]          ; [DPU_3_PIPE] |956|  ; [ORIG 16-BIT INS]
    1312 00000288 4A28              LDR       A3, $C$CON5           ; [DPU_3_PIPE] |956|  ; [ORIG 16-BIT INS]
    1313 0000028a 6AC3              LDR       A4, [A1, #44]         ; [DPU_3_PIPE] |956|  ; [ORIG 16-BIT INS]
    1314 0000028c 6811              LDR       A2, [A3, #0]          ; [DPU_3_PIPE] |956|  ; [ORIG 16-BIT INS]
    1315 0000028e 2001              MOVS      A1, #1                ; [DPU_3_PIPE] |956|  ; [ORIG 16-BIT INS]
    1316 00000290 4098              LSLS      A1, A1, A4            ; [DPU_3_PIPE] |956|  ; [ORIG 16-BIT INS]
    1317 00000292 4381              BICS      A2, A2, A1            ; [DPU_3_PIPE] |956|  ; [ORIG 16-BIT INS]
    1318 00000294 6011              STR       A2, [A3, #0]          ; [DPU_3_PIPE] |956|  ; [ORIG 16-BIT INS]
    1319                            .dwpsn  file "H:/EECS_690/TI_ARM_Tiva_Projects_EECS_690_Sp16/Source/tasks.c",line 957,column 5
    1320                    ;* --------------------------------------------------------------------------*
TI ARM Assembler PC v5.2.2 Thu Mar 10 16:27:04 2016

Tools Copyright (c) 1996-2015 Texas Instruments Incorporated
tasks.asm                                                            PAGE   25

    1321 00000296           ||$C$L19||:    
    1322                            .dwpsn  file "H:/EECS_690/TI_ARM_Tiva_Projects_EECS_690_Sp16/Source/tasks.c",line 962,column 5
    1323 00000296 9801              LDR       A1, [SP, #4]          ; [DPU_3_PIPE] |962|  ; [ORIG 16-BIT INS]
    1324                    $C$DW$113       .dwtag  DW_TAG_TI_branch
    1325                            .dwattr $C$DW$113, DW_AT_low_pc(0x00)
    1326                            .dwattr $C$DW$113, DW_AT_name("prvAddCurrentTaskToDelayedList")
    1327                            .dwattr $C$DW$113, DW_AT_TI_call
    1328 00000298 FE2CF000          BL        prvAddCurrentTaskToDelayedList ; [DPU_3_PIPE] |962|  ; [KEEP 32-BIT INS]
    1329                            ; CALL OCCURS {prvAddCurrentTaskToDelayedList }  ; [] |962| 
    1330                            .dwpsn  file "H:/EECS_690/TI_ARM_Tiva_Projects_EECS_690_Sp16/Source/tasks.c",line 964,column 4
    1331                    $C$DW$114       .dwtag  DW_TAG_TI_branch
    1332                            .dwattr $C$DW$114, DW_AT_low_pc(0x00)
    1333                            .dwattr $C$DW$114, DW_AT_name("xTaskResumeAll")
    1334                            .dwattr $C$DW$114, DW_AT_TI_call
    1335 0000029c FA2AF000          BL        xTaskResumeAll        ; [DPU_3_PIPE] |964|  ; [KEEP 32-BIT INS]
    1336                            ; CALL OCCURS {xTaskResumeAll }  ; [] |964| 
    1337 000002a0 9002              STR       A1, [SP, #8]          ; [DPU_3_PIPE] |964|  ; [ORIG 16-BIT INS]
    1338                            .dwpsn  file "H:/EECS_690/TI_ARM_Tiva_Projects_EECS_690_Sp16/Source/tasks.c",line 965,column 3
    1339                    ;* --------------------------------------------------------------------------*
    1340 000002a2           ||$C$L20||:    
    1341                            .dwpsn  file "H:/EECS_690/TI_ARM_Tiva_Projects_EECS_690_Sp16/Source/tasks.c",line 973,column 3
    1342 000002a2 9802              LDR       A1, [SP, #8]          ; [DPU_3_PIPE] |973|  ; [ORIG 16-BIT INS]
    1343 000002a4 B940              CBNZ      A1, ||$C$L21||        ; []  ; [ORIG 16-BIT INS]
    1344                            ; BRANCHCC OCCURS {||$C$L21||}   ; [] |973| 
    1345                    ;* --------------------------------------------------------------------------*
    1346                            .dwpsn  file "H:/EECS_690/TI_ARM_Tiva_Projects_EECS_690_Sp16/Source/tasks.c",line 975,column 4
    1347 000002a6 4923              LDR       A2, $C$CON7           ; [DPU_3_PIPE] |975|  ; [ORIG 16-BIT INS]
    1348 000002a8 5080F04F          MOV       A1, #268435456        ; [DPU_3_PIPE] |975|  ; [KEEP 32-BIT INS]
    1349 000002ac 6008              STR       A1, [A2, #0]          ; [DPU_3_PIPE] |975|  ; [ORIG 16-BIT INS]
    1350 000002ae 8F4FF3BF          dsb ; [KEEP 32-BIT INS]
    1351 000002b2 8F6FF3BF          isb ; [KEEP 32-BIT INS]
    1352                            .dwpsn  file "H:/EECS_690/TI_ARM_Tiva_Projects_EECS_690_Sp16/Source/tasks.c",line 976,column 3
    1353 000002b6 E7FF              B         ||$C$L21||            ; [DPU_3_PIPE] |976|  ; [ORIG 16-BIT INS]
    1354                            ; BRANCH OCCURS {||$C$L21||}     ; [] |976| 
    1355                    ;* --------------------------------------------------------------------------*
    1356                    ;* --------------------------------------------------------------------------*
    1357                    ||$C$L21||:    
    1358                    $C$DW$115       .dwtag  DW_TAG_TI_branch
    1359                            .dwattr $C$DW$115, DW_AT_low_pc(0x00)
    1360                            .dwattr $C$DW$115, DW_AT_TI_return
    1361 000002b8 BD0E              POP       {A2, A3, A4, PC}      ; [DPU_3_PIPE]  ; [ORIG 16-BIT INS]
    1362                            .dwcfi  cfa_offset, 0
    1363                            ; BRANCH OCCURS                  ; [] 
    1364                            .dwattr $C$DW$106, DW_AT_TI_end_file("H:/EECS_690/TI_ARM_Tiva_Projects_EECS_690_Sp16/Source/ta
    1365                            .dwattr $C$DW$106, DW_AT_TI_end_line(0x3d5)
    1366                            .dwattr $C$DW$106, DW_AT_TI_end_column(0x02)
    1367                            .dwendentry
    1368                            .dwendtag $C$DW$106
    1369                    
    1370 000002ba                   .sect   ".text"
    1371                            .clink
    1372                            .thumbfunc uxTaskPriorityGet
    1373 000002ba                   .thumb
    1374                            .global uxTaskPriorityGet
    1375                    
TI ARM Assembler PC v5.2.2 Thu Mar 10 16:27:04 2016

Tools Copyright (c) 1996-2015 Texas Instruments Incorporated
tasks.asm                                                            PAGE   26

    1376                    $C$DW$116       .dwtag  DW_TAG_subprogram, DW_AT_name("uxTaskPriorityGet")
    1377                            .dwattr $C$DW$116, DW_AT_low_pc(uxTaskPriorityGet)
    1378                            .dwattr $C$DW$116, DW_AT_high_pc(0x00)
    1379                            .dwattr $C$DW$116, DW_AT_TI_symbol_name("uxTaskPriorityGet")
    1380                            .dwattr $C$DW$116, DW_AT_external
    1381                            .dwattr $C$DW$116, DW_AT_type(*$C$DW$T$32)
    1382                            .dwattr $C$DW$116, DW_AT_TI_begin_file("H:/EECS_690/TI_ARM_Tiva_Projects_EECS_690_Sp16/Source/
    1383                            .dwattr $C$DW$116, DW_AT_TI_begin_line(0x422)
    1384                            .dwattr $C$DW$116, DW_AT_TI_begin_column(0x0e)
    1385                            .dwattr $C$DW$116, DW_AT_decl_file("H:/EECS_690/TI_ARM_Tiva_Projects_EECS_690_Sp16/Source/task
    1386                            .dwattr $C$DW$116, DW_AT_decl_line(0x422)
    1387                            .dwattr $C$DW$116, DW_AT_decl_column(0x0e)
    1388                            .dwattr $C$DW$116, DW_AT_TI_max_frame_size(0x10)
    1389                            .dwpsn  file "H:/EECS_690/TI_ARM_Tiva_Projects_EECS_690_Sp16/Source/tasks.c",line 1059,column 
    1390                    
    1391                            .dwfde $C$DW$CIE, uxTaskPriorityGet
    1392                    $C$DW$117       .dwtag  DW_TAG_formal_parameter, DW_AT_name("xTask")
    1393                            .dwattr $C$DW$117, DW_AT_TI_symbol_name("xTask")
    1394                            .dwattr $C$DW$117, DW_AT_type(*$C$DW$T$59)
    1395                            .dwattr $C$DW$117, DW_AT_location[DW_OP_reg0]
    1396                    
    1397                    ;*****************************************************************************
    1398                    ;* FUNCTION NAME: uxTaskPriorityGet                                          *
    1399                    ;*                                                                           *
    1400                    ;*   Regs Modified     : A1,A2,A3,A4,V9,SP,LR,SR,D0,D0_hi,D1,D1_hi,D2,D2_hi, *
    1401                    ;*                           D3,D3_hi,D4,D4_hi,D5,D5_hi,D6,D6_hi,D7,D7_hi,   *
    1402                    ;*                           FPEXC,FPSCR                                     *
    1403                    ;*   Regs Used         : A1,A2,A3,A4,V9,SP,LR,SR,D0,D0_hi,D1,D1_hi,D2,D2_hi, *
    1404                    ;*                           D3,D3_hi,D4,D4_hi,D5,D5_hi,D6,D6_hi,D7,D7_hi,   *
    1405                    ;*                           FPEXC,FPSCR                                     *
    1406                    ;*   Local Frame Size  : 0 Args + 12 Auto + 4 Save = 16 byte                 *
    1407                    ;*****************************************************************************
    1408 000002ba           uxTaskPriorityGet:
    1409                    ;* --------------------------------------------------------------------------*
    1410                            .dwcfi  cfa_offset, 0
    1411 000002ba B50E              PUSH      {A2, A3, A4, LR}      ; [DPU_3_PIPE]  ; [ORIG 16-BIT INS]
    1412                            .dwcfi  cfa_offset, 16
    1413                            .dwcfi  save_reg_to_mem, 14, -4
    1414                            .dwcfi  save_reg_to_mem, 3, -8
    1415                            .dwcfi  save_reg_to_mem, 2, -12
    1416                            .dwcfi  save_reg_to_mem, 1, -16
    1417                    $C$DW$118       .dwtag  DW_TAG_variable, DW_AT_name("xTask")
    1418                            .dwattr $C$DW$118, DW_AT_TI_symbol_name("xTask")
    1419                            .dwattr $C$DW$118, DW_AT_type(*$C$DW$T$59)
    1420                            .dwattr $C$DW$118, DW_AT_location[DW_OP_breg13 0]
    1421                    $C$DW$119       .dwtag  DW_TAG_variable, DW_AT_name("pxTCB")
    1422                            .dwattr $C$DW$119, DW_AT_TI_symbol_name("pxTCB")
    1423                            .dwattr $C$DW$119, DW_AT_type(*$C$DW$T$120)
    1424                            .dwattr $C$DW$119, DW_AT_location[DW_OP_breg13 4]
    1425                    $C$DW$120       .dwtag  DW_TAG_variable, DW_AT_name("uxReturn")
    1426                            .dwattr $C$DW$120, DW_AT_TI_symbol_name("uxReturn")
    1427                            .dwattr $C$DW$120, DW_AT_type(*$C$DW$T$32)
    1428                            .dwattr $C$DW$120, DW_AT_location[DW_OP_breg13 8]
    1429 000002bc 9000              STR       A1, [SP, #0]          ; [DPU_3_PIPE] |1059|  ; [ORIG 16-BIT INS]
    1430                            .dwpsn  file "H:/EECS_690/TI_ARM_Tiva_Projects_EECS_690_Sp16/Source/tasks.c",line 1063,column 
TI ARM Assembler PC v5.2.2 Thu Mar 10 16:27:04 2016

Tools Copyright (c) 1996-2015 Texas Instruments Incorporated
tasks.asm                                                            PAGE   27

    1431                    $C$DW$121       .dwtag  DW_TAG_TI_branch
    1432                            .dwattr $C$DW$121, DW_AT_low_pc(0x00)
    1433                            .dwattr $C$DW$121, DW_AT_name("vPortEnterCritical")
    1434                            .dwattr $C$DW$121, DW_AT_TI_call
    1435 000002be FFFEF7FF!         BL        vPortEnterCritical    ; [DPU_3_PIPE] |1063|  ; [KEEP 32-BIT INS]
    1436                            ; CALL OCCURS {vPortEnterCritical }  ; [] |1063| 
    1437                            .dwpsn  file "H:/EECS_690/TI_ARM_Tiva_Projects_EECS_690_Sp16/Source/tasks.c",line 1067,column 
    1438 000002c2 9800              LDR       A1, [SP, #0]          ; [DPU_3_PIPE] |1067|  ; [ORIG 16-BIT INS]
    1439 000002c4 B910              CBNZ      A1, ||$C$L22||        ; []  ; [ORIG 16-BIT INS]
    1440                            ; BRANCHCC OCCURS {||$C$L22||}   ; [] |1067| 
    1441                    ;* --------------------------------------------------------------------------*
    1442 000002c6 4807              LDR       A1, $C$CON2           ; [DPU_3_PIPE] |1067|  ; [ORIG 16-BIT INS]
    1443 000002c8 6800              LDR       A1, [A1, #0]          ; [DPU_3_PIPE] |1067|  ; [ORIG 16-BIT INS]
    1444 000002ca E000              B         ||$C$L23||            ; [DPU_3_PIPE] |1067|  ; [ORIG 16-BIT INS]
    1445                            ; BRANCH OCCURS {||$C$L23||}     ; [] |1067| 
    1446                    ;* --------------------------------------------------------------------------*
    1447 000002cc           ||$C$L22||:    
    1448 000002cc 9800              LDR       A1, [SP, #0]          ; [DPU_3_PIPE] |1067|  ; [ORIG 16-BIT INS]
    1449                    ;* --------------------------------------------------------------------------*
    1450 000002ce           ||$C$L23||:    
    1451 000002ce 9001              STR       A1, [SP, #4]          ; [DPU_3_PIPE] |1067|  ; [ORIG 16-BIT INS]
    1452                            .dwpsn  file "H:/EECS_690/TI_ARM_Tiva_Projects_EECS_690_Sp16/Source/tasks.c",line 1068,column 
    1453 000002d0 9801              LDR       A1, [SP, #4]          ; [DPU_3_PIPE] |1068|  ; [ORIG 16-BIT INS]
    1454 000002d2 6AC0              LDR       A1, [A1, #44]         ; [DPU_3_PIPE] |1068|  ; [ORIG 16-BIT INS]
    1455 000002d4 9002              STR       A1, [SP, #8]          ; [DPU_3_PIPE] |1068|  ; [ORIG 16-BIT INS]
    1456                            .dwpsn  file "H:/EECS_690/TI_ARM_Tiva_Projects_EECS_690_Sp16/Source/tasks.c",line 1070,column 
    1457                    $C$DW$122       .dwtag  DW_TAG_TI_branch
    1458                            .dwattr $C$DW$122, DW_AT_low_pc(0x00)
    1459                            .dwattr $C$DW$122, DW_AT_name("vPortExitCritical")
    1460                            .dwattr $C$DW$122, DW_AT_TI_call
    1461 000002d6 FFFEF7FF!         BL        vPortExitCritical     ; [DPU_3_PIPE] |1070|  ; [KEEP 32-BIT INS]
    1462                            ; CALL OCCURS {vPortExitCritical }  ; [] |1070| 
    1463                            .dwpsn  file "H:/EECS_690/TI_ARM_Tiva_Projects_EECS_690_Sp16/Source/tasks.c",line 1072,column 
    1464 000002da 9802              LDR       A1, [SP, #8]          ; [DPU_3_PIPE] |1072|  ; [ORIG 16-BIT INS]
    1465                            .dwpsn  file "H:/EECS_690/TI_ARM_Tiva_Projects_EECS_690_Sp16/Source/tasks.c",line 1073,column 
    1466                    $C$DW$123       .dwtag  DW_TAG_TI_branch
    1467                            .dwattr $C$DW$123, DW_AT_low_pc(0x00)
    1468                            .dwattr $C$DW$123, DW_AT_TI_return
    1469 000002dc BD0E              POP       {A2, A3, A4, PC}      ; [DPU_3_PIPE]  ; [ORIG 16-BIT INS]
    1470                            .dwcfi  cfa_offset, 0
    1471                            ; BRANCH OCCURS                  ; [] 
    1472                            .dwattr $C$DW$116, DW_AT_TI_end_file("H:/EECS_690/TI_ARM_Tiva_Projects_EECS_690_Sp16/Source/ta
    1473                            .dwattr $C$DW$116, DW_AT_TI_end_line(0x431)
    1474                            .dwattr $C$DW$116, DW_AT_TI_end_column(0x02)
    1475                            .dwendentry
    1476                            .dwendtag $C$DW$116
    1477                    
    1478                    ;******************************************************************************
    1479                    ;* CONSTANT TABLE                                                             *
    1480                    ;******************************************************************************
    1481 000002de                   .sect   ".text"
    1482                            .align  4
    1483 000002de 000046C0! ||$C$CON1||:    .bits   uxCurrentNumberOfTasks,32
         000002e2 00000000 
    1484                            .align  4
TI ARM Assembler PC v5.2.2 Thu Mar 10 16:27:04 2016

Tools Copyright (c) 1996-2015 Texas Instruments Incorporated
tasks.asm                                                            PAGE   28

    1485 000002e2 00000000! ||$C$CON2||:    .bits   pxCurrentTCB,32
         000002e6 00000000 
    1486                            .align  4
    1487 000002e6 00000000! ||$C$CON3||:    .bits   xSchedulerRunning,32
         000002ea 00000000 
    1488 000002ec                   .sect   ".text"
    1489                            .clink
    1490                            .thumbfunc uxTaskPriorityGetFromISR
    1491 000002ec                   .thumb
    1492                            .global uxTaskPriorityGetFromISR
    1493                    
    1494                    $C$DW$124       .dwtag  DW_TAG_subprogram, DW_AT_name("uxTaskPriorityGetFromISR")
    1495                            .dwattr $C$DW$124, DW_AT_low_pc(uxTaskPriorityGetFromISR)
    1496                            .dwattr $C$DW$124, DW_AT_high_pc(0x00)
    1497                            .dwattr $C$DW$124, DW_AT_TI_symbol_name("uxTaskPriorityGetFromISR")
    1498                            .dwattr $C$DW$124, DW_AT_external
    1499                            .dwattr $C$DW$124, DW_AT_type(*$C$DW$T$32)
    1500                            .dwattr $C$DW$124, DW_AT_TI_begin_file("H:/EECS_690/TI_ARM_Tiva_Projects_EECS_690_Sp16/Source/
    1501                            .dwattr $C$DW$124, DW_AT_TI_begin_line(0x438)
    1502                            .dwattr $C$DW$124, DW_AT_TI_begin_column(0x0e)
    1503                            .dwattr $C$DW$124, DW_AT_decl_file("H:/EECS_690/TI_ARM_Tiva_Projects_EECS_690_Sp16/Source/task
    1504                            .dwattr $C$DW$124, DW_AT_decl_line(0x438)
    1505                            .dwattr $C$DW$124, DW_AT_decl_column(0x0e)
    1506                            .dwattr $C$DW$124, DW_AT_TI_max_frame_size(0x10)
    1507                            .dwpsn  file "H:/EECS_690/TI_ARM_Tiva_Projects_EECS_690_Sp16/Source/tasks.c",line 1081,column 
    1508                    
    1509                            .dwfde $C$DW$CIE, uxTaskPriorityGetFromISR
    1510                    $C$DW$125       .dwtag  DW_TAG_formal_parameter, DW_AT_name("xTask")
    1511                            .dwattr $C$DW$125, DW_AT_TI_symbol_name("xTask")
    1512                            .dwattr $C$DW$125, DW_AT_type(*$C$DW$T$59)
    1513                            .dwattr $C$DW$125, DW_AT_location[DW_OP_reg0]
    1514                    
    1515                    ;*****************************************************************************
    1516                    ;* FUNCTION NAME: uxTaskPriorityGetFromISR                                   *
    1517                    ;*                                                                           *
    1518                    ;*   Regs Modified     : A1,A2,SP,SR                                         *
    1519                    ;*   Regs Used         : A1,A2,SP,LR,SR                                      *
    1520                    ;*   Local Frame Size  : 0 Args + 16 Auto + 0 Save = 16 byte                 *
    1521                    ;*****************************************************************************
    1522 000002ec           uxTaskPriorityGetFromISR:
    1523                    ;* --------------------------------------------------------------------------*
    1524                            .dwcfi  cfa_offset, 0
    1525 000002ec 0D10F1AD          SUB       SP, SP, #16           ; [DPU_3_PIPE]  ; [KEEP 32-BIT INS]
    1526                            .dwcfi  cfa_offset, 16
    1527                    $C$DW$126       .dwtag  DW_TAG_variable, DW_AT_name("xTask")
    1528                            .dwattr $C$DW$126, DW_AT_TI_symbol_name("xTask")
    1529                            .dwattr $C$DW$126, DW_AT_type(*$C$DW$T$59)
    1530                            .dwattr $C$DW$126, DW_AT_location[DW_OP_breg13 0]
    1531                    $C$DW$127       .dwtag  DW_TAG_variable, DW_AT_name("pxTCB")
    1532                            .dwattr $C$DW$127, DW_AT_TI_symbol_name("pxTCB")
    1533                            .dwattr $C$DW$127, DW_AT_type(*$C$DW$T$120)
    1534                            .dwattr $C$DW$127, DW_AT_location[DW_OP_breg13 4]
    1535                    $C$DW$128       .dwtag  DW_TAG_variable, DW_AT_name("uxReturn")
    1536                            .dwattr $C$DW$128, DW_AT_TI_symbol_name("uxReturn")
    1537                            .dwattr $C$DW$128, DW_AT_type(*$C$DW$T$32)
TI ARM Assembler PC v5.2.2 Thu Mar 10 16:27:04 2016

Tools Copyright (c) 1996-2015 Texas Instruments Incorporated
tasks.asm                                                            PAGE   29

    1538                            .dwattr $C$DW$128, DW_AT_location[DW_OP_breg13 8]
    1539                    $C$DW$129       .dwtag  DW_TAG_variable, DW_AT_name("uxSavedInterruptState")
    1540                            .dwattr $C$DW$129, DW_AT_TI_symbol_name("uxSavedInterruptState")
    1541                            .dwattr $C$DW$129, DW_AT_type(*$C$DW$T$32)
    1542                            .dwattr $C$DW$129, DW_AT_location[DW_OP_breg13 12]
    1543 000002f0 9000              STR       A1, [SP, #0]          ; [DPU_3_PIPE] |1081|  ; [ORIG 16-BIT INS]
    1544                            .dwpsn  file "H:/EECS_690/TI_ARM_Tiva_Projects_EECS_690_Sp16/Source/tasks.c",line 1103,column 
    1545 000002f2 8111F3EF          MRS       A2, BASEPRI           ; [DPU_3_PIPE] |1103|  ; [KEEP 32-BIT INS]
    1546 000002f6 20A0              MOVS      A1, #160              ; [DPU_3_PIPE] |1103|  ; [ORIG 16-BIT INS]
    1547 000002f8 8811F380          MSR       BASEPRI, A1           ; [DPU_3_PIPE] |1103|  ; [KEEP 32-BIT INS]
    1548 000002fc 9103              STR       A2, [SP, #12]         ; [DPU_3_PIPE] |1103|  ; [ORIG 16-BIT INS]
    1549                            .dwpsn  file "H:/EECS_690/TI_ARM_Tiva_Projects_EECS_690_Sp16/Source/tasks.c",line 1103,column 
    1550 000002fe 8F4FF3BF          dsb ; [KEEP 32-BIT INS]
    1551 00000302 8F6FF3BF          isb ; [KEEP 32-BIT INS]
    1552                            .dwpsn  file "H:/EECS_690/TI_ARM_Tiva_Projects_EECS_690_Sp16/Source/tasks.c",line 1107,column 
    1553 00000306 9800              LDR       A1, [SP, #0]          ; [DPU_3_PIPE] |1107|  ; [ORIG 16-BIT INS]
    1554 00000308 B910              CBNZ      A1, ||$C$L24||        ; []  ; [ORIG 16-BIT INS]
    1555                            ; BRANCHCC OCCURS {||$C$L24||}   ; [] |1107| 
    1556                    ;* --------------------------------------------------------------------------*
    1557 0000030a 4899              LDR       A1, $C$CON11          ; [DPU_3_PIPE] |1107|  ; [ORIG 16-BIT INS]
    1558 0000030c 6800              LDR       A1, [A1, #0]          ; [DPU_3_PIPE] |1107|  ; [ORIG 16-BIT INS]
    1559 0000030e E000              B         ||$C$L25||            ; [DPU_3_PIPE] |1107|  ; [ORIG 16-BIT INS]
    1560                            ; BRANCH OCCURS {||$C$L25||}     ; [] |1107| 
    1561                    ;* --------------------------------------------------------------------------*
    1562 00000310           ||$C$L24||:    
    1563 00000310 9800              LDR       A1, [SP, #0]          ; [DPU_3_PIPE] |1107|  ; [ORIG 16-BIT INS]
    1564                    ;* --------------------------------------------------------------------------*
    1565 00000312           ||$C$L25||:    
    1566 00000312 9001              STR       A1, [SP, #4]          ; [DPU_3_PIPE] |1107|  ; [ORIG 16-BIT INS]
    1567                            .dwpsn  file "H:/EECS_690/TI_ARM_Tiva_Projects_EECS_690_Sp16/Source/tasks.c",line 1108,column 
    1568 00000314 9801              LDR       A1, [SP, #4]          ; [DPU_3_PIPE] |1108|  ; [ORIG 16-BIT INS]
    1569 00000316 6AC0              LDR       A1, [A1, #44]         ; [DPU_3_PIPE] |1108|  ; [ORIG 16-BIT INS]
    1570 00000318 9002              STR       A1, [SP, #8]          ; [DPU_3_PIPE] |1108|  ; [ORIG 16-BIT INS]
    1571                            .dwpsn  file "H:/EECS_690/TI_ARM_Tiva_Projects_EECS_690_Sp16/Source/tasks.c",line 1110,column 
    1572 0000031a 9803              LDR       A1, [SP, #12]         ; [DPU_3_PIPE] |1110|  ; [ORIG 16-BIT INS]
    1573 0000031c 8811F380          MSR       BASEPRI, A1           ; [DPU_3_PIPE] |1110|  ; [KEEP 32-BIT INS]
    1574                            .dwpsn  file "H:/EECS_690/TI_ARM_Tiva_Projects_EECS_690_Sp16/Source/tasks.c",line 1112,column 
    1575 00000320 9802              LDR       A1, [SP, #8]          ; [DPU_3_PIPE] |1112|  ; [ORIG 16-BIT INS]
    1576                            .dwpsn  file "H:/EECS_690/TI_ARM_Tiva_Projects_EECS_690_Sp16/Source/tasks.c",line 1113,column 
    1577 00000322 B004              ADD       SP, SP, #16           ; [DPU_3_PIPE]  ; [ORIG 16-BIT INS]
    1578                            .dwcfi  cfa_offset, 0
    1579                    $C$DW$130       .dwtag  DW_TAG_TI_branch
    1580                            .dwattr $C$DW$130, DW_AT_low_pc(0x00)
    1581                            .dwattr $C$DW$130, DW_AT_TI_return
    1582 00000324 4770              BX        LR                    ; [DPU_3_PIPE]  ; [ORIG 16-BIT INS]
    1583                            ; BRANCH OCCURS                  ; [] 
    1584                            .dwattr $C$DW$124, DW_AT_TI_end_file("H:/EECS_690/TI_ARM_Tiva_Projects_EECS_690_Sp16/Source/ta
    1585                            .dwattr $C$DW$124, DW_AT_TI_end_line(0x459)
    1586                            .dwattr $C$DW$124, DW_AT_TI_end_column(0x02)
    1587                            .dwendentry
    1588                            .dwendtag $C$DW$124
    1589                    
    1590                    ;******************************************************************************
    1591                    ;* CONSTANT TABLE                                                             *
    1592                    ;******************************************************************************
TI ARM Assembler PC v5.2.2 Thu Mar 10 16:27:04 2016

Tools Copyright (c) 1996-2015 Texas Instruments Incorporated
tasks.asm                                                            PAGE   30

    1593 00000326                   .sect   ".text"
    1594                            .align  4
    1595 00000326 000046C0! ||$C$CON4||:    .bits   uxTaskNumber,32
         0000032a 00000000 
    1596                            .align  4
    1597 0000032a 00000000! ||$C$CON5||:    .bits   uxTopReadyPriority,32
         0000032e 00000000 
    1598                            .align  4
    1599 0000032e 00000000! ||$C$CON6||:    .bits   pxReadyTasksLists,32
         00000332 00000000 
    1600                            .align  4
    1601 00000332 ED040000  ||$C$CON7||:    .bits   -536810236,32
         00000336 0000E000 
    1602                            .align  4
    1603 00000336 0000E000! ||$C$CON8||:    .bits   xTasksWaitingTermination,32
         0000033a 00000000 
    1604                            .align  4
    1605 0000033a 00000000! ||$C$CON9||:    .bits   uxTasksDeleted,32
         0000033e 00000000 
    1606 00000340                   .sect   ".text"
    1607                            .clink
    1608                            .thumbfunc vTaskPrioritySet
    1609 00000340                   .thumb
    1610                            .global vTaskPrioritySet
    1611                    
    1612                    $C$DW$131       .dwtag  DW_TAG_subprogram, DW_AT_name("vTaskPrioritySet")
    1613                            .dwattr $C$DW$131, DW_AT_low_pc(vTaskPrioritySet)
    1614                            .dwattr $C$DW$131, DW_AT_high_pc(0x00)
    1615                            .dwattr $C$DW$131, DW_AT_TI_symbol_name("vTaskPrioritySet")
    1616                            .dwattr $C$DW$131, DW_AT_external
    1617                            .dwattr $C$DW$131, DW_AT_TI_begin_file("H:/EECS_690/TI_ARM_Tiva_Projects_EECS_690_Sp16/Source/
    1618                            .dwattr $C$DW$131, DW_AT_TI_begin_line(0x460)
    1619                            .dwattr $C$DW$131, DW_AT_TI_begin_column(0x07)
    1620                            .dwattr $C$DW$131, DW_AT_decl_file("H:/EECS_690/TI_ARM_Tiva_Projects_EECS_690_Sp16/Source/task
    1621                            .dwattr $C$DW$131, DW_AT_decl_line(0x460)
    1622                            .dwattr $C$DW$131, DW_AT_decl_column(0x07)
    1623                            .dwattr $C$DW$131, DW_AT_TI_max_frame_size(0x20)
    1624                            .dwpsn  file "H:/EECS_690/TI_ARM_Tiva_Projects_EECS_690_Sp16/Source/tasks.c",line 1121,column 
    1625                    
    1626                            .dwfde $C$DW$CIE, vTaskPrioritySet
    1627                    $C$DW$132       .dwtag  DW_TAG_formal_parameter, DW_AT_name("xTask")
    1628                            .dwattr $C$DW$132, DW_AT_TI_symbol_name("xTask")
    1629                            .dwattr $C$DW$132, DW_AT_type(*$C$DW$T$59)
    1630                            .dwattr $C$DW$132, DW_AT_location[DW_OP_reg0]
    1631                    $C$DW$133       .dwtag  DW_TAG_formal_parameter, DW_AT_name("uxNewPriority")
    1632                            .dwattr $C$DW$133, DW_AT_TI_symbol_name("uxNewPriority")
    1633                            .dwattr $C$DW$133, DW_AT_type(*$C$DW$T$32)
    1634                            .dwattr $C$DW$133, DW_AT_location[DW_OP_reg1]
    1635                    
    1636                    ;*****************************************************************************
    1637                    ;* FUNCTION NAME: vTaskPrioritySet                                           *
    1638                    ;*                                                                           *
    1639                    ;*   Regs Modified     : A1,A2,A3,A4,V1,V9,SP,LR,SR,D0,D0_hi,D1,D1_hi,D2,    *
    1640                    ;*                           D2_hi,D3,D3_hi,D4,D4_hi,D5,D5_hi,D6,D6_hi,D7,   *
    1641                    ;*                           D7_hi,FPEXC,FPSCR                               *
TI ARM Assembler PC v5.2.2 Thu Mar 10 16:27:04 2016

Tools Copyright (c) 1996-2015 Texas Instruments Incorporated
tasks.asm                                                            PAGE   31

    1642                    ;*   Regs Used         : A1,A2,A3,A4,V1,V9,SP,LR,SR,D0,D0_hi,D1,D1_hi,D2,    *
    1643                    ;*                           D2_hi,D3,D3_hi,D4,D4_hi,D5,D5_hi,D6,D6_hi,D7,   *
    1644                    ;*                           D7_hi,FPEXC,FPSCR                               *
    1645                    ;*   Local Frame Size  : 0 Args + 24 Auto + 8 Save = 32 byte                 *
    1646                    ;*****************************************************************************
    1647 00000340           vTaskPrioritySet:
    1648                    ;* --------------------------------------------------------------------------*
    1649                            .dwcfi  cfa_offset, 0
    1650 00000340 B510              PUSH      {V1, LR}              ; [DPU_3_PIPE]  ; [ORIG 16-BIT INS]
    1651                            .dwcfi  cfa_offset, 8
    1652                            .dwcfi  save_reg_to_mem, 14, -4
    1653                            .dwcfi  save_reg_to_mem, 4, -8
    1654 00000342 0D18F1AD          SUB       SP, SP, #24           ; [DPU_3_PIPE]  ; [KEEP 32-BIT INS]
    1655                            .dwcfi  cfa_offset, 32
    1656                    $C$DW$134       .dwtag  DW_TAG_variable, DW_AT_name("xTask")
    1657                            .dwattr $C$DW$134, DW_AT_TI_symbol_name("xTask")
    1658                            .dwattr $C$DW$134, DW_AT_type(*$C$DW$T$59)
    1659                            .dwattr $C$DW$134, DW_AT_location[DW_OP_breg13 0]
    1660                    $C$DW$135       .dwtag  DW_TAG_variable, DW_AT_name("uxNewPriority")
    1661                            .dwattr $C$DW$135, DW_AT_TI_symbol_name("uxNewPriority")
    1662                            .dwattr $C$DW$135, DW_AT_type(*$C$DW$T$32)
    1663                            .dwattr $C$DW$135, DW_AT_location[DW_OP_breg13 4]
    1664                    $C$DW$136       .dwtag  DW_TAG_variable, DW_AT_name("pxTCB")
    1665                            .dwattr $C$DW$136, DW_AT_TI_symbol_name("pxTCB")
    1666                            .dwattr $C$DW$136, DW_AT_type(*$C$DW$T$120)
    1667                            .dwattr $C$DW$136, DW_AT_location[DW_OP_breg13 8]
    1668                    $C$DW$137       .dwtag  DW_TAG_variable, DW_AT_name("uxCurrentBasePriority")
    1669                            .dwattr $C$DW$137, DW_AT_TI_symbol_name("uxCurrentBasePriority")
    1670                            .dwattr $C$DW$137, DW_AT_type(*$C$DW$T$32)
    1671                            .dwattr $C$DW$137, DW_AT_location[DW_OP_breg13 12]
    1672                    $C$DW$138       .dwtag  DW_TAG_variable, DW_AT_name("uxPriorityUsedOnEntry")
    1673                            .dwattr $C$DW$138, DW_AT_TI_symbol_name("uxPriorityUsedOnEntry")
    1674                            .dwattr $C$DW$138, DW_AT_type(*$C$DW$T$32)
    1675                            .dwattr $C$DW$138, DW_AT_location[DW_OP_breg13 16]
    1676                    $C$DW$139       .dwtag  DW_TAG_variable, DW_AT_name("xYieldRequired")
    1677                            .dwattr $C$DW$139, DW_AT_TI_symbol_name("xYieldRequired")
    1678                            .dwattr $C$DW$139, DW_AT_type(*$C$DW$T$64)
    1679                            .dwattr $C$DW$139, DW_AT_location[DW_OP_breg13 20]
    1680 00000346 9101              STR       A2, [SP, #4]          ; [DPU_3_PIPE] |1121|  ; [ORIG 16-BIT INS]
    1681 00000348 9000              STR       A1, [SP, #0]          ; [DPU_3_PIPE] |1121|  ; [ORIG 16-BIT INS]
    1682                            .dwpsn  file "H:/EECS_690/TI_ARM_Tiva_Projects_EECS_690_Sp16/Source/tasks.c",line 1124,column 
    1683 0000034a 2000              MOVS      A1, #0                ; [DPU_3_PIPE] |1124|  ; [ORIG 16-BIT INS]
    1684 0000034c 9005              STR       A1, [SP, #20]         ; [DPU_3_PIPE] |1124|  ; [ORIG 16-BIT INS]
    1685                            .dwpsn  file "H:/EECS_690/TI_ARM_Tiva_Projects_EECS_690_Sp16/Source/tasks.c",line 1129,column 
    1686 0000034e 9801              LDR       A1, [SP, #4]          ; [DPU_3_PIPE] |1129|  ; [ORIG 16-BIT INS]
    1687 00000350 2805              CMP       A1, #5                ; [DPU_3_PIPE] |1129|  ; [ORIG 16-BIT INS]
    1688 00000352 D301              BCC       ||$C$L26||            ; [DPU_3_PIPE] |1129|  ; [ORIG 16-BIT INS]
    1689                            ; BRANCHCC OCCURS {||$C$L26||}   ; [] |1129| 
    1690                    ;* --------------------------------------------------------------------------*
    1691                            .dwpsn  file "H:/EECS_690/TI_ARM_Tiva_Projects_EECS_690_Sp16/Source/tasks.c",line 1131,column 
    1692 00000354 2004              MOVS      A1, #4                ; [DPU_3_PIPE] |1131|  ; [ORIG 16-BIT INS]
    1693 00000356 9001              STR       A1, [SP, #4]          ; [DPU_3_PIPE] |1131|  ; [ORIG 16-BIT INS]
    1694                            .dwpsn  file "H:/EECS_690/TI_ARM_Tiva_Projects_EECS_690_Sp16/Source/tasks.c",line 1132,column 
    1695                    ;* --------------------------------------------------------------------------*
    1696 00000358           ||$C$L26||:    
TI ARM Assembler PC v5.2.2 Thu Mar 10 16:27:04 2016

Tools Copyright (c) 1996-2015 Texas Instruments Incorporated
tasks.asm                                                            PAGE   32

    1697                            .dwpsn  file "H:/EECS_690/TI_ARM_Tiva_Projects_EECS_690_Sp16/Source/tasks.c",line 1138,column 
    1698                    $C$DW$140       .dwtag  DW_TAG_TI_branch
    1699                            .dwattr $C$DW$140, DW_AT_low_pc(0x00)
    1700                            .dwattr $C$DW$140, DW_AT_name("vPortEnterCritical")
    1701                            .dwattr $C$DW$140, DW_AT_TI_call
    1702 00000358 FFFEF7FF!         BL        vPortEnterCritical    ; [DPU_3_PIPE] |1138|  ; [KEEP 32-BIT INS]
    1703                            ; CALL OCCURS {vPortEnterCritical }  ; [] |1138| 
    1704                            .dwpsn  file "H:/EECS_690/TI_ARM_Tiva_Projects_EECS_690_Sp16/Source/tasks.c",line 1142,column 
    1705 0000035c 9800              LDR       A1, [SP, #0]          ; [DPU_3_PIPE] |1142|  ; [ORIG 16-BIT INS]
    1706 0000035e B910              CBNZ      A1, ||$C$L27||        ; []  ; [ORIG 16-BIT INS]
    1707                            ; BRANCHCC OCCURS {||$C$L27||}   ; [] |1142| 
    1708                    ;* --------------------------------------------------------------------------*
    1709 00000360 4883              LDR       A1, $C$CON11          ; [DPU_3_PIPE] |1142|  ; [ORIG 16-BIT INS]
    1710 00000362 6800              LDR       A1, [A1, #0]          ; [DPU_3_PIPE] |1142|  ; [ORIG 16-BIT INS]
    1711 00000364 E000              B         ||$C$L28||            ; [DPU_3_PIPE] |1142|  ; [ORIG 16-BIT INS]
    1712                            ; BRANCH OCCURS {||$C$L28||}     ; [] |1142| 
    1713                    ;* --------------------------------------------------------------------------*
    1714 00000366           ||$C$L27||:    
    1715 00000366 9800              LDR       A1, [SP, #0]          ; [DPU_3_PIPE] |1142|  ; [ORIG 16-BIT INS]
    1716                    ;* --------------------------------------------------------------------------*
    1717 00000368           ||$C$L28||:    
    1718 00000368 9002              STR       A1, [SP, #8]          ; [DPU_3_PIPE] |1142|  ; [ORIG 16-BIT INS]
    1719                            .dwpsn  file "H:/EECS_690/TI_ARM_Tiva_Projects_EECS_690_Sp16/Source/tasks.c",line 1148,column 
    1720 0000036a 9802              LDR       A1, [SP, #8]          ; [DPU_3_PIPE] |1148|  ; [ORIG 16-BIT INS]
    1721 0000036c 6C80              LDR       A1, [A1, #72]         ; [DPU_3_PIPE] |1148|  ; [ORIG 16-BIT INS]
    1722 0000036e 9003              STR       A1, [SP, #12]         ; [DPU_3_PIPE] |1148|  ; [ORIG 16-BIT INS]
    1723                            .dwpsn  file "H:/EECS_690/TI_ARM_Tiva_Projects_EECS_690_Sp16/Source/tasks.c",line 1156,column 
    1724 00000370 9903              LDR       A2, [SP, #12]         ; [DPU_3_PIPE] |1156|  ; [ORIG 16-BIT INS]
    1725 00000372 9801              LDR       A1, [SP, #4]          ; [DPU_3_PIPE] |1156|  ; [ORIG 16-BIT INS]
    1726 00000374 4288              CMP       A1, A2                ; [DPU_3_PIPE] |1156|  ; [ORIG 16-BIT INS]
    1727 00000376 D067              BEQ       ||$C$L37||            ; [DPU_3_PIPE] |1156|  ; [ORIG 16-BIT INS]
    1728                            ; BRANCHCC OCCURS {||$C$L37||}   ; [] |1156| 
    1729                    ;* --------------------------------------------------------------------------*
    1730                            .dwpsn  file "H:/EECS_690/TI_ARM_Tiva_Projects_EECS_690_Sp16/Source/tasks.c",line 1160,column 
    1731 00000378 9803              LDR       A1, [SP, #12]         ; [DPU_3_PIPE] |1160|  ; [ORIG 16-BIT INS]
    1732 0000037a 9901              LDR       A2, [SP, #4]          ; [DPU_3_PIPE] |1160|  ; [ORIG 16-BIT INS]
    1733 0000037c 4288              CMP       A1, A2                ; [DPU_3_PIPE] |1160|  ; [ORIG 16-BIT INS]
    1734 0000037e D20D              BCS       ||$C$L29||            ; [DPU_3_PIPE] |1160|  ; [ORIG 16-BIT INS]
    1735                            ; BRANCHCC OCCURS {||$C$L29||}   ; [] |1160| 
    1736                    ;* --------------------------------------------------------------------------*
    1737                            .dwpsn  file "H:/EECS_690/TI_ARM_Tiva_Projects_EECS_690_Sp16/Source/tasks.c",line 1162,column 
    1738 00000380 487B              LDR       A1, $C$CON11          ; [DPU_3_PIPE] |1162|  ; [ORIG 16-BIT INS]
    1739 00000382 9902              LDR       A2, [SP, #8]          ; [DPU_3_PIPE] |1162|  ; [ORIG 16-BIT INS]
    1740 00000384 6800              LDR       A1, [A1, #0]          ; [DPU_3_PIPE] |1162|  ; [ORIG 16-BIT INS]
    1741 00000386 4288              CMP       A1, A2                ; [DPU_3_PIPE] |1162|  ; [ORIG 16-BIT INS]
    1742 00000388 D00F              BEQ       ||$C$L30||            ; [DPU_3_PIPE] |1162|  ; [ORIG 16-BIT INS]
    1743                            ; BRANCHCC OCCURS {||$C$L30||}   ; [] |1162| 
    1744                    ;* --------------------------------------------------------------------------*
    1745                            .dwpsn  file "H:/EECS_690/TI_ARM_Tiva_Projects_EECS_690_Sp16/Source/tasks.c",line 1167,column 
    1746 0000038a 4879              LDR       A1, $C$CON11          ; [DPU_3_PIPE] |1167|  ; [ORIG 16-BIT INS]
    1747 0000038c 6800              LDR       A1, [A1, #0]          ; [DPU_3_PIPE] |1167|  ; [ORIG 16-BIT INS]
    1748 0000038e 9901              LDR       A2, [SP, #4]          ; [DPU_3_PIPE] |1167|  ; [ORIG 16-BIT INS]
    1749 00000390 6AC0              LDR       A1, [A1, #44]         ; [DPU_3_PIPE] |1167|  ; [ORIG 16-BIT INS]
    1750 00000392 4288              CMP       A1, A2                ; [DPU_3_PIPE] |1167|  ; [ORIG 16-BIT INS]
    1751 00000394 D809              BHI       ||$C$L30||            ; [DPU_3_PIPE] |1167|  ; [ORIG 16-BIT INS]
TI ARM Assembler PC v5.2.2 Thu Mar 10 16:27:04 2016

Tools Copyright (c) 1996-2015 Texas Instruments Incorporated
tasks.asm                                                            PAGE   33

    1752                            ; BRANCHCC OCCURS {||$C$L30||}   ; [] |1167| 
    1753                    ;* --------------------------------------------------------------------------*
    1754                            .dwpsn  file "H:/EECS_690/TI_ARM_Tiva_Projects_EECS_690_Sp16/Source/tasks.c",line 1169,column 
    1755 00000396 2001              MOVS      A1, #1                ; [DPU_3_PIPE] |1169|  ; [ORIG 16-BIT INS]
    1756 00000398 9005              STR       A1, [SP, #20]         ; [DPU_3_PIPE] |1169|  ; [ORIG 16-BIT INS]
    1757                            .dwpsn  file "H:/EECS_690/TI_ARM_Tiva_Projects_EECS_690_Sp16/Source/tasks.c",line 1170,column 
    1758 0000039a E006              B         ||$C$L30||            ; [DPU_3_PIPE] |1170|  ; [ORIG 16-BIT INS]
    1759                            ; BRANCH OCCURS {||$C$L30||}     ; [] |1170| 
    1760                    ;* --------------------------------------------------------------------------*
    1761                    ;* --------------------------------------------------------------------------*
    1762 0000039c           ||$C$L29||:    
    1763                            .dwpsn  file "H:/EECS_690/TI_ARM_Tiva_Projects_EECS_690_Sp16/Source/tasks.c",line 1183,column 
    1764 0000039c 4874              LDR       A1, $C$CON11          ; [DPU_3_PIPE] |1183|  ; [ORIG 16-BIT INS]
    1765 0000039e 9902              LDR       A2, [SP, #8]          ; [DPU_3_PIPE] |1183|  ; [ORIG 16-BIT INS]
    1766 000003a0 6800              LDR       A1, [A1, #0]          ; [DPU_3_PIPE] |1183|  ; [ORIG 16-BIT INS]
    1767 000003a2 4288              CMP       A1, A2                ; [DPU_3_PIPE] |1183|  ; [ORIG 16-BIT INS]
    1768 000003a4 D101              BNE       ||$C$L30||            ; [DPU_3_PIPE] |1183|  ; [ORIG 16-BIT INS]
    1769                            ; BRANCHCC OCCURS {||$C$L30||}   ; [] |1183| 
    1770                    ;* --------------------------------------------------------------------------*
    1771                            .dwpsn  file "H:/EECS_690/TI_ARM_Tiva_Projects_EECS_690_Sp16/Source/tasks.c",line 1188,column 
    1772 000003a6 2001              MOVS      A1, #1                ; [DPU_3_PIPE] |1188|  ; [ORIG 16-BIT INS]
    1773 000003a8 9005              STR       A1, [SP, #20]         ; [DPU_3_PIPE] |1188|  ; [ORIG 16-BIT INS]
    1774                            .dwpsn  file "H:/EECS_690/TI_ARM_Tiva_Projects_EECS_690_Sp16/Source/tasks.c",line 1189,column 
    1775                    ;* --------------------------------------------------------------------------*
    1776 000003aa           ||$C$L30||:    
    1777                            .dwpsn  file "H:/EECS_690/TI_ARM_Tiva_Projects_EECS_690_Sp16/Source/tasks.c",line 1200,column 
    1778 000003aa 9802              LDR       A1, [SP, #8]          ; [DPU_3_PIPE] |1200|  ; [ORIG 16-BIT INS]
    1779 000003ac 6AC0              LDR       A1, [A1, #44]         ; [DPU_3_PIPE] |1200|  ; [ORIG 16-BIT INS]
    1780 000003ae 9004              STR       A1, [SP, #16]         ; [DPU_3_PIPE] |1200|  ; [ORIG 16-BIT INS]
    1781                            .dwpsn  file "H:/EECS_690/TI_ARM_Tiva_Projects_EECS_690_Sp16/Source/tasks.c",line 1206,column 
    1782 000003b0 9902              LDR       A2, [SP, #8]          ; [DPU_3_PIPE] |1206|  ; [ORIG 16-BIT INS]
    1783 000003b2 9802              LDR       A1, [SP, #8]          ; [DPU_3_PIPE] |1206|  ; [ORIG 16-BIT INS]
    1784 000003b4 6C89              LDR       A2, [A2, #72]         ; [DPU_3_PIPE] |1206|  ; [ORIG 16-BIT INS]
    1785 000003b6 6AC0              LDR       A1, [A1, #44]         ; [DPU_3_PIPE] |1206|  ; [ORIG 16-BIT INS]
    1786 000003b8 4288              CMP       A1, A2                ; [DPU_3_PIPE] |1206|  ; [ORIG 16-BIT INS]
    1787 000003ba D102              BNE       ||$C$L31||            ; [DPU_3_PIPE] |1206|  ; [ORIG 16-BIT INS]
    1788                            ; BRANCHCC OCCURS {||$C$L31||}   ; [] |1206| 
    1789                    ;* --------------------------------------------------------------------------*
    1790                            .dwpsn  file "H:/EECS_690/TI_ARM_Tiva_Projects_EECS_690_Sp16/Source/tasks.c",line 1208,column 
    1791 000003bc 9801              LDR       A1, [SP, #4]          ; [DPU_3_PIPE] |1208|  ; [ORIG 16-BIT INS]
    1792 000003be 9902              LDR       A2, [SP, #8]          ; [DPU_3_PIPE] |1208|  ; [ORIG 16-BIT INS]
    1793 000003c0 62C8              STR       A1, [A2, #44]         ; [DPU_3_PIPE] |1208|  ; [ORIG 16-BIT INS]
    1794                            .dwpsn  file "H:/EECS_690/TI_ARM_Tiva_Projects_EECS_690_Sp16/Source/tasks.c",line 1209,column 
    1795                    ;* --------------------------------------------------------------------------*
    1796 000003c2           ||$C$L31||:    
    1797                            .dwpsn  file "H:/EECS_690/TI_ARM_Tiva_Projects_EECS_690_Sp16/Source/tasks.c",line 1216,column 
    1798 000003c2 9801              LDR       A1, [SP, #4]          ; [DPU_3_PIPE] |1216|  ; [ORIG 16-BIT INS]
    1799 000003c4 9902              LDR       A2, [SP, #8]          ; [DPU_3_PIPE] |1216|  ; [ORIG 16-BIT INS]
    1800 000003c6 6488              STR       A1, [A2, #72]         ; [DPU_3_PIPE] |1216|  ; [ORIG 16-BIT INS]
    1801                            .dwpsn  file "H:/EECS_690/TI_ARM_Tiva_Projects_EECS_690_Sp16/Source/tasks.c",line 1226,column 
    1802 000003c8 9802              LDR       A1, [SP, #8]          ; [DPU_3_PIPE] |1226|  ; [ORIG 16-BIT INS]
    1803 000003ca 6980              LDR       A1, [A1, #24]         ; [DPU_3_PIPE] |1226|  ; [ORIG 16-BIT INS]
    1804 000003cc 0800              LSRS      A1, A1, #32           ; [DPU_3_PIPE] |1226|  ; [ORIG 16-BIT INS]
    1805 000003ce D204              BCS       ||$C$L32||            ; [DPU_3_PIPE] |1226|  ; [ORIG 16-BIT INS]
    1806                            ; BRANCHCC OCCURS {||$C$L32||}   ; [] |1226| 
TI ARM Assembler PC v5.2.2 Thu Mar 10 16:27:04 2016

Tools Copyright (c) 1996-2015 Texas Instruments Incorporated
tasks.asm                                                            PAGE   34

    1807                    ;* --------------------------------------------------------------------------*
    1808                            .dwpsn  file "H:/EECS_690/TI_ARM_Tiva_Projects_EECS_690_Sp16/Source/tasks.c",line 1228,column 
    1809 000003d0 9801              LDR       A1, [SP, #4]          ; [DPU_3_PIPE] |1228|  ; [ORIG 16-BIT INS]
    1810 000003d2 9902              LDR       A2, [SP, #8]          ; [DPU_3_PIPE] |1228|  ; [ORIG 16-BIT INS]
    1811 000003d4 0005F1C0          RSB       A1, A1, #5            ; [DPU_3_PIPE] |1228|  ; [KEEP 32-BIT INS]
    1812 000003d8 6188              STR       A1, [A2, #24]         ; [DPU_3_PIPE] |1228|  ; [ORIG 16-BIT INS]
    1813                            .dwpsn  file "H:/EECS_690/TI_ARM_Tiva_Projects_EECS_690_Sp16/Source/tasks.c",line 1229,column 
    1814                    ;* --------------------------------------------------------------------------*
    1815 000003da           ||$C$L32||:    
    1816                            .dwpsn  file "H:/EECS_690/TI_ARM_Tiva_Projects_EECS_690_Sp16/Source/tasks.c",line 1239,column 
    1817 000003da 9802              LDR       A1, [SP, #8]          ; [DPU_3_PIPE] |1239|  ; [ORIG 16-BIT INS]
    1818 000003dc 9B04              LDR       A4, [SP, #16]         ; [DPU_3_PIPE] |1239|  ; [ORIG 16-BIT INS]
    1819 000003de 499D              LDR       A2, $C$CON12          ; [DPU_3_PIPE] |1239|  ; [ORIG 16-BIT INS]
    1820 000003e0 6942              LDR       A3, [A1, #20]         ; [DPU_3_PIPE] |1239|  ; [ORIG 16-BIT INS]
    1821 000003e2 0098              LSLS      A1, A4, #2            ; [DPU_3_PIPE] |1239|  ; [ORIG 16-BIT INS]
    1822 000003e4 1003EB00          ADD       A1, A1, A4, LSL #4    ; [DPU_3_PIPE] |1239|  ; [KEEP 32-BIT INS]
    1823 000003e8 1809              ADDS      A2, A2, A1            ; [DPU_3_PIPE] |1239|  ; [ORIG 16-BIT INS]
    1824 000003ea 2000              MOVS      A1, #0                ; [DPU_3_PIPE] |1239|  ; [ORIG 16-BIT INS]
    1825 000003ec 4291              CMP       A2, A3                ; [DPU_3_PIPE] |1239|  ; [ORIG 16-BIT INS]
    1826 000003ee D100              BNE       ||$C$L33||            ; [DPU_3_PIPE] |1239|  ; [ORIG 16-BIT INS]
    1827                            ; BRANCHCC OCCURS {||$C$L33||}   ; [] |1239| 
    1828                    ;* --------------------------------------------------------------------------*
    1829 000003f0 2001              MOVS      A1, #1                ; [DPU_3_PIPE] |1239|  ; [ORIG 16-BIT INS]
    1830                    ;* --------------------------------------------------------------------------*
    1831 000003f2           ||$C$L33||:    
    1832 000003f2 B1F0              CBZ       A1, ||$C$L35||        ; []  ; [ORIG 16-BIT INS]
    1833                            ; BRANCHCC OCCURS {||$C$L35||}   ; [] |1239| 
    1834                    ;* --------------------------------------------------------------------------*
    1835                            .dwpsn  file "H:/EECS_690/TI_ARM_Tiva_Projects_EECS_690_Sp16/Source/tasks.c",line 1244,column 
    1836 000003f4 9802              LDR       A1, [SP, #8]          ; [DPU_3_PIPE] |1244|  ; [ORIG 16-BIT INS]
    1837 000003f6 1D00              ADDS      A1, A1, #4            ; [DPU_3_PIPE] |1244|  ; [ORIG 16-BIT INS]
    1838                    $C$DW$141       .dwtag  DW_TAG_TI_branch
    1839                            .dwattr $C$DW$141, DW_AT_low_pc(0x00)
    1840                            .dwattr $C$DW$141, DW_AT_name("uxListRemove")
    1841                            .dwattr $C$DW$141, DW_AT_TI_call
    1842 000003f8 FFFEF7FF!         BL        uxListRemove          ; [DPU_3_PIPE] |1244|  ; [KEEP 32-BIT INS]
    1843                            ; CALL OCCURS {uxListRemove }    ; [] |1244| 
    1844 000003fc B930              CBNZ      A1, ||$C$L34||        ; []  ; [ORIG 16-BIT INS]
    1845                            ; BRANCHCC OCCURS {||$C$L34||}   ; [] |1244| 
    1846                    ;* --------------------------------------------------------------------------*
    1847                            .dwpsn  file "H:/EECS_690/TI_ARM_Tiva_Projects_EECS_690_Sp16/Source/tasks.c",line 1249,column 
    1848 000003fe 4A96              LDR       A3, $C$CON13          ; [DPU_3_PIPE] |1249|  ; [ORIG 16-BIT INS]
    1849 00000400 9B04              LDR       A4, [SP, #16]         ; [DPU_3_PIPE] |1249|  ; [ORIG 16-BIT INS]
    1850 00000402 6811              LDR       A2, [A3, #0]          ; [DPU_3_PIPE] |1249|  ; [ORIG 16-BIT INS]
    1851 00000404 2001              MOVS      A1, #1                ; [DPU_3_PIPE] |1249|  ; [ORIG 16-BIT INS]
    1852 00000406 4098              LSLS      A1, A1, A4            ; [DPU_3_PIPE] |1249|  ; [ORIG 16-BIT INS]
    1853 00000408 4381              BICS      A2, A2, A1            ; [DPU_3_PIPE] |1249|  ; [ORIG 16-BIT INS]
    1854 0000040a 6011              STR       A2, [A3, #0]          ; [DPU_3_PIPE] |1249|  ; [ORIG 16-BIT INS]
    1855                            .dwpsn  file "H:/EECS_690/TI_ARM_Tiva_Projects_EECS_690_Sp16/Source/tasks.c",line 1250,column 
    1856                    ;* --------------------------------------------------------------------------*
    1857 0000040c           ||$C$L34||:    
    1858                            .dwpsn  file "H:/EECS_690/TI_ARM_Tiva_Projects_EECS_690_Sp16/Source/tasks.c",line 1255,column 
    1859 0000040c 9802              LDR       A1, [SP, #8]          ; [DPU_3_PIPE] |1255|  ; [ORIG 16-BIT INS]
    1860 0000040e 4A92              LDR       A3, $C$CON13          ; [DPU_3_PIPE] |1255|  ; [ORIG 16-BIT INS]
    1861 00000410 6AC4              LDR       V1, [A1, #44]         ; [DPU_3_PIPE] |1255|  ; [ORIG 16-BIT INS]
TI ARM Assembler PC v5.2.2 Thu Mar 10 16:27:04 2016

Tools Copyright (c) 1996-2015 Texas Instruments Incorporated
tasks.asm                                                            PAGE   35

    1862 00000412 6813              LDR       A4, [A3, #0]          ; [DPU_3_PIPE] |1255|  ; [ORIG 16-BIT INS]
    1863 00000414 9902              LDR       A2, [SP, #8]          ; [DPU_3_PIPE] |1255|  ; [ORIG 16-BIT INS]
    1864 00000416 2001              MOVS      A1, #1                ; [DPU_3_PIPE] |1255|  ; [ORIG 16-BIT INS]
    1865 00000418 40A0              LSLS      A1, A1, V1            ; [DPU_3_PIPE] |1255|  ; [ORIG 16-BIT INS]
    1866 0000041a 4318              ORRS      A1, A1, A4            ; [DPU_3_PIPE] |1255|  ; [ORIG 16-BIT INS]
    1867 0000041c 6010              STR       A1, [A3, #0]          ; [DPU_3_PIPE] |1255|  ; [ORIG 16-BIT INS]
    1868 0000041e 488D              LDR       A1, $C$CON12          ; [DPU_3_PIPE] |1255|  ; [ORIG 16-BIT INS]
    1869 00000420 6ACB              LDR       A4, [A2, #44]         ; [DPU_3_PIPE] |1255|  ; [ORIG 16-BIT INS]
    1870 00000422 9902              LDR       A2, [SP, #8]          ; [DPU_3_PIPE] |1255|  ; [ORIG 16-BIT INS]
    1871 00000424 009A              LSLS      A3, A4, #2            ; [DPU_3_PIPE] |1255|  ; [ORIG 16-BIT INS]
    1872 00000426 1D09              ADDS      A2, A2, #4            ; [DPU_3_PIPE] |1255|  ; [ORIG 16-BIT INS]
    1873 00000428 1203EB02          ADD       A3, A3, A4, LSL #4    ; [DPU_3_PIPE] |1255|  ; [KEEP 32-BIT INS]
    1874 0000042c 1880              ADDS      A1, A1, A3            ; [DPU_3_PIPE] |1255|  ; [ORIG 16-BIT INS]
    1875                    $C$DW$142       .dwtag  DW_TAG_TI_branch
    1876                            .dwattr $C$DW$142, DW_AT_low_pc(0x00)
    1877                            .dwattr $C$DW$142, DW_AT_name("vListInsertEnd")
    1878                            .dwattr $C$DW$142, DW_AT_TI_call
    1879 0000042e FFFEF7FF!         BL        vListInsertEnd        ; [DPU_3_PIPE] |1255|  ; [KEEP 32-BIT INS]
    1880                            ; CALL OCCURS {vListInsertEnd }  ; [] |1255| 
    1881                            .dwpsn  file "H:/EECS_690/TI_ARM_Tiva_Projects_EECS_690_Sp16/Source/tasks.c",line 1256,column 
    1882                    ;* --------------------------------------------------------------------------*
    1883 00000432           ||$C$L35||:    
    1884                            .dwpsn  file "H:/EECS_690/TI_ARM_Tiva_Projects_EECS_690_Sp16/Source/tasks.c",line 1262,column 
    1885 00000432 9805              LDR       A1, [SP, #20]         ; [DPU_3_PIPE] |1262|  ; [ORIG 16-BIT INS]
    1886 00000434 2801              CMP       A1, #1                ; [DPU_3_PIPE] |1262|  ; [ORIG 16-BIT INS]
    1887 00000436 D107              BNE       ||$C$L36||            ; [DPU_3_PIPE] |1262|  ; [ORIG 16-BIT INS]
    1888                            ; BRANCHCC OCCURS {||$C$L36||}   ; [] |1262| 
    1889                    ;* --------------------------------------------------------------------------*
    1890                            .dwpsn  file "H:/EECS_690/TI_ARM_Tiva_Projects_EECS_690_Sp16/Source/tasks.c",line 1264,column 
    1891 00000438 49A8              LDR       A2, $C$CON14          ; [DPU_3_PIPE] |1264|  ; [ORIG 16-BIT INS]
    1892 0000043a 5080F04F          MOV       A1, #268435456        ; [DPU_3_PIPE] |1264|  ; [KEEP 32-BIT INS]
    1893 0000043e 6008              STR       A1, [A2, #0]          ; [DPU_3_PIPE] |1264|  ; [ORIG 16-BIT INS]
    1894 00000440 8F4FF3BF          dsb ; [KEEP 32-BIT INS]
    1895 00000444 8F6FF3BF          isb ; [KEEP 32-BIT INS]
    1896                            .dwpsn  file "H:/EECS_690/TI_ARM_Tiva_Projects_EECS_690_Sp16/Source/tasks.c",line 1265,column 
    1897                    ;* --------------------------------------------------------------------------*
    1898 00000448           ||$C$L36||:    
    1899                            .dwpsn  file "H:/EECS_690/TI_ARM_Tiva_Projects_EECS_690_Sp16/Source/tasks.c",line 1273,column 
    1900                    ;* --------------------------------------------------------------------------*
    1901 00000448           ||$C$L37||:    
    1902                            .dwpsn  file "H:/EECS_690/TI_ARM_Tiva_Projects_EECS_690_Sp16/Source/tasks.c",line 1276,column 
    1903                    $C$DW$143       .dwtag  DW_TAG_TI_branch
    1904                            .dwattr $C$DW$143, DW_AT_low_pc(0x00)
    1905                            .dwattr $C$DW$143, DW_AT_name("vPortExitCritical")
    1906                            .dwattr $C$DW$143, DW_AT_TI_call
    1907 00000448 FFFEF7FF!         BL        vPortExitCritical     ; [DPU_3_PIPE] |1276|  ; [KEEP 32-BIT INS]
    1908                            ; CALL OCCURS {vPortExitCritical }  ; [] |1276| 
    1909                            .dwpsn  file "H:/EECS_690/TI_ARM_Tiva_Projects_EECS_690_Sp16/Source/tasks.c",line 1277,column 
    1910 0000044c B006              ADD       SP, SP, #24           ; [DPU_3_PIPE]  ; [ORIG 16-BIT INS]
    1911                            .dwcfi  cfa_offset, 8
    1912                    $C$DW$144       .dwtag  DW_TAG_TI_branch
    1913                            .dwattr $C$DW$144, DW_AT_low_pc(0x00)
    1914                            .dwattr $C$DW$144, DW_AT_TI_return
    1915 0000044e BD10              POP       {V1, PC}              ; [DPU_3_PIPE]  ; [ORIG 16-BIT INS]
    1916                            .dwcfi  cfa_offset, 0
TI ARM Assembler PC v5.2.2 Thu Mar 10 16:27:04 2016

Tools Copyright (c) 1996-2015 Texas Instruments Incorporated
tasks.asm                                                            PAGE   36

    1917                            ; BRANCH OCCURS                  ; [] 
    1918                            .dwattr $C$DW$131, DW_AT_TI_end_file("H:/EECS_690/TI_ARM_Tiva_Projects_EECS_690_Sp16/Source/ta
    1919                            .dwattr $C$DW$131, DW_AT_TI_end_line(0x4fd)
    1920                            .dwattr $C$DW$131, DW_AT_TI_end_column(0x02)
    1921                            .dwendentry
    1922                            .dwendtag $C$DW$131
    1923                    
    1924                    ;******************************************************************************
    1925                    ;* CONSTANT TABLE                                                             *
    1926                    ;******************************************************************************
    1927 00000450                   .sect   ".text"
    1928                            .align  4
    1929 00000450 00000000! ||$C$CON10||:   .bits   xTickCount,32
    1930 00000454                   .sect   ".text"
    1931                            .clink
    1932                            .thumbfunc vTaskSuspend
    1933 00000454                   .thumb
    1934                            .global vTaskSuspend
    1935                    
    1936                    $C$DW$145       .dwtag  DW_TAG_subprogram, DW_AT_name("vTaskSuspend")
    1937                            .dwattr $C$DW$145, DW_AT_low_pc(vTaskSuspend)
    1938                            .dwattr $C$DW$145, DW_AT_high_pc(0x00)
    1939                            .dwattr $C$DW$145, DW_AT_TI_symbol_name("vTaskSuspend")
    1940                            .dwattr $C$DW$145, DW_AT_external
    1941                            .dwattr $C$DW$145, DW_AT_TI_begin_file("H:/EECS_690/TI_ARM_Tiva_Projects_EECS_690_Sp16/Source/
    1942                            .dwattr $C$DW$145, DW_AT_TI_begin_line(0x504)
    1943                            .dwattr $C$DW$145, DW_AT_TI_begin_column(0x07)
    1944                            .dwattr $C$DW$145, DW_AT_decl_file("H:/EECS_690/TI_ARM_Tiva_Projects_EECS_690_Sp16/Source/task
    1945                            .dwattr $C$DW$145, DW_AT_decl_line(0x504)
    1946                            .dwattr $C$DW$145, DW_AT_decl_column(0x07)
    1947                            .dwattr $C$DW$145, DW_AT_TI_max_frame_size(0x10)
    1948                            .dwpsn  file "H:/EECS_690/TI_ARM_Tiva_Projects_EECS_690_Sp16/Source/tasks.c",line 1285,column 
    1949                    
    1950                            .dwfde $C$DW$CIE, vTaskSuspend
    1951                    $C$DW$146       .dwtag  DW_TAG_formal_parameter, DW_AT_name("xTaskToSuspend")
    1952                            .dwattr $C$DW$146, DW_AT_TI_symbol_name("xTaskToSuspend")
    1953                            .dwattr $C$DW$146, DW_AT_type(*$C$DW$T$59)
    1954                            .dwattr $C$DW$146, DW_AT_location[DW_OP_reg0]
    1955                    
    1956                    ;*****************************************************************************
    1957                    ;* FUNCTION NAME: vTaskSuspend                                               *
    1958                    ;*                                                                           *
    1959                    ;*   Regs Modified     : A1,A2,A3,A4,V9,SP,LR,SR,D0,D0_hi,D1,D1_hi,D2,D2_hi, *
    1960                    ;*                           D3,D3_hi,D4,D4_hi,D5,D5_hi,D6,D6_hi,D7,D7_hi,   *
    1961                    ;*                           FPEXC,FPSCR                                     *
    1962                    ;*   Regs Used         : A1,A2,A3,A4,V9,SP,LR,SR,D0,D0_hi,D1,D1_hi,D2,D2_hi, *
    1963                    ;*                           D3,D3_hi,D4,D4_hi,D5,D5_hi,D6,D6_hi,D7,D7_hi,   *
    1964                    ;*                           FPEXC,FPSCR                                     *
    1965                    ;*   Local Frame Size  : 0 Args + 8 Auto + 4 Save = 12 byte                  *
    1966                    ;*****************************************************************************
    1967 00000454           vTaskSuspend:
    1968                    ;* --------------------------------------------------------------------------*
    1969                            .dwcfi  cfa_offset, 0
    1970 00000454 B50E              PUSH      {A2, A3, A4, LR}      ; [DPU_3_PIPE]  ; [ORIG 16-BIT INS]
    1971                            .dwcfi  cfa_offset, 16
TI ARM Assembler PC v5.2.2 Thu Mar 10 16:27:04 2016

Tools Copyright (c) 1996-2015 Texas Instruments Incorporated
tasks.asm                                                            PAGE   37

    1972                            .dwcfi  save_reg_to_mem, 14, -4
    1973                            .dwcfi  save_reg_to_mem, 3, -8
    1974                            .dwcfi  save_reg_to_mem, 2, -12
    1975                            .dwcfi  save_reg_to_mem, 1, -16
    1976                    $C$DW$147       .dwtag  DW_TAG_variable, DW_AT_name("xTaskToSuspend")
    1977                            .dwattr $C$DW$147, DW_AT_TI_symbol_name("xTaskToSuspend")
    1978                            .dwattr $C$DW$147, DW_AT_type(*$C$DW$T$59)
    1979                            .dwattr $C$DW$147, DW_AT_location[DW_OP_breg13 0]
    1980                    $C$DW$148       .dwtag  DW_TAG_variable, DW_AT_name("pxTCB")
    1981                            .dwattr $C$DW$148, DW_AT_TI_symbol_name("pxTCB")
    1982                            .dwattr $C$DW$148, DW_AT_type(*$C$DW$T$120)
    1983                            .dwattr $C$DW$148, DW_AT_location[DW_OP_breg13 4]
    1984 00000456 9000              STR       A1, [SP, #0]          ; [DPU_3_PIPE] |1285|  ; [ORIG 16-BIT INS]
    1985                            .dwpsn  file "H:/EECS_690/TI_ARM_Tiva_Projects_EECS_690_Sp16/Source/tasks.c",line 1288,column 
    1986                    $C$DW$149       .dwtag  DW_TAG_TI_branch
    1987                            .dwattr $C$DW$149, DW_AT_low_pc(0x00)
    1988                            .dwattr $C$DW$149, DW_AT_name("vPortEnterCritical")
    1989                            .dwattr $C$DW$149, DW_AT_TI_call
    1990 00000458 FFFEF7FF!         BL        vPortEnterCritical    ; [DPU_3_PIPE] |1288|  ; [KEEP 32-BIT INS]
    1991                            ; CALL OCCURS {vPortEnterCritical }  ; [] |1288| 
    1992                            .dwpsn  file "H:/EECS_690/TI_ARM_Tiva_Projects_EECS_690_Sp16/Source/tasks.c",line 1292,column 
    1993 0000045c 9800              LDR       A1, [SP, #0]          ; [DPU_3_PIPE] |1292|  ; [ORIG 16-BIT INS]
    1994 0000045e B910              CBNZ      A1, ||$C$L38||        ; []  ; [ORIG 16-BIT INS]
    1995                            ; BRANCHCC OCCURS {||$C$L38||}   ; [] |1292| 
    1996                    ;* --------------------------------------------------------------------------*
    1997 00000460 4843              LDR       A1, $C$CON11          ; [DPU_3_PIPE] |1292|  ; [ORIG 16-BIT INS]
    1998 00000462 6800              LDR       A1, [A1, #0]          ; [DPU_3_PIPE] |1292|  ; [ORIG 16-BIT INS]
    1999 00000464 E000              B         ||$C$L39||            ; [DPU_3_PIPE] |1292|  ; [ORIG 16-BIT INS]
    2000                            ; BRANCH OCCURS {||$C$L39||}     ; [] |1292| 
    2001                    ;* --------------------------------------------------------------------------*
    2002 00000466           ||$C$L38||:    
    2003 00000466 9800              LDR       A1, [SP, #0]          ; [DPU_3_PIPE] |1292|  ; [ORIG 16-BIT INS]
    2004                    ;* --------------------------------------------------------------------------*
    2005 00000468           ||$C$L39||:    
    2006 00000468 9001              STR       A1, [SP, #4]          ; [DPU_3_PIPE] |1292|  ; [ORIG 16-BIT INS]
    2007                            .dwpsn  file "H:/EECS_690/TI_ARM_Tiva_Projects_EECS_690_Sp16/Source/tasks.c",line 1298,column 
    2008 0000046a 9801              LDR       A1, [SP, #4]          ; [DPU_3_PIPE] |1298|  ; [ORIG 16-BIT INS]
    2009 0000046c 1D00              ADDS      A1, A1, #4            ; [DPU_3_PIPE] |1298|  ; [ORIG 16-BIT INS]
    2010                    $C$DW$150       .dwtag  DW_TAG_TI_branch
    2011                            .dwattr $C$DW$150, DW_AT_low_pc(0x00)
    2012                            .dwattr $C$DW$150, DW_AT_name("uxListRemove")
    2013                            .dwattr $C$DW$150, DW_AT_TI_call
    2014 0000046e FFFEF7FF!         BL        uxListRemove          ; [DPU_3_PIPE] |1298|  ; [KEEP 32-BIT INS]
    2015                            ; CALL OCCURS {uxListRemove }    ; [] |1298| 
    2016 00000472 B978              CBNZ      A1, ||$C$L40||        ; []  ; [ORIG 16-BIT INS]
    2017                            ; BRANCHCC OCCURS {||$C$L40||}   ; [] |1298| 
    2018                    ;* --------------------------------------------------------------------------*
    2019                            .dwpsn  file "H:/EECS_690/TI_ARM_Tiva_Projects_EECS_690_Sp16/Source/tasks.c",line 1300,column 
    2020 00000474 9801              LDR       A1, [SP, #4]          ; [DPU_3_PIPE] |1300|  ; [ORIG 16-BIT INS]
    2021 00000476 4977              LDR       A2, $C$CON12          ; [DPU_3_PIPE] |1300|  ; [ORIG 16-BIT INS]
    2022 00000478 6AC2              LDR       A3, [A1, #44]         ; [DPU_3_PIPE] |1300|  ; [ORIG 16-BIT INS]
    2023 0000047a 0090              LSLS      A1, A3, #2            ; [DPU_3_PIPE] |1300|  ; [ORIG 16-BIT INS]
    2024 0000047c 1002EB00          ADD       A1, A1, A3, LSL #4    ; [DPU_3_PIPE] |1300|  ; [KEEP 32-BIT INS]
    2025 00000480 5808              LDR       A1, [A2, +A1]         ; [DPU_3_PIPE] |1300|  ; [ORIG 16-BIT INS]
    2026 00000482 B938              CBNZ      A1, ||$C$L40||        ; []  ; [ORIG 16-BIT INS]
TI ARM Assembler PC v5.2.2 Thu Mar 10 16:27:04 2016

Tools Copyright (c) 1996-2015 Texas Instruments Incorporated
tasks.asm                                                            PAGE   38

    2027                            ; BRANCHCC OCCURS {||$C$L40||}   ; [] |1300| 
    2028                    ;* --------------------------------------------------------------------------*
    2029 00000484 9801              LDR       A1, [SP, #4]          ; [DPU_3_PIPE] |1300|  ; [ORIG 16-BIT INS]
    2030 00000486 4A74              LDR       A3, $C$CON13          ; [DPU_3_PIPE] |1300|  ; [ORIG 16-BIT INS]
    2031 00000488 6AC3              LDR       A4, [A1, #44]         ; [DPU_3_PIPE] |1300|  ; [ORIG 16-BIT INS]
    2032 0000048a 6811              LDR       A2, [A3, #0]          ; [DPU_3_PIPE] |1300|  ; [ORIG 16-BIT INS]
    2033 0000048c 2001              MOVS      A1, #1                ; [DPU_3_PIPE] |1300|  ; [ORIG 16-BIT INS]
    2034 0000048e 4098              LSLS      A1, A1, A4            ; [DPU_3_PIPE] |1300|  ; [ORIG 16-BIT INS]
    2035 00000490 4381              BICS      A2, A2, A1            ; [DPU_3_PIPE] |1300|  ; [ORIG 16-BIT INS]
    2036 00000492 6011              STR       A2, [A3, #0]          ; [DPU_3_PIPE] |1300|  ; [ORIG 16-BIT INS]
    2037                            .dwpsn  file "H:/EECS_690/TI_ARM_Tiva_Projects_EECS_690_Sp16/Source/tasks.c",line 1301,column 
    2038                    ;* --------------------------------------------------------------------------*
    2039 00000494           ||$C$L40||:    
    2040                            .dwpsn  file "H:/EECS_690/TI_ARM_Tiva_Projects_EECS_690_Sp16/Source/tasks.c",line 1308,column 
    2041 00000494 9801              LDR       A1, [SP, #4]          ; [DPU_3_PIPE] |1308|  ; [ORIG 16-BIT INS]
    2042 00000496 6A80              LDR       A1, [A1, #40]         ; [DPU_3_PIPE] |1308|  ; [ORIG 16-BIT INS]
    2043 00000498 B118              CBZ       A1, ||$C$L41||        ; []  ; [ORIG 16-BIT INS]
    2044                            ; BRANCHCC OCCURS {||$C$L41||}   ; [] |1308| 
    2045                    ;* --------------------------------------------------------------------------*
    2046                            .dwpsn  file "H:/EECS_690/TI_ARM_Tiva_Projects_EECS_690_Sp16/Source/tasks.c",line 1310,column 
    2047 0000049a 9801              LDR       A1, [SP, #4]          ; [DPU_3_PIPE] |1310|  ; [ORIG 16-BIT INS]
    2048 0000049c 3018              ADDS      A1, A1, #24           ; [DPU_3_PIPE] |1310|  ; [ORIG 16-BIT INS]
    2049                    $C$DW$151       .dwtag  DW_TAG_TI_branch
    2050                            .dwattr $C$DW$151, DW_AT_low_pc(0x00)
    2051                            .dwattr $C$DW$151, DW_AT_name("uxListRemove")
    2052                            .dwattr $C$DW$151, DW_AT_TI_call
    2053 0000049e FFFEF7FF!         BL        uxListRemove          ; [DPU_3_PIPE] |1310|  ; [KEEP 32-BIT INS]
    2054                            ; CALL OCCURS {uxListRemove }    ; [] |1310| 
    2055                            .dwpsn  file "H:/EECS_690/TI_ARM_Tiva_Projects_EECS_690_Sp16/Source/tasks.c",line 1311,column 
    2056                    ;* --------------------------------------------------------------------------*
    2057 000004a2           ||$C$L41||:    
    2058                            .dwpsn  file "H:/EECS_690/TI_ARM_Tiva_Projects_EECS_690_Sp16/Source/tasks.c",line 1317,column 
    2059 000004a2 9901              LDR       A2, [SP, #4]          ; [DPU_3_PIPE] |1317|  ; [ORIG 16-BIT INS]
    2060 000004a4 4891              LDR       A1, $C$CON15          ; [DPU_3_PIPE] |1317|  ; [ORIG 16-BIT INS]
    2061 000004a6 1D09              ADDS      A2, A2, #4            ; [DPU_3_PIPE] |1317|  ; [ORIG 16-BIT INS]
    2062                    $C$DW$152       .dwtag  DW_TAG_TI_branch
    2063                            .dwattr $C$DW$152, DW_AT_low_pc(0x00)
    2064                            .dwattr $C$DW$152, DW_AT_name("vListInsertEnd")
    2065                            .dwattr $C$DW$152, DW_AT_TI_call
    2066 000004a8 FFFEF7FF!         BL        vListInsertEnd        ; [DPU_3_PIPE] |1317|  ; [KEEP 32-BIT INS]
    2067                            ; CALL OCCURS {vListInsertEnd }  ; [] |1317| 
    2068                            .dwpsn  file "H:/EECS_690/TI_ARM_Tiva_Projects_EECS_690_Sp16/Source/tasks.c",line 1319,column 
    2069                    $C$DW$153       .dwtag  DW_TAG_TI_branch
    2070                            .dwattr $C$DW$153, DW_AT_low_pc(0x00)
    2071                            .dwattr $C$DW$153, DW_AT_name("vPortExitCritical")
    2072                            .dwattr $C$DW$153, DW_AT_TI_call
    2073 000004ac FFFEF7FF!         BL        vPortExitCritical     ; [DPU_3_PIPE] |1319|  ; [KEEP 32-BIT INS]
    2074                            ; CALL OCCURS {vPortExitCritical }  ; [] |1319| 
    2075                            .dwpsn  file "H:/EECS_690/TI_ARM_Tiva_Projects_EECS_690_Sp16/Source/tasks.c",line 1321,column 
    2076 000004b0 482F              LDR       A1, $C$CON11          ; [DPU_3_PIPE] |1321|  ; [ORIG 16-BIT INS]
    2077 000004b2 9901              LDR       A2, [SP, #4]          ; [DPU_3_PIPE] |1321|  ; [ORIG 16-BIT INS]
    2078 000004b4 6800              LDR       A1, [A1, #0]          ; [DPU_3_PIPE] |1321|  ; [ORIG 16-BIT INS]
    2079 000004b6 4288              CMP       A1, A2                ; [DPU_3_PIPE] |1321|  ; [ORIG 16-BIT INS]
    2080 000004b8 D118              BNE       ||$C$L44||            ; [DPU_3_PIPE] |1321|  ; [ORIG 16-BIT INS]
    2081                            ; BRANCHCC OCCURS {||$C$L44||}   ; [] |1321| 
TI ARM Assembler PC v5.2.2 Thu Mar 10 16:27:04 2016

Tools Copyright (c) 1996-2015 Texas Instruments Incorporated
tasks.asm                                                            PAGE   39

    2082                    ;* --------------------------------------------------------------------------*
    2083                            .dwpsn  file "H:/EECS_690/TI_ARM_Tiva_Projects_EECS_690_Sp16/Source/tasks.c",line 1323,column 
    2084 000004ba 488D              LDR       A1, $C$CON16          ; [DPU_3_PIPE] |1323|  ; [ORIG 16-BIT INS]
    2085 000004bc 6800              LDR       A1, [A1, #0]          ; [DPU_3_PIPE] |1323|  ; [ORIG 16-BIT INS]
    2086 000004be B140              CBZ       A1, ||$C$L42||        ; []  ; [ORIG 16-BIT INS]
    2087                            ; BRANCHCC OCCURS {||$C$L42||}   ; [] |1323| 
    2088                    ;* --------------------------------------------------------------------------*
    2089                            .dwpsn  file "H:/EECS_690/TI_ARM_Tiva_Projects_EECS_690_Sp16/Source/tasks.c",line 1327,column 
    2090 000004c0 4986              LDR       A2, $C$CON14          ; [DPU_3_PIPE] |1327|  ; [ORIG 16-BIT INS]
    2091 000004c2 5080F04F          MOV       A1, #268435456        ; [DPU_3_PIPE] |1327|  ; [KEEP 32-BIT INS]
    2092 000004c6 6008              STR       A1, [A2, #0]          ; [DPU_3_PIPE] |1327|  ; [ORIG 16-BIT INS]
    2093 000004c8 8F4FF3BF          dsb ; [KEEP 32-BIT INS]
    2094 000004cc 8F6FF3BF          isb ; [KEEP 32-BIT INS]
    2095                            .dwpsn  file "H:/EECS_690/TI_ARM_Tiva_Projects_EECS_690_Sp16/Source/tasks.c",line 1328,column 
    2096 000004d0 E016              B         ||$C$L45||            ; [DPU_3_PIPE] |1328|  ; [ORIG 16-BIT INS]
    2097                            ; BRANCH OCCURS {||$C$L45||}     ; [] |1328| 
    2098                    ;* --------------------------------------------------------------------------*
    2099 000004d2           ||$C$L42||:    
    2100                            .dwpsn  file "H:/EECS_690/TI_ARM_Tiva_Projects_EECS_690_Sp16/Source/tasks.c",line 1334,column 
    2101 000004d2 4891              LDR       A1, $C$CON17          ; [DPU_3_PIPE] |1334|  ; [ORIG 16-BIT INS]
    2102 000004d4 4985              LDR       A2, $C$CON15          ; [DPU_3_PIPE] |1334|  ; [ORIG 16-BIT INS]
    2103 000004d6 6800              LDR       A1, [A1, #0]          ; [DPU_3_PIPE] |1334|  ; [ORIG 16-BIT INS]
    2104 000004d8 6809              LDR       A2, [A2, #0]          ; [DPU_3_PIPE] |1334|  ; [ORIG 16-BIT INS]
    2105 000004da 4288              CMP       A1, A2                ; [DPU_3_PIPE] |1334|  ; [ORIG 16-BIT INS]
    2106 000004dc D103              BNE       ||$C$L43||            ; [DPU_3_PIPE] |1334|  ; [ORIG 16-BIT INS]
    2107                            ; BRANCHCC OCCURS {||$C$L43||}   ; [] |1334| 
    2108                    ;* --------------------------------------------------------------------------*
    2109                            .dwpsn  file "H:/EECS_690/TI_ARM_Tiva_Projects_EECS_690_Sp16/Source/tasks.c",line 1340,column 
    2110 000004de 4924              LDR       A2, $C$CON11          ; [DPU_3_PIPE] |1340|  ; [ORIG 16-BIT INS]
    2111 000004e0 2000              MOVS      A1, #0                ; [DPU_3_PIPE] |1340|  ; [ORIG 16-BIT INS]
    2112 000004e2 6008              STR       A1, [A2, #0]          ; [DPU_3_PIPE] |1340|  ; [ORIG 16-BIT INS]
    2113                            .dwpsn  file "H:/EECS_690/TI_ARM_Tiva_Projects_EECS_690_Sp16/Source/tasks.c",line 1341,column 
    2114 000004e4 E00C              B         ||$C$L45||            ; [DPU_3_PIPE] |1341|  ; [ORIG 16-BIT INS]
    2115                            ; BRANCH OCCURS {||$C$L45||}     ; [] |1341| 
    2116                    ;* --------------------------------------------------------------------------*
    2117 000004e6           ||$C$L43||:    
    2118                            .dwpsn  file "H:/EECS_690/TI_ARM_Tiva_Projects_EECS_690_Sp16/Source/tasks.c",line 1344,column 
    2119                    $C$DW$154       .dwtag  DW_TAG_TI_branch
    2120                            .dwattr $C$DW$154, DW_AT_low_pc(0x00)
    2121                            .dwattr $C$DW$154, DW_AT_name("vTaskSwitchContext")
    2122                            .dwattr $C$DW$154, DW_AT_TI_call
    2123 000004e6 FA87F000          BL        vTaskSwitchContext    ; [DPU_3_PIPE] |1344|  ; [KEEP 32-BIT INS]
    2124                            ; CALL OCCURS {vTaskSwitchContext }  ; [] |1344| 
    2125                            .dwpsn  file "H:/EECS_690/TI_ARM_Tiva_Projects_EECS_690_Sp16/Source/tasks.c",line 1347,column 
    2126 000004ea E009              B         ||$C$L45||            ; [DPU_3_PIPE] |1347|  ; [ORIG 16-BIT INS]
    2127                            ; BRANCH OCCURS {||$C$L45||}     ; [] |1347| 
    2128                    ;* --------------------------------------------------------------------------*
    2129 000004ec           ||$C$L44||:    
    2130                            .dwpsn  file "H:/EECS_690/TI_ARM_Tiva_Projects_EECS_690_Sp16/Source/tasks.c",line 1350,column 
    2131 000004ec 4880              LDR       A1, $C$CON16          ; [DPU_3_PIPE] |1350|  ; [ORIG 16-BIT INS]
    2132 000004ee 6800              LDR       A1, [A1, #0]          ; [DPU_3_PIPE] |1350|  ; [ORIG 16-BIT INS]
    2133 000004f0 B130              CBZ       A1, ||$C$L45||        ; []  ; [ORIG 16-BIT INS]
    2134                            ; BRANCHCC OCCURS {||$C$L45||}   ; [] |1350| 
    2135                    ;* --------------------------------------------------------------------------*
    2136                            .dwpsn  file "H:/EECS_690/TI_ARM_Tiva_Projects_EECS_690_Sp16/Source/tasks.c",line 1355,column 
TI ARM Assembler PC v5.2.2 Thu Mar 10 16:27:04 2016

Tools Copyright (c) 1996-2015 Texas Instruments Incorporated
tasks.asm                                                            PAGE   40

    2137                    $C$DW$155       .dwtag  DW_TAG_TI_branch
    2138                            .dwattr $C$DW$155, DW_AT_low_pc(0x00)
    2139                            .dwattr $C$DW$155, DW_AT_name("vPortEnterCritical")
    2140                            .dwattr $C$DW$155, DW_AT_TI_call
    2141 000004f2 FFFEF7FF!         BL        vPortEnterCritical    ; [DPU_3_PIPE] |1355|  ; [KEEP 32-BIT INS]
    2142                            ; CALL OCCURS {vPortEnterCritical }  ; [] |1355| 
    2143                            .dwpsn  file "H:/EECS_690/TI_ARM_Tiva_Projects_EECS_690_Sp16/Source/tasks.c",line 1357,column 
    2144                    $C$DW$156       .dwtag  DW_TAG_TI_branch
    2145                            .dwattr $C$DW$156, DW_AT_low_pc(0x00)
    2146                            .dwattr $C$DW$156, DW_AT_name("prvResetNextTaskUnblockTime")
    2147                            .dwattr $C$DW$156, DW_AT_TI_call
    2148 000004f6 FE0BF000          BL        prvResetNextTaskUnblockTime ; [DPU_3_PIPE] |1357|  ; [KEEP 32-BIT INS]
    2149                            ; CALL OCCURS {prvResetNextTaskUnblockTime }  ; [] |1357| 
    2150                            .dwpsn  file "H:/EECS_690/TI_ARM_Tiva_Projects_EECS_690_Sp16/Source/tasks.c",line 1359,column 
    2151                    $C$DW$157       .dwtag  DW_TAG_TI_branch
    2152                            .dwattr $C$DW$157, DW_AT_low_pc(0x00)
    2153                            .dwattr $C$DW$157, DW_AT_name("vPortExitCritical")
    2154                            .dwattr $C$DW$157, DW_AT_TI_call
    2155 000004fa FFFEF7FF!         BL        vPortExitCritical     ; [DPU_3_PIPE] |1359|  ; [KEEP 32-BIT INS]
    2156                            ; CALL OCCURS {vPortExitCritical }  ; [] |1359| 
    2157                            .dwpsn  file "H:/EECS_690/TI_ARM_Tiva_Projects_EECS_690_Sp16/Source/tasks.c",line 1360,column 
    2158 000004fe E7FF              B         ||$C$L45||            ; [DPU_3_PIPE] |1360|  ; [ORIG 16-BIT INS]
    2159                            ; BRANCH OCCURS {||$C$L45||}     ; [] |1360| 
    2160                    ;* --------------------------------------------------------------------------*
    2161                    ;* --------------------------------------------------------------------------*
    2162                    ||$C$L45||:    
    2163                    $C$DW$158       .dwtag  DW_TAG_TI_branch
    2164                            .dwattr $C$DW$158, DW_AT_low_pc(0x00)
    2165                            .dwattr $C$DW$158, DW_AT_TI_return
    2166 00000500 BD0E              POP       {A2, A3, A4, PC}      ; [DPU_3_PIPE]  ; [ORIG 16-BIT INS]
    2167                            .dwcfi  cfa_offset, 0
    2168                            ; BRANCH OCCURS                  ; [] 
    2169                            .dwattr $C$DW$145, DW_AT_TI_end_file("H:/EECS_690/TI_ARM_Tiva_Projects_EECS_690_Sp16/Source/ta
    2170                            .dwattr $C$DW$145, DW_AT_TI_end_line(0x556)
    2171                            .dwattr $C$DW$145, DW_AT_TI_end_column(0x02)
    2172                            .dwendentry
    2173                            .dwendtag $C$DW$145
    2174                    
    2175 00000502                   .sect   ".text"
    2176                            .clink
    2177                            .thumbfunc prvTaskIsTaskSuspended
    2178 00000502                   .thumb
    2179                    
    2180                    $C$DW$159       .dwtag  DW_TAG_subprogram, DW_AT_name("prvTaskIsTaskSuspended")
    2181                            .dwattr $C$DW$159, DW_AT_low_pc(prvTaskIsTaskSuspended)
    2182                            .dwattr $C$DW$159, DW_AT_high_pc(0x00)
    2183                            .dwattr $C$DW$159, DW_AT_TI_symbol_name("prvTaskIsTaskSuspended")
    2184                            .dwattr $C$DW$159, DW_AT_type(*$C$DW$T$64)
    2185                            .dwattr $C$DW$159, DW_AT_TI_begin_file("H:/EECS_690/TI_ARM_Tiva_Projects_EECS_690_Sp16/Source/
    2186                            .dwattr $C$DW$159, DW_AT_TI_begin_line(0x55d)
    2187                            .dwattr $C$DW$159, DW_AT_TI_begin_column(0x14)
    2188                            .dwattr $C$DW$159, DW_AT_decl_file("H:/EECS_690/TI_ARM_Tiva_Projects_EECS_690_Sp16/Source/task
    2189                            .dwattr $C$DW$159, DW_AT_decl_line(0x55d)
    2190                            .dwattr $C$DW$159, DW_AT_decl_column(0x14)
    2191                            .dwattr $C$DW$159, DW_AT_TI_max_frame_size(0x10)
TI ARM Assembler PC v5.2.2 Thu Mar 10 16:27:04 2016

Tools Copyright (c) 1996-2015 Texas Instruments Incorporated
tasks.asm                                                            PAGE   41

    2192                            .dwpsn  file "H:/EECS_690/TI_ARM_Tiva_Projects_EECS_690_Sp16/Source/tasks.c",line 1374,column 
    2193                    
    2194                            .dwfde $C$DW$CIE, prvTaskIsTaskSuspended
    2195                    $C$DW$160       .dwtag  DW_TAG_formal_parameter, DW_AT_name("xTask")
    2196                            .dwattr $C$DW$160, DW_AT_TI_symbol_name("xTask")
    2197                            .dwattr $C$DW$160, DW_AT_type(*$C$DW$T$74)
    2198                            .dwattr $C$DW$160, DW_AT_location[DW_OP_reg0]
    2199                    
    2200                    ;*****************************************************************************
    2201                    ;* FUNCTION NAME: prvTaskIsTaskSuspended                                     *
    2202                    ;*                                                                           *
    2203                    ;*   Regs Modified     : A1,A2,A3,SP,SR                                      *
    2204                    ;*   Regs Used         : A1,A2,A3,SP,LR,SR                                   *
    2205                    ;*   Local Frame Size  : 0 Args + 12 Auto + 0 Save = 12 byte                 *
    2206                    ;*****************************************************************************
    2207 00000502           prvTaskIsTaskSuspended:
    2208                    ;* --------------------------------------------------------------------------*
    2209                            .dwcfi  cfa_offset, 0
    2210 00000502 0D10F1AD          SUB       SP, SP, #16           ; [DPU_3_PIPE]  ; [KEEP 32-BIT INS]
    2211                            .dwcfi  cfa_offset, 16
    2212                    $C$DW$161       .dwtag  DW_TAG_variable, DW_AT_name("xTask")
    2213                            .dwattr $C$DW$161, DW_AT_TI_symbol_name("xTask")
    2214                            .dwattr $C$DW$161, DW_AT_type(*$C$DW$T$74)
    2215                            .dwattr $C$DW$161, DW_AT_location[DW_OP_breg13 0]
    2216                    $C$DW$162       .dwtag  DW_TAG_variable, DW_AT_name("xReturn")
    2217                            .dwattr $C$DW$162, DW_AT_TI_symbol_name("xReturn")
    2218                            .dwattr $C$DW$162, DW_AT_type(*$C$DW$T$64)
    2219                            .dwattr $C$DW$162, DW_AT_location[DW_OP_breg13 4]
    2220                    $C$DW$163       .dwtag  DW_TAG_variable, DW_AT_name("pxTCB")
    2221                            .dwattr $C$DW$163, DW_AT_TI_symbol_name("pxTCB")
    2222                            .dwattr $C$DW$163, DW_AT_type(*$C$DW$T$243)
    2223                            .dwattr $C$DW$163, DW_AT_location[DW_OP_breg13 8]
    2224 00000506 9000              STR       A1, [SP, #0]          ; [DPU_3_PIPE] |1374|  ; [ORIG 16-BIT INS]
    2225                            .dwpsn  file "H:/EECS_690/TI_ARM_Tiva_Projects_EECS_690_Sp16/Source/tasks.c",line 1375,column 
    2226 00000508 2000              MOVS      A1, #0                ; [DPU_3_PIPE] |1375|  ; [ORIG 16-BIT INS]
    2227 0000050a 9001              STR       A1, [SP, #4]          ; [DPU_3_PIPE] |1375|  ; [ORIG 16-BIT INS]
    2228                            .dwpsn  file "H:/EECS_690/TI_ARM_Tiva_Projects_EECS_690_Sp16/Source/tasks.c",line 1376,column 
    2229 0000050c 9800              LDR       A1, [SP, #0]          ; [DPU_3_PIPE] |1376|  ; [ORIG 16-BIT INS]
    2230 0000050e 9002              STR       A1, [SP, #8]          ; [DPU_3_PIPE] |1376|  ; [ORIG 16-BIT INS]
    2231                            .dwpsn  file "H:/EECS_690/TI_ARM_Tiva_Projects_EECS_690_Sp16/Source/tasks.c",line 1385,column 
    2232 00000510 9802              LDR       A1, [SP, #8]          ; [DPU_3_PIPE] |1385|  ; [ORIG 16-BIT INS]
    2233 00000512 4A76              LDR       A3, $C$CON15          ; [DPU_3_PIPE] |1385|  ; [ORIG 16-BIT INS]
    2234 00000514 6941              LDR       A2, [A1, #20]         ; [DPU_3_PIPE] |1385|  ; [ORIG 16-BIT INS]
    2235 00000516 2000              MOVS      A1, #0                ; [DPU_3_PIPE] |1385|  ; [ORIG 16-BIT INS]
    2236 00000518 428A              CMP       A3, A2                ; [DPU_3_PIPE] |1385|  ; [ORIG 16-BIT INS]
    2237 0000051a D100              BNE       ||$C$L46||            ; [DPU_3_PIPE] |1385|  ; [ORIG 16-BIT INS]
    2238                            ; BRANCHCC OCCURS {||$C$L46||}   ; [] |1385| 
    2239                    ;* --------------------------------------------------------------------------*
    2240 0000051c 2001              MOVS      A1, #1                ; [DPU_3_PIPE] |1385|  ; [ORIG 16-BIT INS]
    2241                    ;* --------------------------------------------------------------------------*
    2242 0000051e           ||$C$L46||:    
    2243 0000051e B180              CBZ       A1, ||$C$L49||        ; []  ; [ORIG 16-BIT INS]
    2244                            ; BRANCHCC OCCURS {||$C$L49||}   ; [] |1385| 
    2245                    ;* --------------------------------------------------------------------------*
    2246                            .dwpsn  file "H:/EECS_690/TI_ARM_Tiva_Projects_EECS_690_Sp16/Source/tasks.c",line 1388,column 
TI ARM Assembler PC v5.2.2 Thu Mar 10 16:27:04 2016

Tools Copyright (c) 1996-2015 Texas Instruments Incorporated
tasks.asm                                                            PAGE   42

    2247 00000520 9802              LDR       A1, [SP, #8]          ; [DPU_3_PIPE] |1388|  ; [ORIG 16-BIT INS]
    2248 00000522 4AAA              LDR       A3, $C$CON18          ; [DPU_3_PIPE] |1388|  ; [ORIG 16-BIT INS]
    2249 00000524 6A81              LDR       A2, [A1, #40]         ; [DPU_3_PIPE] |1388|  ; [ORIG 16-BIT INS]
    2250 00000526 2000              MOVS      A1, #0                ; [DPU_3_PIPE] |1388|  ; [ORIG 16-BIT INS]
    2251 00000528 428A              CMP       A3, A2                ; [DPU_3_PIPE] |1388|  ; [ORIG 16-BIT INS]
    2252 0000052a D100              BNE       ||$C$L47||            ; [DPU_3_PIPE] |1388|  ; [ORIG 16-BIT INS]
    2253                            ; BRANCHCC OCCURS {||$C$L47||}   ; [] |1388| 
    2254                    ;* --------------------------------------------------------------------------*
    2255 0000052c 2001              MOVS      A1, #1                ; [DPU_3_PIPE] |1388|  ; [ORIG 16-BIT INS]
    2256                    ;* --------------------------------------------------------------------------*
    2257 0000052e           ||$C$L47||:    
    2258 0000052e B940              CBNZ      A1, ||$C$L49||        ; []  ; [ORIG 16-BIT INS]
    2259                            ; BRANCHCC OCCURS {||$C$L49||}   ; [] |1388| 
    2260                    ;* --------------------------------------------------------------------------*
    2261                            .dwpsn  file "H:/EECS_690/TI_ARM_Tiva_Projects_EECS_690_Sp16/Source/tasks.c",line 1392,column 
    2262 00000530 9802              LDR       A1, [SP, #8]          ; [DPU_3_PIPE] |1392|  ; [ORIG 16-BIT INS]
    2263 00000532 6A81              LDR       A2, [A1, #40]         ; [DPU_3_PIPE] |1392|  ; [ORIG 16-BIT INS]
    2264 00000534 2000              MOVS      A1, #0                ; [DPU_3_PIPE] |1392|  ; [ORIG 16-BIT INS]
    2265 00000536 B901              CBNZ      A2, ||$C$L48||        ; []  ; [ORIG 16-BIT INS]
    2266                            ; BRANCHCC OCCURS {||$C$L48||}   ; [] |1392| 
    2267                    ;* --------------------------------------------------------------------------*
    2268 00000538 2001              MOVS      A1, #1                ; [DPU_3_PIPE] |1392|  ; [ORIG 16-BIT INS]
    2269                    ;* --------------------------------------------------------------------------*
    2270 0000053a           ||$C$L48||:    
    2271 0000053a B110              CBZ       A1, ||$C$L49||        ; []  ; [ORIG 16-BIT INS]
    2272                            ; BRANCHCC OCCURS {||$C$L49||}   ; [] |1392| 
    2273                    ;* --------------------------------------------------------------------------*
    2274                            .dwpsn  file "H:/EECS_690/TI_ARM_Tiva_Projects_EECS_690_Sp16/Source/tasks.c",line 1394,column 
    2275 0000053c 2001              MOVS      A1, #1                ; [DPU_3_PIPE] |1394|  ; [ORIG 16-BIT INS]
    2276 0000053e 9001              STR       A1, [SP, #4]          ; [DPU_3_PIPE] |1394|  ; [ORIG 16-BIT INS]
    2277                            .dwpsn  file "H:/EECS_690/TI_ARM_Tiva_Projects_EECS_690_Sp16/Source/tasks.c",line 1395,column 
    2278 00000540 E7FF              B         ||$C$L49||            ; [DPU_3_PIPE] |1395|  ; [ORIG 16-BIT INS]
    2279                            ; BRANCH OCCURS {||$C$L49||}     ; [] |1395| 
    2280                    ;* --------------------------------------------------------------------------*
    2281                    ;* --------------------------------------------------------------------------*
    2282 00000542           ||$C$L49||:    
    2283                            .dwpsn  file "H:/EECS_690/TI_ARM_Tiva_Projects_EECS_690_Sp16/Source/tasks.c",line 1411,column 
    2284 00000542 9801              LDR       A1, [SP, #4]          ; [DPU_3_PIPE] |1411|  ; [ORIG 16-BIT INS]
    2285                            .dwpsn  file "H:/EECS_690/TI_ARM_Tiva_Projects_EECS_690_Sp16/Source/tasks.c",line 1412,column 
    2286 00000544 B004              ADD       SP, SP, #16           ; [DPU_3_PIPE]  ; [ORIG 16-BIT INS]
    2287                            .dwcfi  cfa_offset, 0
    2288                    $C$DW$164       .dwtag  DW_TAG_TI_branch
    2289                            .dwattr $C$DW$164, DW_AT_low_pc(0x00)
    2290                            .dwattr $C$DW$164, DW_AT_TI_return
    2291 00000546 4770              BX        LR                    ; [DPU_3_PIPE]  ; [ORIG 16-BIT INS]
    2292                            ; BRANCH OCCURS                  ; [] 
    2293                            .dwattr $C$DW$159, DW_AT_TI_end_file("H:/EECS_690/TI_ARM_Tiva_Projects_EECS_690_Sp16/Source/ta
    2294                            .dwattr $C$DW$159, DW_AT_TI_end_line(0x584)
    2295                            .dwattr $C$DW$159, DW_AT_TI_end_column(0x02)
    2296                            .dwendentry
    2297                            .dwendtag $C$DW$159
    2298                    
    2299 00000548                   .sect   ".text"
    2300                            .clink
    2301                            .thumbfunc vTaskResume
TI ARM Assembler PC v5.2.2 Thu Mar 10 16:27:04 2016

Tools Copyright (c) 1996-2015 Texas Instruments Incorporated
tasks.asm                                                            PAGE   43

    2302 00000548                   .thumb
    2303                            .global vTaskResume
    2304                    
    2305                    $C$DW$165       .dwtag  DW_TAG_subprogram, DW_AT_name("vTaskResume")
    2306                            .dwattr $C$DW$165, DW_AT_low_pc(vTaskResume)
    2307                            .dwattr $C$DW$165, DW_AT_high_pc(0x00)
    2308                            .dwattr $C$DW$165, DW_AT_TI_symbol_name("vTaskResume")
    2309                            .dwattr $C$DW$165, DW_AT_external
    2310                            .dwattr $C$DW$165, DW_AT_TI_begin_file("H:/EECS_690/TI_ARM_Tiva_Projects_EECS_690_Sp16/Source/
    2311                            .dwattr $C$DW$165, DW_AT_TI_begin_line(0x58b)
    2312                            .dwattr $C$DW$165, DW_AT_TI_begin_column(0x07)
    2313                            .dwattr $C$DW$165, DW_AT_decl_file("H:/EECS_690/TI_ARM_Tiva_Projects_EECS_690_Sp16/Source/task
    2314                            .dwattr $C$DW$165, DW_AT_decl_line(0x58b)
    2315                            .dwattr $C$DW$165, DW_AT_decl_column(0x07)
    2316                            .dwattr $C$DW$165, DW_AT_TI_max_frame_size(0x10)
    2317                            .dwpsn  file "H:/EECS_690/TI_ARM_Tiva_Projects_EECS_690_Sp16/Source/tasks.c",line 1420,column 
    2318                    
    2319                            .dwfde $C$DW$CIE, vTaskResume
    2320                    $C$DW$166       .dwtag  DW_TAG_formal_parameter, DW_AT_name("xTaskToResume")
    2321                            .dwattr $C$DW$166, DW_AT_TI_symbol_name("xTaskToResume")
    2322                            .dwattr $C$DW$166, DW_AT_type(*$C$DW$T$59)
    2323                            .dwattr $C$DW$166, DW_AT_location[DW_OP_reg0]
    2324                    
    2325                    ;*****************************************************************************
    2326                    ;* FUNCTION NAME: vTaskResume                                                *
    2327                    ;*                                                                           *
    2328                    ;*   Regs Modified     : A1,A2,A3,A4,V1,V9,SP,LR,SR,D0,D0_hi,D1,D1_hi,D2,    *
    2329                    ;*                           D2_hi,D3,D3_hi,D4,D4_hi,D5,D5_hi,D6,D6_hi,D7,   *
    2330                    ;*                           D7_hi,FPEXC,FPSCR                               *
    2331                    ;*   Regs Used         : A1,A2,A3,A4,V1,V9,SP,LR,SR,D0,D0_hi,D1,D1_hi,D2,    *
    2332                    ;*                           D2_hi,D3,D3_hi,D4,D4_hi,D5,D5_hi,D6,D6_hi,D7,   *
    2333                    ;*                           D7_hi,FPEXC,FPSCR                               *
    2334                    ;*   Local Frame Size  : 0 Args + 8 Auto + 8 Save = 16 byte                  *
    2335                    ;*****************************************************************************
    2336 00000548           vTaskResume:
    2337                    ;* --------------------------------------------------------------------------*
    2338                            .dwcfi  cfa_offset, 0
    2339 00000548 B51C              PUSH      {A3, A4, V1, LR}      ; [DPU_3_PIPE]  ; [ORIG 16-BIT INS]
    2340                            .dwcfi  cfa_offset, 16
    2341                            .dwcfi  save_reg_to_mem, 14, -4
    2342                            .dwcfi  save_reg_to_mem, 4, -8
    2343                            .dwcfi  save_reg_to_mem, 3, -12
    2344                            .dwcfi  save_reg_to_mem, 2, -16
    2345                    $C$DW$167       .dwtag  DW_TAG_variable, DW_AT_name("xTaskToResume")
    2346                            .dwattr $C$DW$167, DW_AT_TI_symbol_name("xTaskToResume")
    2347                            .dwattr $C$DW$167, DW_AT_type(*$C$DW$T$59)
    2348                            .dwattr $C$DW$167, DW_AT_location[DW_OP_breg13 0]
    2349                    $C$DW$168       .dwtag  DW_TAG_variable, DW_AT_name("pxTCB")
    2350                            .dwattr $C$DW$168, DW_AT_TI_symbol_name("pxTCB")
    2351                            .dwattr $C$DW$168, DW_AT_type(*$C$DW$T$121)
    2352                            .dwattr $C$DW$168, DW_AT_location[DW_OP_breg13 4]
    2353 0000054a 9000              STR       A1, [SP, #0]          ; [DPU_3_PIPE] |1420|  ; [ORIG 16-BIT INS]
    2354                            .dwpsn  file "H:/EECS_690/TI_ARM_Tiva_Projects_EECS_690_Sp16/Source/tasks.c",line 1421,column 
    2355 0000054c 9800              LDR       A1, [SP, #0]          ; [DPU_3_PIPE] |1421|  ; [ORIG 16-BIT INS]
    2356 0000054e 9001              STR       A1, [SP, #4]          ; [DPU_3_PIPE] |1421|  ; [ORIG 16-BIT INS]
TI ARM Assembler PC v5.2.2 Thu Mar 10 16:27:04 2016

Tools Copyright (c) 1996-2015 Texas Instruments Incorporated
tasks.asm                                                            PAGE   44

    2357                            .dwpsn  file "H:/EECS_690/TI_ARM_Tiva_Projects_EECS_690_Sp16/Source/tasks.c",line 1428,column 
    2358 00000550 9801              LDR       A1, [SP, #4]          ; [DPU_3_PIPE] |1428|  ; [ORIG 16-BIT INS]
    2359 00000552 2800              CMP       A1, #0                ; [DPU_3_PIPE] |1428|  ; [ORIG 16-BIT INS]
    2360 00000554 D038              BEQ       ||$C$L52||            ; [DPU_3_PIPE] |1428|  ; [ORIG 16-BIT INS]
    2361                            ; BRANCHCC OCCURS {||$C$L52||}   ; [] |1428| 
    2362                    ;* --------------------------------------------------------------------------*
    2363 00000556 4806              LDR       A1, $C$CON11          ; [DPU_3_PIPE] |1428|  ; [ORIG 16-BIT INS]
    2364 00000558 9901              LDR       A2, [SP, #4]          ; [DPU_3_PIPE] |1428|  ; [ORIG 16-BIT INS]
    2365 0000055a 6800              LDR       A1, [A1, #0]          ; [DPU_3_PIPE] |1428|  ; [ORIG 16-BIT INS]
    2366 0000055c 4288              CMP       A1, A2                ; [DPU_3_PIPE] |1428|  ; [ORIG 16-BIT INS]
    2367 0000055e D033              BEQ       ||$C$L52||            ; [DPU_3_PIPE] |1428|  ; [ORIG 16-BIT INS]
    2368                            ; BRANCHCC OCCURS {||$C$L52||}   ; [] |1428| 
    2369                    ;* --------------------------------------------------------------------------*
    2370                            .dwpsn  file "H:/EECS_690/TI_ARM_Tiva_Projects_EECS_690_Sp16/Source/tasks.c",line 1430,column 
    2371                    $C$DW$169       .dwtag  DW_TAG_TI_branch
    2372                            .dwattr $C$DW$169, DW_AT_low_pc(0x00)
    2373                            .dwattr $C$DW$169, DW_AT_name("vPortEnterCritical")
    2374                            .dwattr $C$DW$169, DW_AT_TI_call
    2375 00000560 FFFEF7FF!         BL        vPortEnterCritical    ; [DPU_3_PIPE] |1430|  ; [KEEP 32-BIT INS]
    2376                            ; CALL OCCURS {vPortEnterCritical }  ; [] |1430| 
    2377                            .dwpsn  file "H:/EECS_690/TI_ARM_Tiva_Projects_EECS_690_Sp16/Source/tasks.c",line 1432,column 
    2378 00000564 9801              LDR       A1, [SP, #4]          ; [DPU_3_PIPE] |1432|  ; [ORIG 16-BIT INS]
    2379                    $C$DW$170       .dwtag  DW_TAG_TI_branch
    2380                            .dwattr $C$DW$170, DW_AT_low_pc(0x00)
    2381                            .dwattr $C$DW$170, DW_AT_name("prvTaskIsTaskSuspended")
    2382                            .dwattr $C$DW$170, DW_AT_TI_call
    2383 00000566 FFCCF7FF          BL        prvTaskIsTaskSuspended ; [DPU_3_PIPE] |1432|  ; [KEEP 32-BIT INS]
    2384                            ; CALL OCCURS {prvTaskIsTaskSuspended }  ; [] |1432| 
    2385 0000056a 2801              CMP       A1, #1                ; [DPU_3_PIPE] |1432|  ; [ORIG 16-BIT INS]
    2386 0000056c D129              BNE       ||$C$L51||            ; [DPU_3_PIPE] |1432|  ; [ORIG 16-BIT INS]
    2387                            ; BRANCHCC OCCURS {||$C$L51||}   ; [] |1432| 
    2388                    ;* --------------------------------------------------------------------------*
    2389 0000056e E001              B         ||$C$L50||            ; []  ; [ORIG 16-BIT INS]
    2390                            ; BRANCH OCCURS {||$C$L50||}     ; [] 
    2391                    ;******************************************************************************
    2392                    ;* CONSTANT TABLE                                                             *
    2393                    ;******************************************************************************
    2394 00000570                   .sect   ".text"
    2395                            .align  4
    2396 00000570 00000000! ||$C$CON11||:   .bits   pxCurrentTCB,32
    2397                    ;* --------------------------------------------------------------------------*
    2398 00000574           ||$C$L50||:    
    2399                            .dwpsn  file "H:/EECS_690/TI_ARM_Tiva_Projects_EECS_690_Sp16/Source/tasks.c",line 1438,column 
    2400 00000574 9801              LDR       A1, [SP, #4]          ; [DPU_3_PIPE] |1438|  ; [ORIG 16-BIT INS]
    2401 00000576 1D00              ADDS      A1, A1, #4            ; [DPU_3_PIPE] |1438|  ; [ORIG 16-BIT INS]
    2402                    $C$DW$171       .dwtag  DW_TAG_TI_branch
    2403                            .dwattr $C$DW$171, DW_AT_low_pc(0x00)
    2404                            .dwattr $C$DW$171, DW_AT_name("uxListRemove")
    2405                            .dwattr $C$DW$171, DW_AT_TI_call
    2406 00000578 FFFEF7FF!         BL        uxListRemove          ; [DPU_3_PIPE] |1438|  ; [KEEP 32-BIT INS]
    2407                            ; CALL OCCURS {uxListRemove }    ; [] |1438| 
    2408                            .dwpsn  file "H:/EECS_690/TI_ARM_Tiva_Projects_EECS_690_Sp16/Source/tasks.c",line 1439,column 
    2409 0000057c 9801              LDR       A1, [SP, #4]          ; [DPU_3_PIPE] |1439|  ; [ORIG 16-BIT INS]
    2410 0000057e 4A36              LDR       A3, $C$CON13          ; [DPU_3_PIPE] |1439|  ; [ORIG 16-BIT INS]
    2411 00000580 6AC4              LDR       V1, [A1, #44]         ; [DPU_3_PIPE] |1439|  ; [ORIG 16-BIT INS]
TI ARM Assembler PC v5.2.2 Thu Mar 10 16:27:04 2016

Tools Copyright (c) 1996-2015 Texas Instruments Incorporated
tasks.asm                                                            PAGE   45

    2412 00000582 9901              LDR       A2, [SP, #4]          ; [DPU_3_PIPE] |1439|  ; [ORIG 16-BIT INS]
    2413 00000584 6813              LDR       A4, [A3, #0]          ; [DPU_3_PIPE] |1439|  ; [ORIG 16-BIT INS]
    2414 00000586 2001              MOVS      A1, #1                ; [DPU_3_PIPE] |1439|  ; [ORIG 16-BIT INS]
    2415 00000588 40A0              LSLS      A1, A1, V1            ; [DPU_3_PIPE] |1439|  ; [ORIG 16-BIT INS]
    2416 0000058a 4318              ORRS      A1, A1, A4            ; [DPU_3_PIPE] |1439|  ; [ORIG 16-BIT INS]
    2417 0000058c 6010              STR       A1, [A3, #0]          ; [DPU_3_PIPE] |1439|  ; [ORIG 16-BIT INS]
    2418 0000058e 4831              LDR       A1, $C$CON12          ; [DPU_3_PIPE] |1439|  ; [ORIG 16-BIT INS]
    2419 00000590 6ACB              LDR       A4, [A2, #44]         ; [DPU_3_PIPE] |1439|  ; [ORIG 16-BIT INS]
    2420 00000592 9901              LDR       A2, [SP, #4]          ; [DPU_3_PIPE] |1439|  ; [ORIG 16-BIT INS]
    2421 00000594 009A              LSLS      A3, A4, #2            ; [DPU_3_PIPE] |1439|  ; [ORIG 16-BIT INS]
    2422 00000596 1D09              ADDS      A2, A2, #4            ; [DPU_3_PIPE] |1439|  ; [ORIG 16-BIT INS]
    2423 00000598 1203EB02          ADD       A3, A3, A4, LSL #4    ; [DPU_3_PIPE] |1439|  ; [KEEP 32-BIT INS]
    2424 0000059c 1880              ADDS      A1, A1, A3            ; [DPU_3_PIPE] |1439|  ; [ORIG 16-BIT INS]
    2425                    $C$DW$172       .dwtag  DW_TAG_TI_branch
    2426                            .dwattr $C$DW$172, DW_AT_low_pc(0x00)
    2427                            .dwattr $C$DW$172, DW_AT_name("vListInsertEnd")
    2428                            .dwattr $C$DW$172, DW_AT_TI_call
    2429 0000059e FFFEF7FF!         BL        vListInsertEnd        ; [DPU_3_PIPE] |1439|  ; [KEEP 32-BIT INS]
    2430                            ; CALL OCCURS {vListInsertEnd }  ; [] |1439| 
    2431                            .dwpsn  file "H:/EECS_690/TI_ARM_Tiva_Projects_EECS_690_Sp16/Source/tasks.c",line 1442,column 
    2432 000005a2 4896              LDR       A1, $C$CON19          ; [DPU_3_PIPE] |1442|  ; [ORIG 16-BIT INS]
    2433 000005a4 9901              LDR       A2, [SP, #4]          ; [DPU_3_PIPE] |1442|  ; [ORIG 16-BIT INS]
    2434 000005a6 6800              LDR       A1, [A1, #0]          ; [DPU_3_PIPE] |1442|  ; [ORIG 16-BIT INS]
    2435 000005a8 6AC9              LDR       A2, [A2, #44]         ; [DPU_3_PIPE] |1442|  ; [ORIG 16-BIT INS]
    2436 000005aa 6AC0              LDR       A1, [A1, #44]         ; [DPU_3_PIPE] |1442|  ; [ORIG 16-BIT INS]
    2437 000005ac 4288              CMP       A1, A2                ; [DPU_3_PIPE] |1442|  ; [ORIG 16-BIT INS]
    2438 000005ae D808              BHI       ||$C$L51||            ; [DPU_3_PIPE] |1442|  ; [ORIG 16-BIT INS]
    2439                            ; BRANCHCC OCCURS {||$C$L51||}   ; [] |1442| 
    2440                    ;* --------------------------------------------------------------------------*
    2441                            .dwpsn  file "H:/EECS_690/TI_ARM_Tiva_Projects_EECS_690_Sp16/Source/tasks.c",line 1447,column 
    2442 000005b0 494A              LDR       A2, $C$CON14          ; [DPU_3_PIPE] |1447|  ; [ORIG 16-BIT INS]
    2443 000005b2 5080F04F          MOV       A1, #268435456        ; [DPU_3_PIPE] |1447|  ; [KEEP 32-BIT INS]
    2444 000005b6 6008              STR       A1, [A2, #0]          ; [DPU_3_PIPE] |1447|  ; [ORIG 16-BIT INS]
    2445 000005b8 8F4FF3BF          dsb ; [KEEP 32-BIT INS]
    2446 000005bc 8F6FF3BF          isb ; [KEEP 32-BIT INS]
    2447                            .dwpsn  file "H:/EECS_690/TI_ARM_Tiva_Projects_EECS_690_Sp16/Source/tasks.c",line 1448,column 
    2448 000005c0 E7FF              B         ||$C$L51||            ; [DPU_3_PIPE] |1448|  ; [ORIG 16-BIT INS]
    2449                            ; BRANCH OCCURS {||$C$L51||}     ; [] |1448| 
    2450                    ;* --------------------------------------------------------------------------*
    2451                    ;* --------------------------------------------------------------------------*
    2452 000005c2           ||$C$L51||:    
    2453                            .dwpsn  file "H:/EECS_690/TI_ARM_Tiva_Projects_EECS_690_Sp16/Source/tasks.c",line 1459,column 
    2454                    $C$DW$173       .dwtag  DW_TAG_TI_branch
    2455                            .dwattr $C$DW$173, DW_AT_low_pc(0x00)
    2456                            .dwattr $C$DW$173, DW_AT_name("vPortExitCritical")
    2457                            .dwattr $C$DW$173, DW_AT_TI_call
    2458 000005c2 FFFEF7FF!         BL        vPortExitCritical     ; [DPU_3_PIPE] |1459|  ; [KEEP 32-BIT INS]
    2459                            ; CALL OCCURS {vPortExitCritical }  ; [] |1459| 
    2460                            .dwpsn  file "H:/EECS_690/TI_ARM_Tiva_Projects_EECS_690_Sp16/Source/tasks.c",line 1460,column 
    2461 000005c6 E7FF              B         ||$C$L52||            ; [DPU_3_PIPE] |1460|  ; [ORIG 16-BIT INS]
    2462                            ; BRANCH OCCURS {||$C$L52||}     ; [] |1460| 
    2463                    ;* --------------------------------------------------------------------------*
    2464                    ;* --------------------------------------------------------------------------*
    2465                    ||$C$L52||:    
    2466                    $C$DW$174       .dwtag  DW_TAG_TI_branch
TI ARM Assembler PC v5.2.2 Thu Mar 10 16:27:04 2016

Tools Copyright (c) 1996-2015 Texas Instruments Incorporated
tasks.asm                                                            PAGE   46

    2467                            .dwattr $C$DW$174, DW_AT_low_pc(0x00)
    2468                            .dwattr $C$DW$174, DW_AT_TI_return
    2469 000005c8 BD1C              POP       {A3, A4, V1, PC}      ; [DPU_3_PIPE]  ; [ORIG 16-BIT INS]
    2470                            .dwcfi  cfa_offset, 0
    2471                            ; BRANCH OCCURS                  ; [] 
    2472                            .dwattr $C$DW$165, DW_AT_TI_end_file("H:/EECS_690/TI_ARM_Tiva_Projects_EECS_690_Sp16/Source/ta
    2473                            .dwattr $C$DW$165, DW_AT_TI_end_line(0x5b9)
    2474                            .dwattr $C$DW$165, DW_AT_TI_end_column(0x02)
    2475                            .dwendentry
    2476                            .dwendtag $C$DW$165
    2477                    
    2478 000005ca                   .sect   ".text"
    2479                            .clink
    2480                            .thumbfunc xTaskResumeFromISR
    2481 000005ca                   .thumb
    2482                            .global xTaskResumeFromISR
    2483                    
    2484                    $C$DW$175       .dwtag  DW_TAG_subprogram, DW_AT_name("xTaskResumeFromISR")
    2485                            .dwattr $C$DW$175, DW_AT_low_pc(xTaskResumeFromISR)
    2486                            .dwattr $C$DW$175, DW_AT_high_pc(0x00)
    2487                            .dwattr $C$DW$175, DW_AT_TI_symbol_name("xTaskResumeFromISR")
    2488                            .dwattr $C$DW$175, DW_AT_external
    2489                            .dwattr $C$DW$175, DW_AT_type(*$C$DW$T$64)
    2490                            .dwattr $C$DW$175, DW_AT_TI_begin_file("H:/EECS_690/TI_ARM_Tiva_Projects_EECS_690_Sp16/Source/
    2491                            .dwattr $C$DW$175, DW_AT_TI_begin_line(0x5c1)
    2492                            .dwattr $C$DW$175, DW_AT_TI_begin_column(0x0d)
    2493                            .dwattr $C$DW$175, DW_AT_decl_file("H:/EECS_690/TI_ARM_Tiva_Projects_EECS_690_Sp16/Source/task
    2494                            .dwattr $C$DW$175, DW_AT_decl_line(0x5c1)
    2495                            .dwattr $C$DW$175, DW_AT_decl_column(0x0d)
    2496                            .dwattr $C$DW$175, DW_AT_TI_max_frame_size(0x18)
    2497                            .dwpsn  file "H:/EECS_690/TI_ARM_Tiva_Projects_EECS_690_Sp16/Source/tasks.c",line 1474,column 
    2498                    
    2499                            .dwfde $C$DW$CIE, xTaskResumeFromISR
    2500                    $C$DW$176       .dwtag  DW_TAG_formal_parameter, DW_AT_name("xTaskToResume")
    2501                            .dwattr $C$DW$176, DW_AT_TI_symbol_name("xTaskToResume")
    2502                            .dwattr $C$DW$176, DW_AT_type(*$C$DW$T$59)
    2503                            .dwattr $C$DW$176, DW_AT_location[DW_OP_reg0]
    2504                    
    2505                    ;*****************************************************************************
    2506                    ;* FUNCTION NAME: xTaskResumeFromISR                                         *
    2507                    ;*                                                                           *
    2508                    ;*   Regs Modified     : A1,A2,A3,A4,V1,V9,SP,LR,SR,D0,D0_hi,D1,D1_hi,D2,    *
    2509                    ;*                           D2_hi,D3,D3_hi,D4,D4_hi,D5,D5_hi,D6,D6_hi,D7,   *
    2510                    ;*                           D7_hi,FPEXC,FPSCR                               *
    2511                    ;*   Regs Used         : A1,A2,A3,A4,V1,V9,SP,LR,SR,D0,D0_hi,D1,D1_hi,D2,    *
    2512                    ;*                           D2_hi,D3,D3_hi,D4,D4_hi,D5,D5_hi,D6,D6_hi,D7,   *
    2513                    ;*                           D7_hi,FPEXC,FPSCR                               *
    2514                    ;*   Local Frame Size  : 0 Args + 16 Auto + 8 Save = 24 byte                 *
    2515                    ;*****************************************************************************
    2516 000005ca           xTaskResumeFromISR:
    2517                    ;* --------------------------------------------------------------------------*
    2518                            .dwcfi  cfa_offset, 0
    2519 000005ca B51F              PUSH      {A1, A2, A3, A4, V1, LR} ; [DPU_3_PIPE]  ; [ORIG 16-BIT INS]
    2520                            .dwcfi  cfa_offset, 24
    2521                            .dwcfi  save_reg_to_mem, 14, -4
TI ARM Assembler PC v5.2.2 Thu Mar 10 16:27:04 2016

Tools Copyright (c) 1996-2015 Texas Instruments Incorporated
tasks.asm                                                            PAGE   47

    2522                            .dwcfi  save_reg_to_mem, 4, -8
    2523                            .dwcfi  save_reg_to_mem, 3, -12
    2524                            .dwcfi  save_reg_to_mem, 2, -16
    2525                            .dwcfi  save_reg_to_mem, 1, -20
    2526                            .dwcfi  save_reg_to_mem, 0, -24
    2527                    $C$DW$177       .dwtag  DW_TAG_variable, DW_AT_name("xTaskToResume")
    2528                            .dwattr $C$DW$177, DW_AT_TI_symbol_name("xTaskToResume")
    2529                            .dwattr $C$DW$177, DW_AT_type(*$C$DW$T$59)
    2530                            .dwattr $C$DW$177, DW_AT_location[DW_OP_breg13 0]
    2531                    $C$DW$178       .dwtag  DW_TAG_variable, DW_AT_name("xYieldRequired")
    2532                            .dwattr $C$DW$178, DW_AT_TI_symbol_name("xYieldRequired")
    2533                            .dwattr $C$DW$178, DW_AT_type(*$C$DW$T$64)
    2534                            .dwattr $C$DW$178, DW_AT_location[DW_OP_breg13 4]
    2535                    $C$DW$179       .dwtag  DW_TAG_variable, DW_AT_name("pxTCB")
    2536                            .dwattr $C$DW$179, DW_AT_TI_symbol_name("pxTCB")
    2537                            .dwattr $C$DW$179, DW_AT_type(*$C$DW$T$121)
    2538                            .dwattr $C$DW$179, DW_AT_location[DW_OP_breg13 8]
    2539                    $C$DW$180       .dwtag  DW_TAG_variable, DW_AT_name("uxSavedInterruptStatus")
    2540                            .dwattr $C$DW$180, DW_AT_TI_symbol_name("uxSavedInterruptStatus")
    2541                            .dwattr $C$DW$180, DW_AT_type(*$C$DW$T$32)
    2542                            .dwattr $C$DW$180, DW_AT_location[DW_OP_breg13 12]
    2543 000005cc 9000              STR       A1, [SP, #0]          ; [DPU_3_PIPE] |1474|  ; [ORIG 16-BIT INS]
    2544                            .dwpsn  file "H:/EECS_690/TI_ARM_Tiva_Projects_EECS_690_Sp16/Source/tasks.c",line 1475,column 
    2545 000005ce 2000              MOVS      A1, #0                ; [DPU_3_PIPE] |1475|  ; [ORIG 16-BIT INS]
    2546 000005d0 9001              STR       A1, [SP, #4]          ; [DPU_3_PIPE] |1475|  ; [ORIG 16-BIT INS]
    2547                            .dwpsn  file "H:/EECS_690/TI_ARM_Tiva_Projects_EECS_690_Sp16/Source/tasks.c",line 1476,column 
    2548 000005d2 9800              LDR       A1, [SP, #0]          ; [DPU_3_PIPE] |1476|  ; [ORIG 16-BIT INS]
    2549 000005d4 9002              STR       A1, [SP, #8]          ; [DPU_3_PIPE] |1476|  ; [ORIG 16-BIT INS]
    2550                            .dwpsn  file "H:/EECS_690/TI_ARM_Tiva_Projects_EECS_690_Sp16/Source/tasks.c",line 1499,column 
    2551 000005d6 8111F3EF          MRS       A2, BASEPRI           ; [DPU_3_PIPE] |1499|  ; [KEEP 32-BIT INS]
    2552 000005da 20A0              MOVS      A1, #160              ; [DPU_3_PIPE] |1499|  ; [ORIG 16-BIT INS]
    2553 000005dc 8811F380          MSR       BASEPRI, A1           ; [DPU_3_PIPE] |1499|  ; [KEEP 32-BIT INS]
    2554 000005e0 9103              STR       A2, [SP, #12]         ; [DPU_3_PIPE] |1499|  ; [ORIG 16-BIT INS]
    2555                            .dwpsn  file "H:/EECS_690/TI_ARM_Tiva_Projects_EECS_690_Sp16/Source/tasks.c",line 1499,column 
    2556 000005e2 8F4FF3BF          dsb ; [KEEP 32-BIT INS]
    2557 000005e6 8F6FF3BF          isb ; [KEEP 32-BIT INS]
    2558                            .dwpsn  file "H:/EECS_690/TI_ARM_Tiva_Projects_EECS_690_Sp16/Source/tasks.c",line 1501,column 
    2559 000005ea 9802              LDR       A1, [SP, #8]          ; [DPU_3_PIPE] |1501|  ; [ORIG 16-BIT INS]
    2560                    $C$DW$181       .dwtag  DW_TAG_TI_branch
    2561                            .dwattr $C$DW$181, DW_AT_low_pc(0x00)
    2562                            .dwattr $C$DW$181, DW_AT_name("prvTaskIsTaskSuspended")
    2563                            .dwattr $C$DW$181, DW_AT_TI_call
    2564 000005ec FF89F7FF          BL        prvTaskIsTaskSuspended ; [DPU_3_PIPE] |1501|  ; [KEEP 32-BIT INS]
    2565                            ; CALL OCCURS {prvTaskIsTaskSuspended }  ; [] |1501| 
    2566 000005f0 2801              CMP       A1, #1                ; [DPU_3_PIPE] |1501|  ; [ORIG 16-BIT INS]
    2567 000005f2 D128              BNE       ||$C$L55||            ; [DPU_3_PIPE] |1501|  ; [ORIG 16-BIT INS]
    2568                            ; BRANCHCC OCCURS {||$C$L55||}   ; [] |1501| 
    2569                    ;* --------------------------------------------------------------------------*
    2570                            .dwpsn  file "H:/EECS_690/TI_ARM_Tiva_Projects_EECS_690_Sp16/Source/tasks.c",line 1506,column 
    2571 000005f4 4882              LDR       A1, $C$CON20          ; [DPU_3_PIPE] |1506|  ; [ORIG 16-BIT INS]
    2572 000005f6 6800              LDR       A1, [A1, #0]          ; [DPU_3_PIPE] |1506|  ; [ORIG 16-BIT INS]
    2573 000005f8 BB00              CBNZ      A1, ||$C$L54||        ; []  ; [ORIG 16-BIT INS]
    2574                            ; BRANCHCC OCCURS {||$C$L54||}   ; [] |1506| 
    2575                    ;* --------------------------------------------------------------------------*
    2576                            .dwpsn  file "H:/EECS_690/TI_ARM_Tiva_Projects_EECS_690_Sp16/Source/tasks.c",line 1510,column 
TI ARM Assembler PC v5.2.2 Thu Mar 10 16:27:04 2016

Tools Copyright (c) 1996-2015 Texas Instruments Incorporated
tasks.asm                                                            PAGE   48

    2577 000005fa 4880              LDR       A1, $C$CON19          ; [DPU_3_PIPE] |1510|  ; [ORIG 16-BIT INS]
    2578 000005fc 9902              LDR       A2, [SP, #8]          ; [DPU_3_PIPE] |1510|  ; [ORIG 16-BIT INS]
    2579 000005fe 6800              LDR       A1, [A1, #0]          ; [DPU_3_PIPE] |1510|  ; [ORIG 16-BIT INS]
    2580 00000600 6AC9              LDR       A2, [A2, #44]         ; [DPU_3_PIPE] |1510|  ; [ORIG 16-BIT INS]
    2581 00000602 6AC0              LDR       A1, [A1, #44]         ; [DPU_3_PIPE] |1510|  ; [ORIG 16-BIT INS]
    2582 00000604 4288              CMP       A1, A2                ; [DPU_3_PIPE] |1510|  ; [ORIG 16-BIT INS]
    2583 00000606 D801              BHI       ||$C$L53||            ; [DPU_3_PIPE] |1510|  ; [ORIG 16-BIT INS]
    2584                            ; BRANCHCC OCCURS {||$C$L53||}   ; [] |1510| 
    2585                    ;* --------------------------------------------------------------------------*
    2586                            .dwpsn  file "H:/EECS_690/TI_ARM_Tiva_Projects_EECS_690_Sp16/Source/tasks.c",line 1512,column 
    2587 00000608 2001              MOVS      A1, #1                ; [DPU_3_PIPE] |1512|  ; [ORIG 16-BIT INS]
    2588 0000060a 9001              STR       A1, [SP, #4]          ; [DPU_3_PIPE] |1512|  ; [ORIG 16-BIT INS]
    2589                            .dwpsn  file "H:/EECS_690/TI_ARM_Tiva_Projects_EECS_690_Sp16/Source/tasks.c",line 1513,column 
    2590                    ;* --------------------------------------------------------------------------*
    2591 0000060c           ||$C$L53||:    
    2592                            .dwpsn  file "H:/EECS_690/TI_ARM_Tiva_Projects_EECS_690_Sp16/Source/tasks.c",line 1519,column 
    2593 0000060c 9802              LDR       A1, [SP, #8]          ; [DPU_3_PIPE] |1519|  ; [ORIG 16-BIT INS]
    2594 0000060e 1D00              ADDS      A1, A1, #4            ; [DPU_3_PIPE] |1519|  ; [ORIG 16-BIT INS]
    2595                    $C$DW$182       .dwtag  DW_TAG_TI_branch
    2596                            .dwattr $C$DW$182, DW_AT_low_pc(0x00)
