TI ARM Assembler PC v5.2.2 Thu Mar 10 16:27:06 2016

Tools Copyright (c) 1996-2015 Texas Instruments Incorporated
timers.asm                                                           PAGE    1

       1                    ;******************************************************************************
       2                    ;* TI ARM C/C++ Codegen                                             PC v5.2.2 *
       3                    ;* Date/Time created: Thu Mar 10 16:27:05 2016                                *
       4                    ;******************************************************************************
       5                            .compiler_opts --abi=eabi --arm_vmrs_si_workaround=off --code_state=16 --diag_wrap=off --disab
       6 00000000                   .thumb
       7                    
       8                    $C$DW$CU        .dwtag  DW_TAG_compile_unit
       9                            .dwattr $C$DW$CU, DW_AT_name("H:/EECS_690/TI_ARM_Tiva_Projects_EECS_690_Sp16/Source/timers.c")
      10                            .dwattr $C$DW$CU, DW_AT_producer("TI TI ARM C/C++ Codegen PC v5.2.2 Copyright (c) 1996-2015 Te
      11                            .dwattr $C$DW$CU, DW_AT_TI_version(0x01)
      12                            .dwattr $C$DW$CU, DW_AT_comp_dir("H:\EECS_690\TI_ARM_Tiva_Projects_EECS_690_Sp16\FreeRTOS823_3
      13                    
      14                    $C$DW$1 .dwtag  DW_TAG_subprogram, DW_AT_name("vPortEnterCritical")
      15                            .dwattr $C$DW$1, DW_AT_TI_symbol_name("vPortEnterCritical")
      16                            .dwattr $C$DW$1, DW_AT_declaration
      17                            .dwattr $C$DW$1, DW_AT_external
      18                            .dwattr $C$DW$1, DW_AT_decl_file("H:/EECS_690/TI_ARM_Tiva_Projects_EECS_690_Sp16/Source/portab
      19                            .dwattr $C$DW$1, DW_AT_decl_line(0xa7)
      20                            .dwattr $C$DW$1, DW_AT_decl_column(0x0d)
      21                    
      22                    $C$DW$2 .dwtag  DW_TAG_subprogram, DW_AT_name("vPortExitCritical")
      23                            .dwattr $C$DW$2, DW_AT_TI_symbol_name("vPortExitCritical")
      24                            .dwattr $C$DW$2, DW_AT_declaration
      25                            .dwattr $C$DW$2, DW_AT_external
      26                            .dwattr $C$DW$2, DW_AT_decl_file("H:/EECS_690/TI_ARM_Tiva_Projects_EECS_690_Sp16/Source/portab
      27                            .dwattr $C$DW$2, DW_AT_decl_line(0xa8)
      28                            .dwattr $C$DW$2, DW_AT_decl_column(0x0d)
      29                    
      30                    $C$DW$3 .dwtag  DW_TAG_subprogram, DW_AT_name("pvPortMalloc")
      31                            .dwattr $C$DW$3, DW_AT_TI_symbol_name("pvPortMalloc")
      32                            .dwattr $C$DW$3, DW_AT_type(*$C$DW$T$3)
      33                            .dwattr $C$DW$3, DW_AT_declaration
      34                            .dwattr $C$DW$3, DW_AT_external
      35                            .dwattr $C$DW$3, DW_AT_decl_file("H:\EECS_690\TI_ARM_Tiva_Projects_EECS_690_Sp16\Source\includ
      36                            .dwattr $C$DW$3, DW_AT_decl_line(0xab)
      37                            .dwattr $C$DW$3, DW_AT_decl_column(0x07)
      38                    $C$DW$4 .dwtag  DW_TAG_formal_parameter
      39                            .dwattr $C$DW$4, DW_AT_type(*$C$DW$T$26)
      40                            .dwendtag $C$DW$3
      41                    
      42                    
      43                    $C$DW$5 .dwtag  DW_TAG_subprogram, DW_AT_name("vPortFree")
      44                            .dwattr $C$DW$5, DW_AT_TI_symbol_name("vPortFree")
      45                            .dwattr $C$DW$5, DW_AT_declaration
      46                            .dwattr $C$DW$5, DW_AT_external
      47                            .dwattr $C$DW$5, DW_AT_decl_file("H:\EECS_690\TI_ARM_Tiva_Projects_EECS_690_Sp16\Source\includ
      48                            .dwattr $C$DW$5, DW_AT_decl_line(0xac)
      49                            .dwattr $C$DW$5, DW_AT_decl_column(0x06)
      50                    $C$DW$6 .dwtag  DW_TAG_formal_parameter
      51                            .dwattr $C$DW$6, DW_AT_type(*$C$DW$T$3)
      52                            .dwendtag $C$DW$5
      53                    
      54                    
      55                    $C$DW$7 .dwtag  DW_TAG_subprogram, DW_AT_name("vListInitialise")
TI ARM Assembler PC v5.2.2 Thu Mar 10 16:27:06 2016

Tools Copyright (c) 1996-2015 Texas Instruments Incorporated
timers.asm                                                           PAGE    2

      56                            .dwattr $C$DW$7, DW_AT_TI_symbol_name("vListInitialise")
      57                            .dwattr $C$DW$7, DW_AT_declaration
      58                            .dwattr $C$DW$7, DW_AT_external
      59                            .dwattr $C$DW$7, DW_AT_decl_file("H:\EECS_690\TI_ARM_Tiva_Projects_EECS_690_Sp16\Source\includ
      60                            .dwattr $C$DW$7, DW_AT_decl_line(0x182)
      61                            .dwattr $C$DW$7, DW_AT_decl_column(0x06)
      62                    $C$DW$8 .dwtag  DW_TAG_formal_parameter
      63                            .dwattr $C$DW$8, DW_AT_type(*$C$DW$T$103)
      64                            .dwendtag $C$DW$7
      65                    
      66                    
      67                    $C$DW$9 .dwtag  DW_TAG_subprogram, DW_AT_name("vListInitialiseItem")
      68                            .dwattr $C$DW$9, DW_AT_TI_symbol_name("vListInitialiseItem")
      69                            .dwattr $C$DW$9, DW_AT_declaration
      70                            .dwattr $C$DW$9, DW_AT_external
      71                            .dwattr $C$DW$9, DW_AT_decl_file("H:\EECS_690\TI_ARM_Tiva_Projects_EECS_690_Sp16\Source\includ
      72                            .dwattr $C$DW$9, DW_AT_decl_line(0x18d)
      73                            .dwattr $C$DW$9, DW_AT_decl_column(0x06)
      74                    $C$DW$10        .dwtag  DW_TAG_formal_parameter
      75                            .dwattr $C$DW$10, DW_AT_type(*$C$DW$T$106)
      76                            .dwendtag $C$DW$9
      77                    
      78                    
      79                    $C$DW$11        .dwtag  DW_TAG_subprogram, DW_AT_name("vListInsert")
      80                            .dwattr $C$DW$11, DW_AT_TI_symbol_name("vListInsert")
      81                            .dwattr $C$DW$11, DW_AT_declaration
      82                            .dwattr $C$DW$11, DW_AT_external
      83                            .dwattr $C$DW$11, DW_AT_decl_file("H:\EECS_690\TI_ARM_Tiva_Projects_EECS_690_Sp16\Source\inclu
      84                            .dwattr $C$DW$11, DW_AT_decl_line(0x19a)
      85                            .dwattr $C$DW$11, DW_AT_decl_column(0x06)
      86                    $C$DW$12        .dwtag  DW_TAG_formal_parameter
      87                            .dwattr $C$DW$12, DW_AT_type(*$C$DW$T$103)
      88                    $C$DW$13        .dwtag  DW_TAG_formal_parameter
      89                            .dwattr $C$DW$13, DW_AT_type(*$C$DW$T$106)
      90                            .dwendtag $C$DW$11
      91                    
      92                    
      93                    $C$DW$14        .dwtag  DW_TAG_subprogram, DW_AT_name("uxListRemove")
      94                            .dwattr $C$DW$14, DW_AT_TI_symbol_name("uxListRemove")
      95                            .dwattr $C$DW$14, DW_AT_type(*$C$DW$T$39)
      96                            .dwattr $C$DW$14, DW_AT_declaration
      97                            .dwattr $C$DW$14, DW_AT_external
      98                            .dwattr $C$DW$14, DW_AT_decl_file("H:\EECS_690\TI_ARM_Tiva_Projects_EECS_690_Sp16\Source\inclu
      99                            .dwattr $C$DW$14, DW_AT_decl_line(0x1be)
     100                            .dwattr $C$DW$14, DW_AT_decl_column(0x0d)
     101                    $C$DW$15        .dwtag  DW_TAG_formal_parameter
     102                            .dwattr $C$DW$15, DW_AT_type(*$C$DW$T$106)
     103                            .dwendtag $C$DW$14
     104                    
     105                    
     106                    $C$DW$16        .dwtag  DW_TAG_subprogram, DW_AT_name("vTaskSuspendAll")
     107                            .dwattr $C$DW$16, DW_AT_TI_symbol_name("vTaskSuspendAll")
     108                            .dwattr $C$DW$16, DW_AT_declaration
     109                            .dwattr $C$DW$16, DW_AT_external
     110                            .dwattr $C$DW$16, DW_AT_decl_file("H:/EECS_690/TI_ARM_Tiva_Projects_EECS_690_Sp16/Source/inclu
TI ARM Assembler PC v5.2.2 Thu Mar 10 16:27:06 2016

Tools Copyright (c) 1996-2015 Texas Instruments Incorporated
timers.asm                                                           PAGE    3

     111                            .dwattr $C$DW$16, DW_AT_decl_line(0x3e6)
     112                            .dwattr $C$DW$16, DW_AT_decl_column(0x06)
     113                    
     114                    $C$DW$17        .dwtag  DW_TAG_subprogram, DW_AT_name("xTaskResumeAll")
     115                            .dwattr $C$DW$17, DW_AT_TI_symbol_name("xTaskResumeAll")
     116                            .dwattr $C$DW$17, DW_AT_type(*$C$DW$T$50)
     117                            .dwattr $C$DW$17, DW_AT_declaration
     118                            .dwattr $C$DW$17, DW_AT_external
     119                            .dwattr $C$DW$17, DW_AT_decl_file("H:/EECS_690/TI_ARM_Tiva_Projects_EECS_690_Sp16/Source/inclu
     120                            .dwattr $C$DW$17, DW_AT_decl_line(0x41c)
     121                            .dwattr $C$DW$17, DW_AT_decl_column(0x0c)
     122                    
     123                    $C$DW$18        .dwtag  DW_TAG_subprogram, DW_AT_name("xTaskGetTickCount")
     124                            .dwattr $C$DW$18, DW_AT_TI_symbol_name("xTaskGetTickCount")
     125                            .dwattr $C$DW$18, DW_AT_type(*$C$DW$T$38)
     126                            .dwattr $C$DW$18, DW_AT_declaration
     127                            .dwattr $C$DW$18, DW_AT_external
     128                            .dwattr $C$DW$18, DW_AT_decl_file("H:/EECS_690/TI_ARM_Tiva_Projects_EECS_690_Sp16/Source/inclu
     129                            .dwattr $C$DW$18, DW_AT_decl_line(0x42b)
     130                            .dwattr $C$DW$18, DW_AT_decl_column(0x0c)
     131                    
     132                    $C$DW$19        .dwtag  DW_TAG_subprogram, DW_AT_name("xTaskGetSchedulerState")
     133                            .dwattr $C$DW$19, DW_AT_TI_symbol_name("xTaskGetSchedulerState")
     134                            .dwattr $C$DW$19, DW_AT_type(*$C$DW$T$50)
     135                            .dwattr $C$DW$19, DW_AT_declaration
     136                            .dwattr $C$DW$19, DW_AT_external
     137                            .dwattr $C$DW$19, DW_AT_decl_file("H:/EECS_690/TI_ARM_Tiva_Projects_EECS_690_Sp16/Source/inclu
     138                            .dwattr $C$DW$19, DW_AT_decl_line(0x7b0)
     139                            .dwattr $C$DW$19, DW_AT_decl_column(0x0c)
     140                    
     141                    $C$DW$20        .dwtag  DW_TAG_subprogram, DW_AT_name("xTaskGenericCreate")
     142                            .dwattr $C$DW$20, DW_AT_TI_symbol_name("xTaskGenericCreate")
     143                            .dwattr $C$DW$20, DW_AT_type(*$C$DW$T$50)
     144                            .dwattr $C$DW$20, DW_AT_declaration
     145                            .dwattr $C$DW$20, DW_AT_external
     146                            .dwattr $C$DW$20, DW_AT_decl_file("H:/EECS_690/TI_ARM_Tiva_Projects_EECS_690_Sp16/Source/inclu
     147                            .dwattr $C$DW$20, DW_AT_decl_line(0x7c2)
     148                            .dwattr $C$DW$20, DW_AT_decl_column(0x0c)
     149                    $C$DW$21        .dwtag  DW_TAG_formal_parameter
     150                            .dwattr $C$DW$21, DW_AT_type(*$C$DW$T$61)
     151                    $C$DW$22        .dwtag  DW_TAG_formal_parameter
     152                            .dwattr $C$DW$22, DW_AT_type(*$C$DW$T$62)
     153                    $C$DW$23        .dwtag  DW_TAG_formal_parameter
     154                            .dwattr $C$DW$23, DW_AT_type(*$C$DW$T$133)
     155                    $C$DW$24        .dwtag  DW_TAG_formal_parameter
     156                            .dwattr $C$DW$24, DW_AT_type(*$C$DW$T$93)
     157                    $C$DW$25        .dwtag  DW_TAG_formal_parameter
     158                            .dwattr $C$DW$25, DW_AT_type(*$C$DW$T$39)
     159                    $C$DW$26        .dwtag  DW_TAG_formal_parameter
     160                            .dwattr $C$DW$26, DW_AT_type(*$C$DW$T$90)
     161                    $C$DW$27        .dwtag  DW_TAG_formal_parameter
     162                            .dwattr $C$DW$27, DW_AT_type(*$C$DW$T$142)
     163                    $C$DW$28        .dwtag  DW_TAG_formal_parameter
     164                            .dwattr $C$DW$28, DW_AT_type(*$C$DW$T$145)
     165                            .dwendtag $C$DW$20
TI ARM Assembler PC v5.2.2 Thu Mar 10 16:27:06 2016

Tools Copyright (c) 1996-2015 Texas Instruments Incorporated
timers.asm                                                           PAGE    4

     166                    
     167                    
     168                    $C$DW$29        .dwtag  DW_TAG_subprogram, DW_AT_name("xQueueGenericSend")
     169                            .dwattr $C$DW$29, DW_AT_TI_symbol_name("xQueueGenericSend")
     170                            .dwattr $C$DW$29, DW_AT_type(*$C$DW$T$50)
     171                            .dwattr $C$DW$29, DW_AT_declaration
     172                            .dwattr $C$DW$29, DW_AT_external
     173                            .dwattr $C$DW$29, DW_AT_decl_file("H:/EECS_690/TI_ARM_Tiva_Projects_EECS_690_Sp16/Source/inclu
     174                            .dwattr $C$DW$29, DW_AT_decl_line(0x250)
     175                            .dwattr $C$DW$29, DW_AT_decl_column(0x0c)
     176                    $C$DW$30        .dwtag  DW_TAG_formal_parameter
     177                            .dwattr $C$DW$30, DW_AT_type(*$C$DW$T$82)
     178                    $C$DW$31        .dwtag  DW_TAG_formal_parameter
     179                            .dwattr $C$DW$31, DW_AT_type(*$C$DW$T$113)
     180                    $C$DW$32        .dwtag  DW_TAG_formal_parameter
     181                            .dwattr $C$DW$32, DW_AT_type(*$C$DW$T$38)
     182                    $C$DW$33        .dwtag  DW_TAG_formal_parameter
     183                            .dwattr $C$DW$33, DW_AT_type(*$C$DW$T$116)
     184                            .dwendtag $C$DW$29
     185                    
     186                    
     187                    $C$DW$34        .dwtag  DW_TAG_subprogram, DW_AT_name("xQueueGenericReceive")
     188                            .dwattr $C$DW$34, DW_AT_TI_symbol_name("xQueueGenericReceive")
     189                            .dwattr $C$DW$34, DW_AT_type(*$C$DW$T$50)
     190                            .dwattr $C$DW$34, DW_AT_declaration
     191                            .dwattr $C$DW$34, DW_AT_external
     192                            .dwattr $C$DW$34, DW_AT_decl_file("H:/EECS_690/TI_ARM_Tiva_Projects_EECS_690_Sp16/Source/inclu
     193                            .dwattr $C$DW$34, DW_AT_decl_line(0x391)
     194                            .dwattr $C$DW$34, DW_AT_decl_column(0x0c)
     195                    $C$DW$35        .dwtag  DW_TAG_formal_parameter
     196                            .dwattr $C$DW$35, DW_AT_type(*$C$DW$T$82)
     197                    $C$DW$36        .dwtag  DW_TAG_formal_parameter
     198                            .dwattr $C$DW$36, DW_AT_type(*$C$DW$T$93)
     199                    $C$DW$37        .dwtag  DW_TAG_formal_parameter
     200                            .dwattr $C$DW$37, DW_AT_type(*$C$DW$T$38)
     201                    $C$DW$38        .dwtag  DW_TAG_formal_parameter
     202                            .dwattr $C$DW$38, DW_AT_type(*$C$DW$T$116)
     203                            .dwendtag $C$DW$34
     204                    
     205                    
     206                    $C$DW$39        .dwtag  DW_TAG_subprogram, DW_AT_name("xQueueGenericSendFromISR")
     207                            .dwattr $C$DW$39, DW_AT_TI_symbol_name("xQueueGenericSendFromISR")
     208                            .dwattr $C$DW$39, DW_AT_type(*$C$DW$T$50)
     209                            .dwattr $C$DW$39, DW_AT_declaration
     210                            .dwattr $C$DW$39, DW_AT_external
     211                            .dwattr $C$DW$39, DW_AT_decl_file("H:/EECS_690/TI_ARM_Tiva_Projects_EECS_690_Sp16/Source/inclu
     212                            .dwattr $C$DW$39, DW_AT_decl_line(0x53c)
     213                            .dwattr $C$DW$39, DW_AT_decl_column(0x0c)
     214                    $C$DW$40        .dwtag  DW_TAG_formal_parameter
     215                            .dwattr $C$DW$40, DW_AT_type(*$C$DW$T$82)
     216                    $C$DW$41        .dwtag  DW_TAG_formal_parameter
     217                            .dwattr $C$DW$41, DW_AT_type(*$C$DW$T$113)
     218                    $C$DW$42        .dwtag  DW_TAG_formal_parameter
     219                            .dwattr $C$DW$42, DW_AT_type(*$C$DW$T$153)
     220                    $C$DW$43        .dwtag  DW_TAG_formal_parameter
TI ARM Assembler PC v5.2.2 Thu Mar 10 16:27:06 2016

Tools Copyright (c) 1996-2015 Texas Instruments Incorporated
timers.asm                                                           PAGE    5

     221                            .dwattr $C$DW$43, DW_AT_type(*$C$DW$T$116)
     222                            .dwendtag $C$DW$39
     223                    
     224                    
     225                    $C$DW$44        .dwtag  DW_TAG_subprogram, DW_AT_name("vQueueAddToRegistry")
     226                            .dwattr $C$DW$44, DW_AT_TI_symbol_name("vQueueAddToRegistry")
     227                            .dwattr $C$DW$44, DW_AT_declaration
     228                            .dwattr $C$DW$44, DW_AT_external
     229                            .dwattr $C$DW$44, DW_AT_decl_file("H:/EECS_690/TI_ARM_Tiva_Projects_EECS_690_Sp16/Source/inclu
     230                            .dwattr $C$DW$44, DW_AT_decl_line(0x5f1)
     231                            .dwattr $C$DW$44, DW_AT_decl_column(0x07)
     232                    $C$DW$45        .dwtag  DW_TAG_formal_parameter
     233                            .dwattr $C$DW$45, DW_AT_type(*$C$DW$T$82)
     234                    $C$DW$46        .dwtag  DW_TAG_formal_parameter
     235                            .dwattr $C$DW$46, DW_AT_type(*$C$DW$T$36)
     236                            .dwendtag $C$DW$44
     237                    
     238                    
     239                    $C$DW$47        .dwtag  DW_TAG_subprogram, DW_AT_name("xQueueGenericCreate")
     240                            .dwattr $C$DW$47, DW_AT_TI_symbol_name("xQueueGenericCreate")
     241                            .dwattr $C$DW$47, DW_AT_type(*$C$DW$T$82)
     242                            .dwattr $C$DW$47, DW_AT_declaration
     243                            .dwattr $C$DW$47, DW_AT_external
     244                            .dwattr $C$DW$47, DW_AT_decl_file("H:/EECS_690/TI_ARM_Tiva_Projects_EECS_690_Sp16/Source/inclu
     245                            .dwattr $C$DW$47, DW_AT_decl_line(0x606)
     246                            .dwattr $C$DW$47, DW_AT_decl_column(0x0f)
     247                    $C$DW$48        .dwtag  DW_TAG_formal_parameter
     248                            .dwattr $C$DW$48, DW_AT_type(*$C$DW$T$83)
     249                    $C$DW$49        .dwtag  DW_TAG_formal_parameter
     250                            .dwattr $C$DW$49, DW_AT_type(*$C$DW$T$83)
     251                    $C$DW$50        .dwtag  DW_TAG_formal_parameter
     252                            .dwattr $C$DW$50, DW_AT_type(*$C$DW$T$84)
     253                            .dwendtag $C$DW$47
     254                    
     255                    
     256                    $C$DW$51        .dwtag  DW_TAG_subprogram, DW_AT_name("vQueueWaitForMessageRestricted")
     257                            .dwattr $C$DW$51, DW_AT_TI_symbol_name("vQueueWaitForMessageRestricted")
     258                            .dwattr $C$DW$51, DW_AT_declaration
     259                            .dwattr $C$DW$51, DW_AT_external
     260                            .dwattr $C$DW$51, DW_AT_decl_file("H:/EECS_690/TI_ARM_Tiva_Projects_EECS_690_Sp16/Source/inclu
     261                            .dwattr $C$DW$51, DW_AT_decl_line(0x68f)
     262                            .dwattr $C$DW$51, DW_AT_decl_column(0x06)
     263                    $C$DW$52        .dwtag  DW_TAG_formal_parameter
     264                            .dwattr $C$DW$52, DW_AT_type(*$C$DW$T$82)
     265                    $C$DW$53        .dwtag  DW_TAG_formal_parameter
     266                            .dwattr $C$DW$53, DW_AT_type(*$C$DW$T$38)
     267                    $C$DW$54        .dwtag  DW_TAG_formal_parameter
     268                            .dwattr $C$DW$54, DW_AT_type(*$C$DW$T$116)
     269                            .dwendtag $C$DW$51
     270                    
     271                            .common xActiveTimerList1,20,4
     272                    $C$DW$55        .dwtag  DW_TAG_variable, DW_AT_name("xActiveTimerList1")
     273                            .dwattr $C$DW$55, DW_AT_TI_symbol_name("xActiveTimerList1")
     274                            .dwattr $C$DW$55, DW_AT_type(*$C$DW$T$101)
     275                            .dwattr $C$DW$55, DW_AT_location[DW_OP_addr xActiveTimerList1]
TI ARM Assembler PC v5.2.2 Thu Mar 10 16:27:06 2016

Tools Copyright (c) 1996-2015 Texas Instruments Incorporated
timers.asm                                                           PAGE    6

     276                            .dwattr $C$DW$55, DW_AT_decl_file("H:/EECS_690/TI_ARM_Tiva_Projects_EECS_690_Sp16/Source/timer
     277                            .dwattr $C$DW$55, DW_AT_decl_line(0xa3)
     278                            .dwattr $C$DW$55, DW_AT_decl_column(0x1f)
     279                            .common xActiveTimerList2,20,4
     280                    $C$DW$56        .dwtag  DW_TAG_variable, DW_AT_name("xActiveTimerList2")
     281                            .dwattr $C$DW$56, DW_AT_TI_symbol_name("xActiveTimerList2")
     282                            .dwattr $C$DW$56, DW_AT_type(*$C$DW$T$101)
     283                            .dwattr $C$DW$56, DW_AT_location[DW_OP_addr xActiveTimerList2]
     284                            .dwattr $C$DW$56, DW_AT_decl_file("H:/EECS_690/TI_ARM_Tiva_Projects_EECS_690_Sp16/Source/timer
     285                            .dwattr $C$DW$56, DW_AT_decl_line(0xa4)
     286                            .dwattr $C$DW$56, DW_AT_decl_column(0x1f)
     287                            .common pxCurrentTimerList,4,4
     288                    $C$DW$57        .dwtag  DW_TAG_variable, DW_AT_name("pxCurrentTimerList")
     289                            .dwattr $C$DW$57, DW_AT_TI_symbol_name("pxCurrentTimerList")
     290                            .dwattr $C$DW$57, DW_AT_type(*$C$DW$T$102)
     291                            .dwattr $C$DW$57, DW_AT_location[DW_OP_addr pxCurrentTimerList]
     292                            .dwattr $C$DW$57, DW_AT_decl_file("H:/EECS_690/TI_ARM_Tiva_Projects_EECS_690_Sp16/Source/timer
     293                            .dwattr $C$DW$57, DW_AT_decl_line(0xa5)
     294                            .dwattr $C$DW$57, DW_AT_decl_column(0x20)
     295                            .common pxOverflowTimerList,4,4
     296                    $C$DW$58        .dwtag  DW_TAG_variable, DW_AT_name("pxOverflowTimerList")
     297                            .dwattr $C$DW$58, DW_AT_TI_symbol_name("pxOverflowTimerList")
     298                            .dwattr $C$DW$58, DW_AT_type(*$C$DW$T$102)
     299                            .dwattr $C$DW$58, DW_AT_location[DW_OP_addr pxOverflowTimerList]
     300                            .dwattr $C$DW$58, DW_AT_decl_file("H:/EECS_690/TI_ARM_Tiva_Projects_EECS_690_Sp16/Source/timer
     301                            .dwattr $C$DW$58, DW_AT_decl_line(0xa6)
     302                            .dwattr $C$DW$58, DW_AT_decl_column(0x20)
     303 00000000                   .data
     304                            .align  4
     305                            .elfsym xTimerQueue,SYM_SIZE(4)
     306 00000000           xTimerQueue:
     307 00000000 00000000          .bits   0,32                    ; xTimerQueue @ 0
     308                    
     309                    $C$DW$59        .dwtag  DW_TAG_variable, DW_AT_name("xTimerQueue")
     310                            .dwattr $C$DW$59, DW_AT_TI_symbol_name("xTimerQueue")
     311                            .dwattr $C$DW$59, DW_AT_type(*$C$DW$T$82)
     312                            .dwattr $C$DW$59, DW_AT_location[DW_OP_addr xTimerQueue]
     313                            .dwattr $C$DW$59, DW_AT_decl_file("H:/EECS_690/TI_ARM_Tiva_Projects_EECS_690_Sp16/Source/timer
     314                            .dwattr $C$DW$59, DW_AT_decl_line(0xa9)
     315                            .dwattr $C$DW$59, DW_AT_decl_column(0x26)
     316 00000004                   .data
     317                            .align  4
     318                            .elfsym xLastTime$1,SYM_SIZE(4)
     319 00000004           xLastTime$1:
     320 00000004 00000000          .bits   0,32                    ; xLastTime$1 @ 0
     321                    
     322                    ;       C:\TI_CodeComposer\ccsv6\tools\compiler\ti-cgt-arm_5.2.2\bin\armacpia.exe -@C:\\Users\\callmon
     323 00000000                   .sect   ".text"
     324                            .clink
     325                            .thumbfunc xTimerCreateTimerTask
     326 00000000                   .thumb
     327                            .global xTimerCreateTimerTask
     328                    
     329                    $C$DW$60        .dwtag  DW_TAG_subprogram, DW_AT_name("xTimerCreateTimerTask")
     330                            .dwattr $C$DW$60, DW_AT_low_pc(xTimerCreateTimerTask)
TI ARM Assembler PC v5.2.2 Thu Mar 10 16:27:06 2016

Tools Copyright (c) 1996-2015 Texas Instruments Incorporated
timers.asm                                                           PAGE    7

     331                            .dwattr $C$DW$60, DW_AT_high_pc(0x00)
     332                            .dwattr $C$DW$60, DW_AT_TI_symbol_name("xTimerCreateTimerTask")
     333                            .dwattr $C$DW$60, DW_AT_external
     334                            .dwattr $C$DW$60, DW_AT_type(*$C$DW$T$50)
     335                            .dwattr $C$DW$60, DW_AT_TI_begin_file("H:/EECS_690/TI_ARM_Tiva_Projects_EECS_690_Sp16/Source/t
     336                            .dwattr $C$DW$60, DW_AT_TI_begin_line(0xf0)
     337                            .dwattr $C$DW$60, DW_AT_TI_begin_column(0x0c)
     338                            .dwattr $C$DW$60, DW_AT_decl_file("H:/EECS_690/TI_ARM_Tiva_Projects_EECS_690_Sp16/Source/timer
     339                            .dwattr $C$DW$60, DW_AT_decl_line(0xf0)
     340                            .dwattr $C$DW$60, DW_AT_decl_column(0x0c)
     341                            .dwattr $C$DW$60, DW_AT_TI_max_frame_size(0x18)
     342                            .dwpsn  file "H:/EECS_690/TI_ARM_Tiva_Projects_EECS_690_Sp16/Source/timers.c",line 241,column 
     343                    
     344                            .dwfde $C$DW$CIE, xTimerCreateTimerTask
     345                    
     346                    ;*****************************************************************************
     347                    ;* FUNCTION NAME: xTimerCreateTimerTask                                      *
     348                    ;*                                                                           *
     349                    ;*   Regs Modified     : A1,A2,A3,A4,V9,SP,LR,SR,D0,D0_hi,D1,D1_hi,D2,D2_hi, *
     350                    ;*                           D3,D3_hi,D4,D4_hi,D5,D5_hi,D6,D6_hi,D7,D7_hi,   *
     351                    ;*                           FPEXC,FPSCR                                     *
     352                    ;*   Regs Used         : A1,A2,A3,A4,V9,SP,LR,SR,D0,D0_hi,D1,D1_hi,D2,D2_hi, *
     353                    ;*                           D3,D3_hi,D4,D4_hi,D5,D5_hi,D6,D6_hi,D7,D7_hi,   *
     354                    ;*                           FPEXC,FPSCR                                     *
     355                    ;*   Local Frame Size  : 16 Args + 4 Auto + 4 Save = 24 byte                 *
     356                    ;*****************************************************************************
     357 00000000           xTimerCreateTimerTask:
     358                    ;* --------------------------------------------------------------------------*
     359                            .dwcfi  cfa_offset, 0
     360 00000000 B500              PUSH      {LR}                  ; [DPU_3_PIPE]  ; [ORIG 16-BIT INS]
     361                            .dwcfi  cfa_offset, 4
     362                            .dwcfi  save_reg_to_mem, 14, -4
     363 00000002 0D14F1AD          SUB       SP, SP, #20           ; [DPU_3_PIPE]  ; [KEEP 32-BIT INS]
     364                            .dwcfi  cfa_offset, 24
     365                    $C$DW$61        .dwtag  DW_TAG_variable, DW_AT_name("xReturn")
     366                            .dwattr $C$DW$61, DW_AT_TI_symbol_name("xReturn")
     367                            .dwattr $C$DW$61, DW_AT_type(*$C$DW$T$50)
     368                            .dwattr $C$DW$61, DW_AT_location[DW_OP_breg13 16]
     369                            .dwpsn  file "H:/EECS_690/TI_ARM_Tiva_Projects_EECS_690_Sp16/Source/timers.c",line 242,column 
     370 00000006 2000              MOVS      A1, #0                ; [DPU_3_PIPE] |242|  ; [ORIG 16-BIT INS]
     371 00000008 9004              STR       A1, [SP, #16]         ; [DPU_3_PIPE] |242|  ; [ORIG 16-BIT INS]
     372                            .dwpsn  file "H:/EECS_690/TI_ARM_Tiva_Projects_EECS_690_Sp16/Source/timers.c",line 248,column 
     373                    $C$DW$62        .dwtag  DW_TAG_TI_branch
     374                            .dwattr $C$DW$62, DW_AT_low_pc(0x00)
     375                            .dwattr $C$DW$62, DW_AT_name("prvCheckForValidListAndQueue")
     376                            .dwattr $C$DW$62, DW_AT_TI_call
     377 0000000a FA2FF000          BL        prvCheckForValidListAndQueue ; [DPU_3_PIPE] |248|  ; [KEEP 32-BIT INS]
     378                            ; CALL OCCURS {prvCheckForValidListAndQueue }  ; [] |248| 
     379                            .dwpsn  file "H:/EECS_690/TI_ARM_Tiva_Projects_EECS_690_Sp16/Source/timers.c",line 250,column 
     380 0000000e 4896              LDR       A1, $C$CON1           ; [DPU_3_PIPE] |250|  ; [ORIG 16-BIT INS]
     381 00000010 6800              LDR       A1, [A1, #0]          ; [DPU_3_PIPE] |250|  ; [ORIG 16-BIT INS]
     382 00000012 B178              CBZ       A1, ||$C$L1||         ; []  ; [ORIG 16-BIT INS]
     383                            ; BRANCHCC OCCURS {||$C$L1||}    ; [] |250| 
     384                    ;* --------------------------------------------------------------------------*
     385                            .dwpsn  file "H:/EECS_690/TI_ARM_Tiva_Projects_EECS_690_Sp16/Source/timers.c",line 261,column 
TI ARM Assembler PC v5.2.2 Thu Mar 10 16:27:06 2016

Tools Copyright (c) 1996-2015 Texas Instruments Incorporated
timers.asm                                                           PAGE    8

     386 00000014 2004              MOVS      A1, #4                ; [DPU_3_PIPE] |261|  ; [ORIG 16-BIT INS]
     387 00000016 9000              STR       A1, [SP, #0]          ; [DPU_3_PIPE] |261|  ; [ORIG 16-BIT INS]
     388 00000018 2000              MOVS      A1, #0                ; [DPU_3_PIPE] |261|  ; [ORIG 16-BIT INS]
     389 0000001a 9001              STR       A1, [SP, #4]          ; [DPU_3_PIPE] |261|  ; [ORIG 16-BIT INS]
     390 0000001c 2000              MOVS      A1, #0                ; [DPU_3_PIPE] |261|  ; [ORIG 16-BIT INS]
     391 0000001e 9002              STR       A1, [SP, #8]          ; [DPU_3_PIPE] |261|  ; [ORIG 16-BIT INS]
     392 00000020 2000              MOVS      A1, #0                ; [DPU_3_PIPE] |261|  ; [ORIG 16-BIT INS]
     393 00000022 9003              STR       A1, [SP, #12]         ; [DPU_3_PIPE] |261|  ; [ORIG 16-BIT INS]
     394 00000024 4891              LDR       A1, $C$CON2           ; [DPU_3_PIPE] |261|  ; [ORIG 16-BIT INS]
     395 00000026 A18E              ADR       A2, $C$SL1            ; [DPU_3_PIPE] |261|  ; [ORIG 16-BIT INS]
     396 00000028 72C8F44F          MOV       A3, #400              ; [DPU_3_PIPE] |261|  ; [KEEP 32-BIT INS]
     397 0000002c 2300              MOVS      A4, #0                ; [DPU_3_PIPE] |261|  ; [ORIG 16-BIT INS]
     398                    $C$DW$63        .dwtag  DW_TAG_TI_branch
     399                            .dwattr $C$DW$63, DW_AT_low_pc(0x00)
     400                            .dwattr $C$DW$63, DW_AT_name("xTaskGenericCreate")
     401                            .dwattr $C$DW$63, DW_AT_TI_call
     402 0000002e FFFEF7FF!         BL        xTaskGenericCreate    ; [DPU_3_PIPE] |261|  ; [KEEP 32-BIT INS]
     403                            ; CALL OCCURS {xTaskGenericCreate }  ; [] |261| 
     404 00000032 9004              STR       A1, [SP, #16]         ; [DPU_3_PIPE] |261|  ; [ORIG 16-BIT INS]
     405                            .dwpsn  file "H:/EECS_690/TI_ARM_Tiva_Projects_EECS_690_Sp16/Source/timers.c",line 264,column 
     406                    ;* --------------------------------------------------------------------------*
     407 00000034           ||$C$L1||:    
     408                            .dwpsn  file "H:/EECS_690/TI_ARM_Tiva_Projects_EECS_690_Sp16/Source/timers.c",line 271,column 
     409 00000034 9804              LDR       A1, [SP, #16]         ; [DPU_3_PIPE] |271|  ; [ORIG 16-BIT INS]
     410                            .dwpsn  file "H:/EECS_690/TI_ARM_Tiva_Projects_EECS_690_Sp16/Source/timers.c",line 272,column 
     411 00000036 B005              ADD       SP, SP, #20           ; [DPU_3_PIPE]  ; [ORIG 16-BIT INS]
     412                            .dwcfi  cfa_offset, 4
     413                    $C$DW$64        .dwtag  DW_TAG_TI_branch
     414                            .dwattr $C$DW$64, DW_AT_low_pc(0x00)
     415                            .dwattr $C$DW$64, DW_AT_TI_return
     416 00000038 BD00              POP       {PC}                  ; [DPU_3_PIPE]  ; [ORIG 16-BIT INS]
     417                            .dwcfi  cfa_offset, 0
     418                            ; BRANCH OCCURS                  ; [] 
     419                            .dwattr $C$DW$60, DW_AT_TI_end_file("H:/EECS_690/TI_ARM_Tiva_Projects_EECS_690_Sp16/Source/tim
     420                            .dwattr $C$DW$60, DW_AT_TI_end_line(0x110)
     421                            .dwattr $C$DW$60, DW_AT_TI_end_column(0x01)
     422                            .dwendentry
     423                            .dwendtag $C$DW$60
     424                    
     425 0000003a                   .sect   ".text"
     426                            .clink
     427                            .thumbfunc xTimerCreate
     428 0000003a                   .thumb
     429                            .global xTimerCreate
     430                    
     431                    $C$DW$65        .dwtag  DW_TAG_subprogram, DW_AT_name("xTimerCreate")
     432                            .dwattr $C$DW$65, DW_AT_low_pc(xTimerCreate)
     433                            .dwattr $C$DW$65, DW_AT_high_pc(0x00)
     434                            .dwattr $C$DW$65, DW_AT_TI_symbol_name("xTimerCreate")
     435                            .dwattr $C$DW$65, DW_AT_external
     436                            .dwattr $C$DW$65, DW_AT_type(*$C$DW$T$40)
     437                            .dwattr $C$DW$65, DW_AT_TI_begin_file("H:/EECS_690/TI_ARM_Tiva_Projects_EECS_690_Sp16/Source/t
     438                            .dwattr $C$DW$65, DW_AT_TI_begin_line(0x113)
     439                            .dwattr $C$DW$65, DW_AT_TI_begin_column(0x0f)
     440                            .dwattr $C$DW$65, DW_AT_decl_file("H:/EECS_690/TI_ARM_Tiva_Projects_EECS_690_Sp16/Source/timer
TI ARM Assembler PC v5.2.2 Thu Mar 10 16:27:06 2016

Tools Copyright (c) 1996-2015 Texas Instruments Incorporated
timers.asm                                                           PAGE    9

     441                            .dwattr $C$DW$65, DW_AT_decl_line(0x113)
     442                            .dwattr $C$DW$65, DW_AT_decl_column(0x0f)
     443                            .dwattr $C$DW$65, DW_AT_TI_max_frame_size(0x18)
     444                            .dwpsn  file "H:/EECS_690/TI_ARM_Tiva_Projects_EECS_690_Sp16/Source/timers.c",line 276,column 
     445                    
     446                            .dwfde $C$DW$CIE, xTimerCreate
     447                    $C$DW$66        .dwtag  DW_TAG_formal_parameter, DW_AT_name("pcTimerName")
     448                            .dwattr $C$DW$66, DW_AT_TI_symbol_name("pcTimerName")
     449                            .dwattr $C$DW$66, DW_AT_type(*$C$DW$T$62)
     450                            .dwattr $C$DW$66, DW_AT_location[DW_OP_reg0]
     451                    $C$DW$67        .dwtag  DW_TAG_formal_parameter, DW_AT_name("xTimerPeriodInTicks")
     452                            .dwattr $C$DW$67, DW_AT_TI_symbol_name("xTimerPeriodInTicks")
     453                            .dwattr $C$DW$67, DW_AT_type(*$C$DW$T$92)
     454                            .dwattr $C$DW$67, DW_AT_location[DW_OP_reg1]
     455                    $C$DW$68        .dwtag  DW_TAG_formal_parameter, DW_AT_name("uxAutoReload")
     456                            .dwattr $C$DW$68, DW_AT_TI_symbol_name("uxAutoReload")
     457                            .dwattr $C$DW$68, DW_AT_type(*$C$DW$T$83)
     458                            .dwattr $C$DW$68, DW_AT_location[DW_OP_reg2]
     459                    $C$DW$69        .dwtag  DW_TAG_formal_parameter, DW_AT_name("pvTimerID")
     460                            .dwattr $C$DW$69, DW_AT_TI_symbol_name("pvTimerID")
     461                            .dwattr $C$DW$69, DW_AT_type(*$C$DW$T$93)
     462                            .dwattr $C$DW$69, DW_AT_location[DW_OP_reg3]
     463                    $C$DW$70        .dwtag  DW_TAG_formal_parameter, DW_AT_name("pxCallbackFunction")
     464                            .dwattr $C$DW$70, DW_AT_TI_symbol_name("pxCallbackFunction")
     465                            .dwattr $C$DW$70, DW_AT_type(*$C$DW$T$43)
     466                            .dwattr $C$DW$70, DW_AT_location[DW_OP_breg13 24]
     467                    
     468                    ;*****************************************************************************
     469                    ;* FUNCTION NAME: xTimerCreate                                               *
     470                    ;*                                                                           *
     471                    ;*   Regs Modified     : A1,A2,A3,A4,V9,SP,LR,SR,D0,D0_hi,D1,D1_hi,D2,D2_hi, *
     472                    ;*                           D3,D3_hi,D4,D4_hi,D5,D5_hi,D6,D6_hi,D7,D7_hi,   *
     473                    ;*                           FPEXC,FPSCR                                     *
     474                    ;*   Regs Used         : A1,A2,A3,A4,V9,SP,LR,SR,D0,D0_hi,D1,D1_hi,D2,D2_hi, *
     475                    ;*                           D3,D3_hi,D4,D4_hi,D5,D5_hi,D6,D6_hi,D7,D7_hi,   *
     476                    ;*                           FPEXC,FPSCR                                     *
     477                    ;*   Local Frame Size  : 0 Args + 20 Auto + 4 Save = 24 byte                 *
     478                    ;*****************************************************************************
     479 0000003a           xTimerCreate:
     480                    ;* --------------------------------------------------------------------------*
     481                            .dwcfi  cfa_offset, 0
     482 0000003a B500              PUSH      {LR}                  ; [DPU_3_PIPE]  ; [ORIG 16-BIT INS]
     483                            .dwcfi  cfa_offset, 4
     484                            .dwcfi  save_reg_to_mem, 14, -4
     485 0000003c 0D14F1AD          SUB       SP, SP, #20           ; [DPU_3_PIPE]  ; [KEEP 32-BIT INS]
     486                            .dwcfi  cfa_offset, 24
     487                    $C$DW$71        .dwtag  DW_TAG_variable, DW_AT_name("pcTimerName")
     488                            .dwattr $C$DW$71, DW_AT_TI_symbol_name("pcTimerName")
     489                            .dwattr $C$DW$71, DW_AT_type(*$C$DW$T$62)
     490                            .dwattr $C$DW$71, DW_AT_location[DW_OP_breg13 0]
     491                    $C$DW$72        .dwtag  DW_TAG_variable, DW_AT_name("xTimerPeriodInTicks")
     492                            .dwattr $C$DW$72, DW_AT_TI_symbol_name("xTimerPeriodInTicks")
     493                            .dwattr $C$DW$72, DW_AT_type(*$C$DW$T$92)
     494                            .dwattr $C$DW$72, DW_AT_location[DW_OP_breg13 4]
     495                    $C$DW$73        .dwtag  DW_TAG_variable, DW_AT_name("uxAutoReload")
TI ARM Assembler PC v5.2.2 Thu Mar 10 16:27:06 2016

Tools Copyright (c) 1996-2015 Texas Instruments Incorporated
timers.asm                                                           PAGE   10

     496                            .dwattr $C$DW$73, DW_AT_TI_symbol_name("uxAutoReload")
     497                            .dwattr $C$DW$73, DW_AT_type(*$C$DW$T$83)
     498                            .dwattr $C$DW$73, DW_AT_location[DW_OP_breg13 8]
     499                    $C$DW$74        .dwtag  DW_TAG_variable, DW_AT_name("pvTimerID")
     500                            .dwattr $C$DW$74, DW_AT_TI_symbol_name("pvTimerID")
     501                            .dwattr $C$DW$74, DW_AT_type(*$C$DW$T$93)
     502                            .dwattr $C$DW$74, DW_AT_location[DW_OP_breg13 12]
     503                    $C$DW$75        .dwtag  DW_TAG_variable, DW_AT_name("pxNewTimer")
     504                            .dwattr $C$DW$75, DW_AT_TI_symbol_name("pxNewTimer")
     505                            .dwattr $C$DW$75, DW_AT_type(*$C$DW$T$47)
     506                            .dwattr $C$DW$75, DW_AT_location[DW_OP_breg13 16]
     507 00000040 9303              STR       A4, [SP, #12]         ; [DPU_3_PIPE] |276|  ; [ORIG 16-BIT INS]
     508 00000042 9202              STR       A3, [SP, #8]          ; [DPU_3_PIPE] |276|  ; [ORIG 16-BIT INS]
     509 00000044 9101              STR       A2, [SP, #4]          ; [DPU_3_PIPE] |276|  ; [ORIG 16-BIT INS]
     510 00000046 9000              STR       A1, [SP, #0]          ; [DPU_3_PIPE] |276|  ; [ORIG 16-BIT INS]
     511                            .dwpsn  file "H:/EECS_690/TI_ARM_Tiva_Projects_EECS_690_Sp16/Source/timers.c",line 280,column 
     512 00000048 9801              LDR       A1, [SP, #4]          ; [DPU_3_PIPE] |280|  ; [ORIG 16-BIT INS]
     513 0000004a B910              CBNZ      A1, ||$C$L2||         ; []  ; [ORIG 16-BIT INS]
     514                            ; BRANCHCC OCCURS {||$C$L2||}    ; [] |280| 
     515                    ;* --------------------------------------------------------------------------*
     516                            .dwpsn  file "H:/EECS_690/TI_ARM_Tiva_Projects_EECS_690_Sp16/Source/timers.c",line 282,column 
     517 0000004c 2000              MOVS      A1, #0                ; [DPU_3_PIPE] |282|  ; [ORIG 16-BIT INS]
     518 0000004e 9004              STR       A1, [SP, #16]         ; [DPU_3_PIPE] |282|  ; [ORIG 16-BIT INS]
     519                            .dwpsn  file "H:/EECS_690/TI_ARM_Tiva_Projects_EECS_690_Sp16/Source/timers.c",line 283,column 
     520 00000050 E01A              B         ||$C$L3||             ; [DPU_3_PIPE] |283|  ; [ORIG 16-BIT INS]
     521                            ; BRANCH OCCURS {||$C$L3||}      ; [] |283| 
     522                    ;* --------------------------------------------------------------------------*
     523 00000052           ||$C$L2||:    
     524                            .dwpsn  file "H:/EECS_690/TI_ARM_Tiva_Projects_EECS_690_Sp16/Source/timers.c",line 286,column 
     525 00000052 202C              MOVS      A1, #44               ; [DPU_3_PIPE] |286|  ; [ORIG 16-BIT INS]
     526                    $C$DW$76        .dwtag  DW_TAG_TI_branch
     527                            .dwattr $C$DW$76, DW_AT_low_pc(0x00)
     528                            .dwattr $C$DW$76, DW_AT_name("pvPortMalloc")
     529                            .dwattr $C$DW$76, DW_AT_TI_call
     530 00000054 FFFEF7FF!         BL        pvPortMalloc          ; [DPU_3_PIPE] |286|  ; [KEEP 32-BIT INS]
     531                            ; CALL OCCURS {pvPortMalloc }    ; [] |286| 
     532 00000058 9004              STR       A1, [SP, #16]         ; [DPU_3_PIPE] |286|  ; [ORIG 16-BIT INS]
     533                            .dwpsn  file "H:/EECS_690/TI_ARM_Tiva_Projects_EECS_690_Sp16/Source/timers.c",line 287,column 
     534 0000005a 9804              LDR       A1, [SP, #16]         ; [DPU_3_PIPE] |287|  ; [ORIG 16-BIT INS]
     535 0000005c B1A0              CBZ       A1, ||$C$L3||         ; []  ; [ORIG 16-BIT INS]
     536                            ; BRANCHCC OCCURS {||$C$L3||}    ; [] |287| 
     537                    ;* --------------------------------------------------------------------------*
     538                            .dwpsn  file "H:/EECS_690/TI_ARM_Tiva_Projects_EECS_690_Sp16/Source/timers.c",line 291,column 
     539                    $C$DW$77        .dwtag  DW_TAG_TI_branch
     540                            .dwattr $C$DW$77, DW_AT_low_pc(0x00)
     541                            .dwattr $C$DW$77, DW_AT_name("prvCheckForValidListAndQueue")
     542                            .dwattr $C$DW$77, DW_AT_TI_call
     543 0000005e FA05F000          BL        prvCheckForValidListAndQueue ; [DPU_3_PIPE] |291|  ; [KEEP 32-BIT INS]
     544                            ; CALL OCCURS {prvCheckForValidListAndQueue }  ; [] |291| 
     545                            .dwpsn  file "H:/EECS_690/TI_ARM_Tiva_Projects_EECS_690_Sp16/Source/timers.c",line 294,column 
     546 00000062 9800              LDR       A1, [SP, #0]          ; [DPU_3_PIPE] |294|  ; [ORIG 16-BIT INS]
     547 00000064 9904              LDR       A2, [SP, #16]         ; [DPU_3_PIPE] |294|  ; [ORIG 16-BIT INS]
     548 00000066 6008              STR       A1, [A2, #0]          ; [DPU_3_PIPE] |294|  ; [ORIG 16-BIT INS]
     549                            .dwpsn  file "H:/EECS_690/TI_ARM_Tiva_Projects_EECS_690_Sp16/Source/timers.c",line 295,column 
     550 00000068 9801              LDR       A1, [SP, #4]          ; [DPU_3_PIPE] |295|  ; [ORIG 16-BIT INS]
TI ARM Assembler PC v5.2.2 Thu Mar 10 16:27:06 2016

Tools Copyright (c) 1996-2015 Texas Instruments Incorporated
timers.asm                                                           PAGE   11

     551 0000006a 9904              LDR       A2, [SP, #16]         ; [DPU_3_PIPE] |295|  ; [ORIG 16-BIT INS]
     552 0000006c 6188              STR       A1, [A2, #24]         ; [DPU_3_PIPE] |295|  ; [ORIG 16-BIT INS]
     553                            .dwpsn  file "H:/EECS_690/TI_ARM_Tiva_Projects_EECS_690_Sp16/Source/timers.c",line 296,column 
     554 0000006e 9802              LDR       A1, [SP, #8]          ; [DPU_3_PIPE] |296|  ; [ORIG 16-BIT INS]
     555 00000070 9904              LDR       A2, [SP, #16]         ; [DPU_3_PIPE] |296|  ; [ORIG 16-BIT INS]
     556 00000072 61C8              STR       A1, [A2, #28]         ; [DPU_3_PIPE] |296|  ; [ORIG 16-BIT INS]
     557                            .dwpsn  file "H:/EECS_690/TI_ARM_Tiva_Projects_EECS_690_Sp16/Source/timers.c",line 297,column 
     558 00000074 9803              LDR       A1, [SP, #12]         ; [DPU_3_PIPE] |297|  ; [ORIG 16-BIT INS]
     559 00000076 9904              LDR       A2, [SP, #16]         ; [DPU_3_PIPE] |297|  ; [ORIG 16-BIT INS]
     560 00000078 6208              STR       A1, [A2, #32]         ; [DPU_3_PIPE] |297|  ; [ORIG 16-BIT INS]
     561                            .dwpsn  file "H:/EECS_690/TI_ARM_Tiva_Projects_EECS_690_Sp16/Source/timers.c",line 298,column 
     562 0000007a 9806              LDR       A1, [SP, #24]         ; [DPU_3_PIPE] |298|  ; [ORIG 16-BIT INS]
     563 0000007c 9904              LDR       A2, [SP, #16]         ; [DPU_3_PIPE] |298|  ; [ORIG 16-BIT INS]
     564 0000007e 6248              STR       A1, [A2, #36]         ; [DPU_3_PIPE] |298|  ; [ORIG 16-BIT INS]
     565                            .dwpsn  file "H:/EECS_690/TI_ARM_Tiva_Projects_EECS_690_Sp16/Source/timers.c",line 299,column 
     566 00000080 9804              LDR       A1, [SP, #16]         ; [DPU_3_PIPE] |299|  ; [ORIG 16-BIT INS]
     567 00000082 1D00              ADDS      A1, A1, #4            ; [DPU_3_PIPE] |299|  ; [ORIG 16-BIT INS]
     568                    $C$DW$78        .dwtag  DW_TAG_TI_branch
     569                            .dwattr $C$DW$78, DW_AT_low_pc(0x00)
     570                            .dwattr $C$DW$78, DW_AT_name("vListInitialiseItem")
     571                            .dwattr $C$DW$78, DW_AT_TI_call
     572 00000084 FFFEF7FF!         BL        vListInitialiseItem   ; [DPU_3_PIPE] |299|  ; [KEEP 32-BIT INS]
     573                            ; CALL OCCURS {vListInitialiseItem }  ; [] |299| 
     574                            .dwpsn  file "H:/EECS_690/TI_ARM_Tiva_Projects_EECS_690_Sp16/Source/timers.c",line 302,column 
     575                    ;* --------------------------------------------------------------------------*
     576 00000088           ||$C$L3||:    
     577                            .dwpsn  file "H:/EECS_690/TI_ARM_Tiva_Projects_EECS_690_Sp16/Source/timers.c",line 312,column 
     578 00000088 9804              LDR       A1, [SP, #16]         ; [DPU_3_PIPE] |312|  ; [ORIG 16-BIT INS]
     579                            .dwpsn  file "H:/EECS_690/TI_ARM_Tiva_Projects_EECS_690_Sp16/Source/timers.c",line 313,column 
     580 0000008a B005              ADD       SP, SP, #20           ; [DPU_3_PIPE]  ; [ORIG 16-BIT INS]
     581                            .dwcfi  cfa_offset, 4
     582                    $C$DW$79        .dwtag  DW_TAG_TI_branch
     583                            .dwattr $C$DW$79, DW_AT_low_pc(0x00)
     584                            .dwattr $C$DW$79, DW_AT_TI_return
     585 0000008c BD00              POP       {PC}                  ; [DPU_3_PIPE]  ; [ORIG 16-BIT INS]
     586                            .dwcfi  cfa_offset, 0
     587                            ; BRANCH OCCURS                  ; [] 
     588                            .dwattr $C$DW$65, DW_AT_TI_end_file("H:/EECS_690/TI_ARM_Tiva_Projects_EECS_690_Sp16/Source/tim
     589                            .dwattr $C$DW$65, DW_AT_TI_end_line(0x139)
     590                            .dwattr $C$DW$65, DW_AT_TI_end_column(0x01)
     591                            .dwendentry
     592                            .dwendtag $C$DW$65
     593                    
     594 0000008e                   .sect   ".text"
     595                            .clink
     596                            .thumbfunc xTimerGenericCommand
     597 0000008e                   .thumb
     598                            .global xTimerGenericCommand
     599                    
     600                    $C$DW$80        .dwtag  DW_TAG_subprogram, DW_AT_name("xTimerGenericCommand")
     601                            .dwattr $C$DW$80, DW_AT_low_pc(xTimerGenericCommand)
     602                            .dwattr $C$DW$80, DW_AT_high_pc(0x00)
     603                            .dwattr $C$DW$80, DW_AT_TI_symbol_name("xTimerGenericCommand")
     604                            .dwattr $C$DW$80, DW_AT_external
     605                            .dwattr $C$DW$80, DW_AT_type(*$C$DW$T$50)
TI ARM Assembler PC v5.2.2 Thu Mar 10 16:27:06 2016

Tools Copyright (c) 1996-2015 Texas Instruments Incorporated
timers.asm                                                           PAGE   12

     606                            .dwattr $C$DW$80, DW_AT_TI_begin_file("H:/EECS_690/TI_ARM_Tiva_Projects_EECS_690_Sp16/Source/t
     607                            .dwattr $C$DW$80, DW_AT_TI_begin_line(0x13c)
     608                            .dwattr $C$DW$80, DW_AT_TI_begin_column(0x0c)
     609                            .dwattr $C$DW$80, DW_AT_decl_file("H:/EECS_690/TI_ARM_Tiva_Projects_EECS_690_Sp16/Source/timer
     610                            .dwattr $C$DW$80, DW_AT_decl_line(0x13c)
     611                            .dwattr $C$DW$80, DW_AT_decl_column(0x0c)
     612                            .dwattr $C$DW$80, DW_AT_TI_max_frame_size(0x28)
     613                            .dwpsn  file "H:/EECS_690/TI_ARM_Tiva_Projects_EECS_690_Sp16/Source/timers.c",line 317,column 
     614                    
     615                            .dwfde $C$DW$CIE, xTimerGenericCommand
     616                    $C$DW$81        .dwtag  DW_TAG_formal_parameter, DW_AT_name("xTimer")
     617                            .dwattr $C$DW$81, DW_AT_TI_symbol_name("xTimer")
     618                            .dwattr $C$DW$81, DW_AT_type(*$C$DW$T$40)
     619                            .dwattr $C$DW$81, DW_AT_location[DW_OP_reg0]
     620                    $C$DW$82        .dwtag  DW_TAG_formal_parameter, DW_AT_name("xCommandID")
     621                            .dwattr $C$DW$82, DW_AT_TI_symbol_name("xCommandID")
     622                            .dwattr $C$DW$82, DW_AT_type(*$C$DW$T$116)
     623                            .dwattr $C$DW$82, DW_AT_location[DW_OP_reg1]
     624                    $C$DW$83        .dwtag  DW_TAG_formal_parameter, DW_AT_name("xOptionalValue")
     625                            .dwattr $C$DW$83, DW_AT_TI_symbol_name("xOptionalValue")
     626                            .dwattr $C$DW$83, DW_AT_type(*$C$DW$T$92)
     627                            .dwattr $C$DW$83, DW_AT_location[DW_OP_reg2]
     628                    $C$DW$84        .dwtag  DW_TAG_formal_parameter, DW_AT_name("pxHigherPriorityTaskWoken")
     629                            .dwattr $C$DW$84, DW_AT_TI_symbol_name("pxHigherPriorityTaskWoken")
     630                            .dwattr $C$DW$84, DW_AT_type(*$C$DW$T$153)
     631                            .dwattr $C$DW$84, DW_AT_location[DW_OP_reg3]
     632                    $C$DW$85        .dwtag  DW_TAG_formal_parameter, DW_AT_name("xTicksToWait")
     633                            .dwattr $C$DW$85, DW_AT_TI_symbol_name("xTicksToWait")
     634                            .dwattr $C$DW$85, DW_AT_type(*$C$DW$T$92)
     635                            .dwattr $C$DW$85, DW_AT_location[DW_OP_breg13 40]
     636                    
     637                    ;*****************************************************************************
     638                    ;* FUNCTION NAME: xTimerGenericCommand                                       *
     639                    ;*                                                                           *
     640                    ;*   Regs Modified     : A1,A2,A3,A4,V9,SP,LR,SR,D0,D0_hi,D1,D1_hi,D2,D2_hi, *
     641                    ;*                           D3,D3_hi,D4,D4_hi,D5,D5_hi,D6,D6_hi,D7,D7_hi,   *
     642                    ;*                           FPEXC,FPSCR                                     *
     643                    ;*   Regs Used         : A1,A2,A3,A4,V9,SP,LR,SR,D0,D0_hi,D1,D1_hi,D2,D2_hi, *
     644                    ;*                           D3,D3_hi,D4,D4_hi,D5,D5_hi,D6,D6_hi,D7,D7_hi,   *
     645                    ;*                           FPEXC,FPSCR                                     *
     646                    ;*   Local Frame Size  : 0 Args + 32 Auto + 4 Save = 36 byte                 *
     647                    ;*****************************************************************************
     648 0000008e           xTimerGenericCommand:
     649                    ;* --------------------------------------------------------------------------*
     650                            .dwcfi  cfa_offset, 0
     651 0000008e B500              PUSH      {LR}                  ; [DPU_3_PIPE]  ; [ORIG 16-BIT INS]
     652                            .dwcfi  cfa_offset, 4
     653                            .dwcfi  save_reg_to_mem, 14, -4
     654 00000090 0D24F1AD          SUB       SP, SP, #36           ; [DPU_3_PIPE]  ; [KEEP 32-BIT INS]
     655                            .dwcfi  cfa_offset, 40
     656                    $C$DW$86        .dwtag  DW_TAG_variable, DW_AT_name("xTimer")
     657                            .dwattr $C$DW$86, DW_AT_TI_symbol_name("xTimer")
     658                            .dwattr $C$DW$86, DW_AT_type(*$C$DW$T$40)
     659                            .dwattr $C$DW$86, DW_AT_location[DW_OP_breg13 0]
     660                    $C$DW$87        .dwtag  DW_TAG_variable, DW_AT_name("xCommandID")
TI ARM Assembler PC v5.2.2 Thu Mar 10 16:27:06 2016

Tools Copyright (c) 1996-2015 Texas Instruments Incorporated
timers.asm                                                           PAGE   13

     661                            .dwattr $C$DW$87, DW_AT_TI_symbol_name("xCommandID")
     662                            .dwattr $C$DW$87, DW_AT_type(*$C$DW$T$116)
     663                            .dwattr $C$DW$87, DW_AT_location[DW_OP_breg13 4]
     664                    $C$DW$88        .dwtag  DW_TAG_variable, DW_AT_name("xOptionalValue")
     665                            .dwattr $C$DW$88, DW_AT_TI_symbol_name("xOptionalValue")
     666                            .dwattr $C$DW$88, DW_AT_type(*$C$DW$T$92)
     667                            .dwattr $C$DW$88, DW_AT_location[DW_OP_breg13 8]
     668                    $C$DW$89        .dwtag  DW_TAG_variable, DW_AT_name("pxHigherPriorityTaskWoken")
     669                            .dwattr $C$DW$89, DW_AT_TI_symbol_name("pxHigherPriorityTaskWoken")
     670                            .dwattr $C$DW$89, DW_AT_type(*$C$DW$T$153)
     671                            .dwattr $C$DW$89, DW_AT_location[DW_OP_breg13 12]
     672                    $C$DW$90        .dwtag  DW_TAG_variable, DW_AT_name("xReturn")
     673                            .dwattr $C$DW$90, DW_AT_TI_symbol_name("xReturn")
     674                            .dwattr $C$DW$90, DW_AT_type(*$C$DW$T$50)
     675                            .dwattr $C$DW$90, DW_AT_location[DW_OP_breg13 16]
     676                    $C$DW$91        .dwtag  DW_TAG_variable, DW_AT_name("xMessage")
     677                            .dwattr $C$DW$91, DW_AT_TI_symbol_name("xMessage")
     678                            .dwattr $C$DW$91, DW_AT_type(*$C$DW$T$211)
     679                            .dwattr $C$DW$91, DW_AT_location[DW_OP_breg13 20]
     680 00000094 9303              STR       A4, [SP, #12]         ; [DPU_3_PIPE] |317|  ; [ORIG 16-BIT INS]
     681 00000096 9202              STR       A3, [SP, #8]          ; [DPU_3_PIPE] |317|  ; [ORIG 16-BIT INS]
     682 00000098 9101              STR       A2, [SP, #4]          ; [DPU_3_PIPE] |317|  ; [ORIG 16-BIT INS]
     683 0000009a 9000              STR       A1, [SP, #0]          ; [DPU_3_PIPE] |317|  ; [ORIG 16-BIT INS]
     684                            .dwpsn  file "H:/EECS_690/TI_ARM_Tiva_Projects_EECS_690_Sp16/Source/timers.c",line 318,column 
     685 0000009c 2000              MOVS      A1, #0                ; [DPU_3_PIPE] |318|  ; [ORIG 16-BIT INS]
     686 0000009e 9004              STR       A1, [SP, #16]         ; [DPU_3_PIPE] |318|  ; [ORIG 16-BIT INS]
     687                            .dwpsn  file "H:/EECS_690/TI_ARM_Tiva_Projects_EECS_690_Sp16/Source/timers.c",line 325,column 
     688 000000a0 4871              LDR       A1, $C$CON1           ; [DPU_3_PIPE] |325|  ; [ORIG 16-BIT INS]
     689 000000a2 6800              LDR       A1, [A1, #0]          ; [DPU_3_PIPE] |325|  ; [ORIG 16-BIT INS]
     690 000000a4 2800              CMP       A1, #0                ; [DPU_3_PIPE] |325|  ; [ORIG 16-BIT INS]
     691 000000a6 D026              BEQ       ||$C$L6||             ; [DPU_3_PIPE] |325|  ; [ORIG 16-BIT INS]
     692                            ; BRANCHCC OCCURS {||$C$L6||}    ; [] |325| 
     693                    ;* --------------------------------------------------------------------------*
     694                            .dwpsn  file "H:/EECS_690/TI_ARM_Tiva_Projects_EECS_690_Sp16/Source/timers.c",line 328,column 
     695 000000a8 9801              LDR       A1, [SP, #4]          ; [DPU_3_PIPE] |328|  ; [ORIG 16-BIT INS]
     696 000000aa 9005              STR       A1, [SP, #20]         ; [DPU_3_PIPE] |328|  ; [ORIG 16-BIT INS]
     697                            .dwpsn  file "H:/EECS_690/TI_ARM_Tiva_Projects_EECS_690_Sp16/Source/timers.c",line 329,column 
     698 000000ac 9802              LDR       A1, [SP, #8]          ; [DPU_3_PIPE] |329|  ; [ORIG 16-BIT INS]
     699 000000ae 9006              STR       A1, [SP, #24]         ; [DPU_3_PIPE] |329|  ; [ORIG 16-BIT INS]
     700                            .dwpsn  file "H:/EECS_690/TI_ARM_Tiva_Projects_EECS_690_Sp16/Source/timers.c",line 330,column 
     701 000000b0 9800              LDR       A1, [SP, #0]          ; [DPU_3_PIPE] |330|  ; [ORIG 16-BIT INS]
     702 000000b2 9007              STR       A1, [SP, #28]         ; [DPU_3_PIPE] |330|  ; [ORIG 16-BIT INS]
     703                            .dwpsn  file "H:/EECS_690/TI_ARM_Tiva_Projects_EECS_690_Sp16/Source/timers.c",line 332,column 
     704 000000b4 9801              LDR       A1, [SP, #4]          ; [DPU_3_PIPE] |332|  ; [ORIG 16-BIT INS]
     705 000000b6 2806              CMP       A1, #6                ; [DPU_3_PIPE] |332|  ; [ORIG 16-BIT INS]
     706 000000b8 DA15              BGE       ||$C$L5||             ; [DPU_3_PIPE] |332|  ; [ORIG 16-BIT INS]
     707                            ; BRANCHCC OCCURS {||$C$L5||}    ; [] |332| 
     708                    ;* --------------------------------------------------------------------------*
     709                            .dwpsn  file "H:/EECS_690/TI_ARM_Tiva_Projects_EECS_690_Sp16/Source/timers.c",line 334,column 
     710                    $C$DW$92        .dwtag  DW_TAG_TI_branch
     711                            .dwattr $C$DW$92, DW_AT_low_pc(0x00)
     712                            .dwattr $C$DW$92, DW_AT_name("xTaskGetSchedulerState")
     713                            .dwattr $C$DW$92, DW_AT_TI_call
     714 000000ba FFFEF7FF!         BL        xTaskGetSchedulerState ; [DPU_3_PIPE] |334|  ; [KEEP 32-BIT INS]
     715                            ; CALL OCCURS {xTaskGetSchedulerState }  ; [] |334| 
TI ARM Assembler PC v5.2.2 Thu Mar 10 16:27:06 2016

Tools Copyright (c) 1996-2015 Texas Instruments Incorporated
timers.asm                                                           PAGE   14

     716 000000be 2802              CMP       A1, #2                ; [DPU_3_PIPE] |334|  ; [ORIG 16-BIT INS]
     717 000000c0 D108              BNE       ||$C$L4||             ; [DPU_3_PIPE] |334|  ; [ORIG 16-BIT INS]
     718                            ; BRANCHCC OCCURS {||$C$L4||}    ; [] |334| 
     719                    ;* --------------------------------------------------------------------------*
     720                            .dwpsn  file "H:/EECS_690/TI_ARM_Tiva_Projects_EECS_690_Sp16/Source/timers.c",line 336,column 
     721 000000c2 4869              LDR       A1, $C$CON1           ; [DPU_3_PIPE] |336|  ; [ORIG 16-BIT INS]
     722 000000c4 9A0A              LDR       A3, [SP, #40]         ; [DPU_3_PIPE] |336|  ; [ORIG 16-BIT INS]
     723 000000c6 6800              LDR       A1, [A1, #0]          ; [DPU_3_PIPE] |336|  ; [ORIG 16-BIT INS]
     724 000000c8 A905              ADD       A2, SP, #20           ; [DPU_3_PIPE] |336|  ; [ORIG 16-BIT INS]
     725 000000ca 2300              MOVS      A4, #0                ; [DPU_3_PIPE] |336|  ; [ORIG 16-BIT INS]
     726                    $C$DW$93        .dwtag  DW_TAG_TI_branch
     727                            .dwattr $C$DW$93, DW_AT_low_pc(0x00)
     728                            .dwattr $C$DW$93, DW_AT_name("xQueueGenericSend")
     729                            .dwattr $C$DW$93, DW_AT_TI_call
     730 000000cc FFFEF7FF!         BL        xQueueGenericSend     ; [DPU_3_PIPE] |336|  ; [KEEP 32-BIT INS]
     731                            ; CALL OCCURS {xQueueGenericSend }  ; [] |336| 
     732 000000d0 9004              STR       A1, [SP, #16]         ; [DPU_3_PIPE] |336|  ; [ORIG 16-BIT INS]
     733                            .dwpsn  file "H:/EECS_690/TI_ARM_Tiva_Projects_EECS_690_Sp16/Source/timers.c",line 337,column 
     734 000000d2 E010              B         ||$C$L6||             ; [DPU_3_PIPE] |337|  ; [ORIG 16-BIT INS]
     735                            ; BRANCH OCCURS {||$C$L6||}      ; [] |337| 
     736                    ;* --------------------------------------------------------------------------*
     737 000000d4           ||$C$L4||:    
     738                            .dwpsn  file "H:/EECS_690/TI_ARM_Tiva_Projects_EECS_690_Sp16/Source/timers.c",line 340,column 
     739 000000d4 4864              LDR       A1, $C$CON1           ; [DPU_3_PIPE] |340|  ; [ORIG 16-BIT INS]
     740 000000d6 6800              LDR       A1, [A1, #0]          ; [DPU_3_PIPE] |340|  ; [ORIG 16-BIT INS]
     741 000000d8 A905              ADD       A2, SP, #20           ; [DPU_3_PIPE] |340|  ; [ORIG 16-BIT INS]
     742 000000da 2200              MOVS      A3, #0                ; [DPU_3_PIPE] |340|  ; [ORIG 16-BIT INS]
     743 000000dc 2300              MOVS      A4, #0                ; [DPU_3_PIPE] |340|  ; [ORIG 16-BIT INS]
     744                    $C$DW$94        .dwtag  DW_TAG_TI_branch
     745                            .dwattr $C$DW$94, DW_AT_low_pc(0x00)
     746                            .dwattr $C$DW$94, DW_AT_name("xQueueGenericSend")
     747                            .dwattr $C$DW$94, DW_AT_TI_call
     748 000000de FFFEF7FF!         BL        xQueueGenericSend     ; [DPU_3_PIPE] |340|  ; [KEEP 32-BIT INS]
     749                            ; CALL OCCURS {xQueueGenericSend }  ; [] |340| 
     750 000000e2 9004              STR       A1, [SP, #16]         ; [DPU_3_PIPE] |340|  ; [ORIG 16-BIT INS]
     751                            .dwpsn  file "H:/EECS_690/TI_ARM_Tiva_Projects_EECS_690_Sp16/Source/timers.c",line 342,column 
     752 000000e4 E007              B         ||$C$L6||             ; [DPU_3_PIPE] |342|  ; [ORIG 16-BIT INS]
     753                            ; BRANCH OCCURS {||$C$L6||}      ; [] |342| 
     754                    ;* --------------------------------------------------------------------------*
     755 000000e6           ||$C$L5||:    
     756                            .dwpsn  file "H:/EECS_690/TI_ARM_Tiva_Projects_EECS_690_Sp16/Source/timers.c",line 345,column 
     757 000000e6 4860              LDR       A1, $C$CON1           ; [DPU_3_PIPE] |345|  ; [ORIG 16-BIT INS]
     758 000000e8 9A03              LDR       A3, [SP, #12]         ; [DPU_3_PIPE] |345|  ; [ORIG 16-BIT INS]
     759 000000ea 6800              LDR       A1, [A1, #0]          ; [DPU_3_PIPE] |345|  ; [ORIG 16-BIT INS]
     760 000000ec A905              ADD       A2, SP, #20           ; [DPU_3_PIPE] |345|  ; [ORIG 16-BIT INS]
     761 000000ee 2300              MOVS      A4, #0                ; [DPU_3_PIPE] |345|  ; [ORIG 16-BIT INS]
     762                    $C$DW$95        .dwtag  DW_TAG_TI_branch
     763                            .dwattr $C$DW$95, DW_AT_low_pc(0x00)
     764                            .dwattr $C$DW$95, DW_AT_name("xQueueGenericSendFromISR")
     765                            .dwattr $C$DW$95, DW_AT_TI_call
     766 000000f0 FFFEF7FF!         BL        xQueueGenericSendFromISR ; [DPU_3_PIPE] |345|  ; [KEEP 32-BIT INS]
     767                            ; CALL OCCURS {xQueueGenericSendFromISR }  ; [] |345| 
     768 000000f4 9004              STR       A1, [SP, #16]         ; [DPU_3_PIPE] |345|  ; [ORIG 16-BIT INS]
     769                            .dwpsn  file "H:/EECS_690/TI_ARM_Tiva_Projects_EECS_690_Sp16/Source/timers.c",line 349,column 
     770                    ;* --------------------------------------------------------------------------*
TI ARM Assembler PC v5.2.2 Thu Mar 10 16:27:06 2016

Tools Copyright (c) 1996-2015 Texas Instruments Incorporated
timers.asm                                                           PAGE   15

     771 000000f6           ||$C$L6||:    
     772                            .dwpsn  file "H:/EECS_690/TI_ARM_Tiva_Projects_EECS_690_Sp16/Source/timers.c",line 355,column 
     773 000000f6 9804              LDR       A1, [SP, #16]         ; [DPU_3_PIPE] |355|  ; [ORIG 16-BIT INS]
     774                            .dwpsn  file "H:/EECS_690/TI_ARM_Tiva_Projects_EECS_690_Sp16/Source/timers.c",line 356,column 
     775 000000f8 B009              ADD       SP, SP, #36           ; [DPU_3_PIPE]  ; [ORIG 16-BIT INS]
     776                            .dwcfi  cfa_offset, 4
     777                    $C$DW$96        .dwtag  DW_TAG_TI_branch
     778                            .dwattr $C$DW$96, DW_AT_low_pc(0x00)
     779                            .dwattr $C$DW$96, DW_AT_TI_return
     780 000000fa BD00              POP       {PC}                  ; [DPU_3_PIPE]  ; [ORIG 16-BIT INS]
     781                            .dwcfi  cfa_offset, 0
     782                            ; BRANCH OCCURS                  ; [] 
     783                            .dwattr $C$DW$80, DW_AT_TI_end_file("H:/EECS_690/TI_ARM_Tiva_Projects_EECS_690_Sp16/Source/tim
     784                            .dwattr $C$DW$80, DW_AT_TI_end_line(0x164)
     785                            .dwattr $C$DW$80, DW_AT_TI_end_column(0x01)
     786                            .dwendentry
     787                            .dwendtag $C$DW$80
     788                    
     789 000000fc                   .sect   ".text"
     790                            .clink
     791                            .thumbfunc pcTimerGetTimerName
     792 000000fc                   .thumb
     793                            .global pcTimerGetTimerName
     794                    
     795                    $C$DW$97        .dwtag  DW_TAG_subprogram, DW_AT_name("pcTimerGetTimerName")
     796                            .dwattr $C$DW$97, DW_AT_low_pc(pcTimerGetTimerName)
     797                            .dwattr $C$DW$97, DW_AT_high_pc(0x00)
     798                            .dwattr $C$DW$97, DW_AT_TI_symbol_name("pcTimerGetTimerName")
     799                            .dwattr $C$DW$97, DW_AT_external
     800                            .dwattr $C$DW$97, DW_AT_type(*$C$DW$T$36)
     801                            .dwattr $C$DW$97, DW_AT_TI_begin_file("H:/EECS_690/TI_ARM_Tiva_Projects_EECS_690_Sp16/Source/t
     802                            .dwattr $C$DW$97, DW_AT_TI_begin_line(0x174)
     803                            .dwattr $C$DW$97, DW_AT_TI_begin_column(0x0e)
     804                            .dwattr $C$DW$97, DW_AT_decl_file("H:/EECS_690/TI_ARM_Tiva_Projects_EECS_690_Sp16/Source/timer
     805                            .dwattr $C$DW$97, DW_AT_decl_line(0x174)
     806                            .dwattr $C$DW$97, DW_AT_decl_column(0x0e)
     807                            .dwattr $C$DW$97, DW_AT_TI_max_frame_size(0x08)
     808                            .dwpsn  file "H:/EECS_690/TI_ARM_Tiva_Projects_EECS_690_Sp16/Source/timers.c",line 373,column 
     809                    
     810                            .dwfde $C$DW$CIE, pcTimerGetTimerName
     811                    $C$DW$98        .dwtag  DW_TAG_formal_parameter, DW_AT_name("xTimer")
     812                            .dwattr $C$DW$98, DW_AT_TI_symbol_name("xTimer")
     813                            .dwattr $C$DW$98, DW_AT_type(*$C$DW$T$40)
     814                            .dwattr $C$DW$98, DW_AT_location[DW_OP_reg0]
     815                    
     816                    ;*****************************************************************************
     817                    ;* FUNCTION NAME: pcTimerGetTimerName                                        *
     818                    ;*                                                                           *
     819                    ;*   Regs Modified     : A1,SP                                               *
     820                    ;*   Regs Used         : A1,SP,LR                                            *
     821                    ;*   Local Frame Size  : 0 Args + 8 Auto + 0 Save = 8 byte                   *
     822                    ;*****************************************************************************
     823 000000fc           pcTimerGetTimerName:
     824                    ;* --------------------------------------------------------------------------*
     825                            .dwcfi  cfa_offset, 0
TI ARM Assembler PC v5.2.2 Thu Mar 10 16:27:06 2016

Tools Copyright (c) 1996-2015 Texas Instruments Incorporated
timers.asm                                                           PAGE   16

     826 000000fc 0D08F1AD          SUB       SP, SP, #8            ; [DPU_3_PIPE]  ; [KEEP 32-BIT INS]
     827                            .dwcfi  cfa_offset, 8
     828                    $C$DW$99        .dwtag  DW_TAG_variable, DW_AT_name("xTimer")
     829                            .dwattr $C$DW$99, DW_AT_TI_symbol_name("xTimer")
     830                            .dwattr $C$DW$99, DW_AT_type(*$C$DW$T$40)
     831                            .dwattr $C$DW$99, DW_AT_location[DW_OP_breg13 0]
     832                    $C$DW$100       .dwtag  DW_TAG_variable, DW_AT_name("pxTimer")
     833                            .dwattr $C$DW$100, DW_AT_TI_symbol_name("pxTimer")
     834                            .dwattr $C$DW$100, DW_AT_type(*$C$DW$T$47)
     835                            .dwattr $C$DW$100, DW_AT_location[DW_OP_breg13 4]
     836 00000100 9000              STR       A1, [SP, #0]          ; [DPU_3_PIPE] |373|  ; [ORIG 16-BIT INS]
     837                            .dwpsn  file "H:/EECS_690/TI_ARM_Tiva_Projects_EECS_690_Sp16/Source/timers.c",line 374,column 
     838 00000102 9800              LDR       A1, [SP, #0]          ; [DPU_3_PIPE] |374|  ; [ORIG 16-BIT INS]
     839 00000104 9001              STR       A1, [SP, #4]          ; [DPU_3_PIPE] |374|  ; [ORIG 16-BIT INS]
     840                            .dwpsn  file "H:/EECS_690/TI_ARM_Tiva_Projects_EECS_690_Sp16/Source/timers.c",line 377,column 
     841 00000106 9801              LDR       A1, [SP, #4]          ; [DPU_3_PIPE] |377|  ; [ORIG 16-BIT INS]
     842 00000108 6800              LDR       A1, [A1, #0]          ; [DPU_3_PIPE] |377|  ; [ORIG 16-BIT INS]
     843                            .dwpsn  file "H:/EECS_690/TI_ARM_Tiva_Projects_EECS_690_Sp16/Source/timers.c",line 378,column 
     844 0000010a B002              ADD       SP, SP, #8            ; [DPU_3_PIPE]  ; [ORIG 16-BIT INS]
     845                            .dwcfi  cfa_offset, 0
     846                    $C$DW$101       .dwtag  DW_TAG_TI_branch
     847                            .dwattr $C$DW$101, DW_AT_low_pc(0x00)
     848                            .dwattr $C$DW$101, DW_AT_TI_return
     849 0000010c 4770              BX        LR                    ; [DPU_3_PIPE]  ; [ORIG 16-BIT INS]
     850                            ; BRANCH OCCURS                  ; [] 
     851                            .dwattr $C$DW$97, DW_AT_TI_end_file("H:/EECS_690/TI_ARM_Tiva_Projects_EECS_690_Sp16/Source/tim
     852                            .dwattr $C$DW$97, DW_AT_TI_end_line(0x17a)
     853                            .dwattr $C$DW$97, DW_AT_TI_end_column(0x01)
     854                            .dwendentry
     855                            .dwendtag $C$DW$97
     856                    
     857 0000010e                   .sect   ".text"
     858                            .clink
     859                            .thumbfunc prvProcessExpiredTimer
     860 0000010e                   .thumb
     861                    
     862                    $C$DW$102       .dwtag  DW_TAG_subprogram, DW_AT_name("prvProcessExpiredTimer")
     863                            .dwattr $C$DW$102, DW_AT_low_pc(prvProcessExpiredTimer)
     864                            .dwattr $C$DW$102, DW_AT_high_pc(0x00)
     865                            .dwattr $C$DW$102, DW_AT_TI_symbol_name("prvProcessExpiredTimer")
     866                            .dwattr $C$DW$102, DW_AT_TI_begin_file("H:/EECS_690/TI_ARM_Tiva_Projects_EECS_690_Sp16/Source/
     867                            .dwattr $C$DW$102, DW_AT_TI_begin_line(0x17d)
     868                            .dwattr $C$DW$102, DW_AT_TI_begin_column(0x0d)
     869                            .dwattr $C$DW$102, DW_AT_decl_file("H:/EECS_690/TI_ARM_Tiva_Projects_EECS_690_Sp16/Source/time
     870                            .dwattr $C$DW$102, DW_AT_decl_line(0x17d)
     871                            .dwattr $C$DW$102, DW_AT_decl_column(0x0d)
     872                            .dwattr $C$DW$102, DW_AT_TI_max_frame_size(0x18)
     873                            .dwpsn  file "H:/EECS_690/TI_ARM_Tiva_Projects_EECS_690_Sp16/Source/timers.c",line 382,column 
     874                    
     875                            .dwfde $C$DW$CIE, prvProcessExpiredTimer
     876                    $C$DW$103       .dwtag  DW_TAG_formal_parameter, DW_AT_name("xNextExpireTime")
     877                            .dwattr $C$DW$103, DW_AT_TI_symbol_name("xNextExpireTime")
     878                            .dwattr $C$DW$103, DW_AT_type(*$C$DW$T$92)
     879                            .dwattr $C$DW$103, DW_AT_location[DW_OP_reg0]
     880                    $C$DW$104       .dwtag  DW_TAG_formal_parameter, DW_AT_name("xTimeNow")
TI ARM Assembler PC v5.2.2 Thu Mar 10 16:27:06 2016

Tools Copyright (c) 1996-2015 Texas Instruments Incorporated
timers.asm                                                           PAGE   17

     881                            .dwattr $C$DW$104, DW_AT_TI_symbol_name("xTimeNow")
     882                            .dwattr $C$DW$104, DW_AT_type(*$C$DW$T$92)
     883                            .dwattr $C$DW$104, DW_AT_location[DW_OP_reg1]
     884                    
     885                    ;*****************************************************************************
     886                    ;* FUNCTION NAME: prvProcessExpiredTimer                                     *
     887                    ;*                                                                           *
     888                    ;*   Regs Modified     : A1,A2,A3,A4,V9,SP,LR,SR,D0,D0_hi,D1,D1_hi,D2,D2_hi, *
     889                    ;*                           D3,D3_hi,D4,D4_hi,D5,D5_hi,D6,D6_hi,D7,D7_hi,   *
     890                    ;*                           FPEXC,FPSCR                                     *
     891                    ;*   Regs Used         : A1,A2,A3,A4,V9,SP,LR,SR,D0,D0_hi,D1,D1_hi,D2,D2_hi, *
     892                    ;*                           D3,D3_hi,D4,D4_hi,D5,D5_hi,D6,D6_hi,D7,D7_hi,   *
     893                    ;*                           FPEXC,FPSCR                                     *
     894                    ;*   Local Frame Size  : 4 Args + 16 Auto + 4 Save = 24 byte                 *
     895                    ;*****************************************************************************
     896 0000010e           prvProcessExpiredTimer:
     897                    ;* --------------------------------------------------------------------------*
     898                            .dwcfi  cfa_offset, 0
     899 0000010e B500              PUSH      {LR}                  ; [DPU_3_PIPE]  ; [ORIG 16-BIT INS]
     900                            .dwcfi  cfa_offset, 4
     901                            .dwcfi  save_reg_to_mem, 14, -4
     902 00000110 0D14F1AD          SUB       SP, SP, #20           ; [DPU_3_PIPE]  ; [KEEP 32-BIT INS]
     903                            .dwcfi  cfa_offset, 24
     904                    $C$DW$105       .dwtag  DW_TAG_variable, DW_AT_name("xNextExpireTime")
     905                            .dwattr $C$DW$105, DW_AT_TI_symbol_name("xNextExpireTime")
     906                            .dwattr $C$DW$105, DW_AT_type(*$C$DW$T$92)
     907                            .dwattr $C$DW$105, DW_AT_location[DW_OP_breg13 4]
     908                    $C$DW$106       .dwtag  DW_TAG_variable, DW_AT_name("xTimeNow")
     909                            .dwattr $C$DW$106, DW_AT_TI_symbol_name("xTimeNow")
     910                            .dwattr $C$DW$106, DW_AT_type(*$C$DW$T$92)
     911                            .dwattr $C$DW$106, DW_AT_location[DW_OP_breg13 8]
     912                    $C$DW$107       .dwtag  DW_TAG_variable, DW_AT_name("xResult")
     913                            .dwattr $C$DW$107, DW_AT_TI_symbol_name("xResult")
     914                            .dwattr $C$DW$107, DW_AT_type(*$C$DW$T$50)
     915                            .dwattr $C$DW$107, DW_AT_location[DW_OP_breg13 12]
     916                    $C$DW$108       .dwtag  DW_TAG_variable, DW_AT_name("pxTimer")
     917                            .dwattr $C$DW$108, DW_AT_TI_symbol_name("pxTimer")
     918                            .dwattr $C$DW$108, DW_AT_type(*$C$DW$T$158)
     919                            .dwattr $C$DW$108, DW_AT_location[DW_OP_breg13 16]
     920 00000114 9102              STR       A2, [SP, #8]          ; [DPU_3_PIPE] |382|  ; [ORIG 16-BIT INS]
     921 00000116 9001              STR       A1, [SP, #4]          ; [DPU_3_PIPE] |382|  ; [ORIG 16-BIT INS]
     922                            .dwpsn  file "H:/EECS_690/TI_ARM_Tiva_Projects_EECS_690_Sp16/Source/timers.c",line 384,column 
     923 00000118 4871              LDR       A1, $C$CON3           ; [DPU_3_PIPE] |384|  ; [ORIG 16-BIT INS]
     924 0000011a 6800              LDR       A1, [A1, #0]          ; [DPU_3_PIPE] |384|  ; [ORIG 16-BIT INS]
     925 0000011c 68C0              LDR       A1, [A1, #12]         ; [DPU_3_PIPE] |384|  ; [ORIG 16-BIT INS]
     926 0000011e 68C0              LDR       A1, [A1, #12]         ; [DPU_3_PIPE] |384|  ; [ORIG 16-BIT INS]
     927 00000120 9004              STR       A1, [SP, #16]         ; [DPU_3_PIPE] |384|  ; [ORIG 16-BIT INS]
     928                            .dwpsn  file "H:/EECS_690/TI_ARM_Tiva_Projects_EECS_690_Sp16/Source/timers.c",line 388,column 
     929 00000122 9804              LDR       A1, [SP, #16]         ; [DPU_3_PIPE] |388|  ; [ORIG 16-BIT INS]
     930 00000124 1D00              ADDS      A1, A1, #4            ; [DPU_3_PIPE] |388|  ; [ORIG 16-BIT INS]
     931                    $C$DW$109       .dwtag  DW_TAG_TI_branch
     932                            .dwattr $C$DW$109, DW_AT_low_pc(0x00)
     933                            .dwattr $C$DW$109, DW_AT_name("uxListRemove")
     934                            .dwattr $C$DW$109, DW_AT_TI_call
     935 00000126 FFFEF7FF!         BL        uxListRemove          ; [DPU_3_PIPE] |388|  ; [KEEP 32-BIT INS]
TI ARM Assembler PC v5.2.2 Thu Mar 10 16:27:06 2016

Tools Copyright (c) 1996-2015 Texas Instruments Incorporated
timers.asm                                                           PAGE   18

     936                            ; CALL OCCURS {uxListRemove }    ; [] |388| 
     937                            .dwpsn  file "H:/EECS_690/TI_ARM_Tiva_Projects_EECS_690_Sp16/Source/timers.c",line 393,column 
     938 0000012a 9804              LDR       A1, [SP, #16]         ; [DPU_3_PIPE] |393|  ; [ORIG 16-BIT INS]
     939 0000012c 69C0              LDR       A1, [A1, #28]         ; [DPU_3_PIPE] |393|  ; [ORIG 16-BIT INS]
     940 0000012e 2801              CMP       A1, #1                ; [DPU_3_PIPE] |393|  ; [ORIG 16-BIT INS]
     941 00000130 D114              BNE       ||$C$L7||             ; [DPU_3_PIPE] |393|  ; [ORIG 16-BIT INS]
     942                            ; BRANCHCC OCCURS {||$C$L7||}    ; [] |393| 
     943                    ;* --------------------------------------------------------------------------*
     944                            .dwpsn  file "H:/EECS_690/TI_ARM_Tiva_Projects_EECS_690_Sp16/Source/timers.c",line 398,column 
     945 00000132 9904              LDR       A2, [SP, #16]         ; [DPU_3_PIPE] |398|  ; [ORIG 16-BIT INS]
     946 00000134 9801              LDR       A1, [SP, #4]          ; [DPU_3_PIPE] |398|  ; [ORIG 16-BIT INS]
     947 00000136 9A02              LDR       A3, [SP, #8]          ; [DPU_3_PIPE] |398|  ; [ORIG 16-BIT INS]
     948 00000138 9B01              LDR       A4, [SP, #4]          ; [DPU_3_PIPE] |398|  ; [ORIG 16-BIT INS]
     949 0000013a 6989              LDR       A2, [A2, #24]         ; [DPU_3_PIPE] |398|  ; [ORIG 16-BIT INS]
     950 0000013c 1809              ADDS      A2, A2, A1            ; [DPU_3_PIPE] |398|  ; [ORIG 16-BIT INS]
     951 0000013e 9804              LDR       A1, [SP, #16]         ; [DPU_3_PIPE] |398|  ; [ORIG 16-BIT INS]
     952                    $C$DW$110       .dwtag  DW_TAG_TI_branch
     953                            .dwattr $C$DW$110, DW_AT_low_pc(0x00)
     954                            .dwattr $C$DW$110, DW_AT_name("prvInsertTimerInActiveList")
     955                            .dwattr $C$DW$110, DW_AT_TI_call
     956 00000140 F896F000          BL        prvInsertTimerInActiveList ; [DPU_3_PIPE] |398|  ; [KEEP 32-BIT INS]
     957                            ; CALL OCCURS {prvInsertTimerInActiveList }  ; [] |398| 
     958 00000144 2801              CMP       A1, #1                ; [DPU_3_PIPE] |398|  ; [ORIG 16-BIT INS]
     959 00000146 D109              BNE       ||$C$L7||             ; [DPU_3_PIPE] |398|  ; [ORIG 16-BIT INS]
     960                            ; BRANCHCC OCCURS {||$C$L7||}    ; [] |398| 
     961                    ;* --------------------------------------------------------------------------*
     962                            .dwpsn  file "H:/EECS_690/TI_ARM_Tiva_Projects_EECS_690_Sp16/Source/timers.c",line 402,column 
     963 00000148 2000              MOVS      A1, #0                ; [DPU_3_PIPE] |402|  ; [ORIG 16-BIT INS]
     964 0000014a 9000              STR       A1, [SP, #0]          ; [DPU_3_PIPE] |402|  ; [ORIG 16-BIT INS]
     965 0000014c 9A01              LDR       A3, [SP, #4]          ; [DPU_3_PIPE] |402|  ; [ORIG 16-BIT INS]
     966 0000014e 9804              LDR       A1, [SP, #16]         ; [DPU_3_PIPE] |402|  ; [ORIG 16-BIT INS]
     967 00000150 2100              MOVS      A2, #0                ; [DPU_3_PIPE] |402|  ; [ORIG 16-BIT INS]
     968 00000152 2300              MOVS      A4, #0                ; [DPU_3_PIPE] |402|  ; [ORIG 16-BIT INS]
     969                    $C$DW$111       .dwtag  DW_TAG_TI_branch
     970                            .dwattr $C$DW$111, DW_AT_low_pc(0x00)
     971                            .dwattr $C$DW$111, DW_AT_name("xTimerGenericCommand")
     972                            .dwattr $C$DW$111, DW_AT_TI_call
     973 00000154 FF9BF7FF          BL        xTimerGenericCommand  ; [DPU_3_PIPE] |402|  ; [KEEP 32-BIT INS]
     974                            ; CALL OCCURS {xTimerGenericCommand }  ; [] |402| 
     975 00000158 9003              STR       A1, [SP, #12]         ; [DPU_3_PIPE] |402|  ; [ORIG 16-BIT INS]
     976                            .dwpsn  file "H:/EECS_690/TI_ARM_Tiva_Projects_EECS_690_Sp16/Source/timers.c",line 404,column 
     977                            .dwpsn  file "H:/EECS_690/TI_ARM_Tiva_Projects_EECS_690_Sp16/Source/timers.c",line 405,column 
     978 0000015a E7FF              B         ||$C$L7||             ; [DPU_3_PIPE] |405|  ; [ORIG 16-BIT INS]
     979                            ; BRANCH OCCURS {||$C$L7||}      ; [] |405| 
     980                    ;* --------------------------------------------------------------------------*
     981                    ;* --------------------------------------------------------------------------*
     982 0000015c           ||$C$L7||:    
     983                            .dwpsn  file "H:/EECS_690/TI_ARM_Tiva_Projects_EECS_690_Sp16/Source/timers.c",line 417,column 
     984 0000015c 9804              LDR       A1, [SP, #16]         ; [DPU_3_PIPE] |417|  ; [ORIG 16-BIT INS]
     985 0000015e 6A40              LDR       A1, [A1, #36]         ; [DPU_3_PIPE] |417|  ; [ORIG 16-BIT INS]
     986 00000160 4601              MOV       A2, A1                ; [DPU_3_PIPE] |417|  ; [ORIG 16-BIT INS]
     987 00000162 9804              LDR       A1, [SP, #16]         ; [DPU_3_PIPE] |417|  ; [ORIG 16-BIT INS]
     988                    $C$DW$112       .dwtag  DW_TAG_TI_branch
     989                            .dwattr $C$DW$112, DW_AT_low_pc(0x00)
     990                            .dwattr $C$DW$112, DW_AT_TI_call
TI ARM Assembler PC v5.2.2 Thu Mar 10 16:27:06 2016

Tools Copyright (c) 1996-2015 Texas Instruments Incorporated
timers.asm                                                           PAGE   19

     991                            .dwattr $C$DW$112, DW_AT_TI_indirect
     992 00000164 4788              BLX       A2                    ; [DPU_3_PIPE] |417|  ; [ORIG 16-BIT INS]
     993                            ; CALL OCCURS {}                 ; [] |417| 
     994                            .dwpsn  file "H:/EECS_690/TI_ARM_Tiva_Projects_EECS_690_Sp16/Source/timers.c",line 418,column 
     995 00000166 B005              ADD       SP, SP, #20           ; [DPU_3_PIPE]  ; [ORIG 16-BIT INS]
     996                            .dwcfi  cfa_offset, 4
     997                    $C$DW$113       .dwtag  DW_TAG_TI_branch
     998                            .dwattr $C$DW$113, DW_AT_low_pc(0x00)
     999                            .dwattr $C$DW$113, DW_AT_TI_return
    1000 00000168 BD00              POP       {PC}                  ; [DPU_3_PIPE]  ; [ORIG 16-BIT INS]
    1001                            .dwcfi  cfa_offset, 0
    1002                            ; BRANCH OCCURS                  ; [] 
    1003                            .dwattr $C$DW$102, DW_AT_TI_end_file("H:/EECS_690/TI_ARM_Tiva_Projects_EECS_690_Sp16/Source/ti
    1004                            .dwattr $C$DW$102, DW_AT_TI_end_line(0x1a2)
    1005                            .dwattr $C$DW$102, DW_AT_TI_end_column(0x01)
    1006                            .dwendentry
    1007                            .dwendtag $C$DW$102
    1008                    
    1009 0000016a                   .sect   ".text"
    1010                            .clink
    1011                            .thumbfunc prvTimerTask
    1012 0000016a                   .thumb
    1013                    
    1014                    $C$DW$114       .dwtag  DW_TAG_subprogram, DW_AT_name("prvTimerTask")
    1015                            .dwattr $C$DW$114, DW_AT_low_pc(prvTimerTask)
    1016                            .dwattr $C$DW$114, DW_AT_high_pc(0x00)
    1017                            .dwattr $C$DW$114, DW_AT_TI_symbol_name("prvTimerTask")
    1018                            .dwattr $C$DW$114, DW_AT_TI_begin_file("H:/EECS_690/TI_ARM_Tiva_Projects_EECS_690_Sp16/Source/
    1019                            .dwattr $C$DW$114, DW_AT_TI_begin_line(0x1a5)
    1020                            .dwattr $C$DW$114, DW_AT_TI_begin_column(0x0d)
    1021                            .dwattr $C$DW$114, DW_AT_decl_file("H:/EECS_690/TI_ARM_Tiva_Projects_EECS_690_Sp16/Source/time
    1022                            .dwattr $C$DW$114, DW_AT_decl_line(0x1a5)
    1023                            .dwattr $C$DW$114, DW_AT_decl_column(0x0d)
    1024                            .dwattr $C$DW$114, DW_AT_TI_max_frame_size(0x10)
    1025                            .dwpsn  file "H:/EECS_690/TI_ARM_Tiva_Projects_EECS_690_Sp16/Source/timers.c",line 422,column 
    1026                    
    1027                            .dwfde $C$DW$CIE, prvTimerTask
    1028                    $C$DW$115       .dwtag  DW_TAG_formal_parameter, DW_AT_name("pvParameters")
    1029                            .dwattr $C$DW$115, DW_AT_TI_symbol_name("pvParameters")
    1030                            .dwattr $C$DW$115, DW_AT_type(*$C$DW$T$3)
    1031                            .dwattr $C$DW$115, DW_AT_location[DW_OP_reg0]
    1032                    
    1033                    ;*****************************************************************************
    1034                    ;* FUNCTION NAME: prvTimerTask                                               *
    1035                    ;*                                                                           *
    1036                    ;*   Regs Modified     : A1,A2,A3,A4,V9,SP,LR,SR,D0,D0_hi,D1,D1_hi,D2,D2_hi, *
    1037                    ;*                           D3,D3_hi,D4,D4_hi,D5,D5_hi,D6,D6_hi,D7,D7_hi,   *
    1038                    ;*                           FPEXC,FPSCR                                     *
    1039                    ;*   Regs Used         : A1,A2,A3,A4,V9,SP,LR,SR,D0,D0_hi,D1,D1_hi,D2,D2_hi, *
    1040                    ;*                           D3,D3_hi,D4,D4_hi,D5,D5_hi,D6,D6_hi,D7,D7_hi,   *
    1041                    ;*                           FPEXC,FPSCR                                     *
    1042                    ;*   Local Frame Size  : 0 Args + 12 Auto + 4 Save = 16 byte                 *
    1043                    ;*****************************************************************************
    1044 0000016a           prvTimerTask:
    1045                    ;* --------------------------------------------------------------------------*
TI ARM Assembler PC v5.2.2 Thu Mar 10 16:27:06 2016

Tools Copyright (c) 1996-2015 Texas Instruments Incorporated
timers.asm                                                           PAGE   20

    1046                            .dwcfi  cfa_offset, 0
    1047 0000016a B50E              PUSH      {A2, A3, A4, LR}      ; [DPU_3_PIPE]  ; [ORIG 16-BIT INS]
    1048                            .dwcfi  cfa_offset, 16
    1049                            .dwcfi  save_reg_to_mem, 14, -4
    1050                            .dwcfi  save_reg_to_mem, 3, -8
    1051                            .dwcfi  save_reg_to_mem, 2, -12
    1052                            .dwcfi  save_reg_to_mem, 1, -16
    1053                    $C$DW$116       .dwtag  DW_TAG_variable, DW_AT_name("pvParameters")
    1054                            .dwattr $C$DW$116, DW_AT_TI_symbol_name("pvParameters")
    1055                            .dwattr $C$DW$116, DW_AT_type(*$C$DW$T$3)
    1056                            .dwattr $C$DW$116, DW_AT_location[DW_OP_breg13 0]
    1057                    $C$DW$117       .dwtag  DW_TAG_variable, DW_AT_name("xNextExpireTime")
    1058                            .dwattr $C$DW$117, DW_AT_TI_symbol_name("xNextExpireTime")
    1059                            .dwattr $C$DW$117, DW_AT_type(*$C$DW$T$38)
    1060                            .dwattr $C$DW$117, DW_AT_location[DW_OP_breg13 4]
    1061                    $C$DW$118       .dwtag  DW_TAG_variable, DW_AT_name("xListWasEmpty")
    1062                            .dwattr $C$DW$118, DW_AT_TI_symbol_name("xListWasEmpty")
    1063                            .dwattr $C$DW$118, DW_AT_type(*$C$DW$T$50)
    1064                            .dwattr $C$DW$118, DW_AT_location[DW_OP_breg13 8]
    1065 0000016c 9000              STR       A1, [SP, #0]          ; [DPU_3_PIPE] |422|  ; [ORIG 16-BIT INS]
    1066                            .dwpsn  file "H:/EECS_690/TI_ARM_Tiva_Projects_EECS_690_Sp16/Source/timers.c",line 427,column 
    1067                    ;* --------------------------------------------------------------------------*
    1068                    ;*   BEGIN LOOP ||$C$L8||
    1069                    ;*
    1070                    ;*   Loop source line                : 429
    1071                    ;*   Loop closing brace source line  : 441
    1072                    ;*   Known Minimum Trip Count        : 1
    1073                    ;*   Known Maximum Trip Count        : 4294967295
    1074                    ;*   Known Max Trip Count Factor     : 1
    1075                    ;* --------------------------------------------------------------------------*
    1076 0000016e           ||$C$L8||:    
    1077                            .dwpsn  file "H:/EECS_690/TI_ARM_Tiva_Projects_EECS_690_Sp16/Source/timers.c",line 433,column 
    1078 0000016e A802              ADD       A1, SP, #8            ; [DPU_3_PIPE] |433|  ; [ORIG 16-BIT INS]
    1079                    $C$DW$119       .dwtag  DW_TAG_TI_branch
    1080                            .dwattr $C$DW$119, DW_AT_low_pc(0x00)
    1081                            .dwattr $C$DW$119, DW_AT_name("prvGetNextExpireTime")
    1082                            .dwattr $C$DW$119, DW_AT_TI_call
    1083 00000170 F844F000          BL        prvGetNextExpireTime  ; [DPU_3_PIPE] |433|  ; [KEEP 32-BIT INS]
    1084                            ; CALL OCCURS {prvGetNextExpireTime }  ; [] |433| 
    1085 00000174 9001              STR       A1, [SP, #4]          ; [DPU_3_PIPE] |433|  ; [ORIG 16-BIT INS]
    1086                            .dwpsn  file "H:/EECS_690/TI_ARM_Tiva_Projects_EECS_690_Sp16/Source/timers.c",line 437,column 
    1087 00000176 9902              LDR       A2, [SP, #8]          ; [DPU_3_PIPE] |437|  ; [ORIG 16-BIT INS]
    1088 00000178 9801              LDR       A1, [SP, #4]          ; [DPU_3_PIPE] |437|  ; [ORIG 16-BIT INS]
    1089                    $C$DW$120       .dwtag  DW_TAG_TI_branch
    1090                            .dwattr $C$DW$120, DW_AT_low_pc(0x00)
    1091                            .dwattr $C$DW$120, DW_AT_name("prvProcessTimerOrBlockTask")
    1092                            .dwattr $C$DW$120, DW_AT_TI_call
    1093 0000017a F803F000          BL        prvProcessTimerOrBlockTask ; [DPU_3_PIPE] |437|  ; [KEEP 32-BIT INS]
    1094                            ; CALL OCCURS {prvProcessTimerOrBlockTask }  ; [] |437| 
    1095                            .dwpsn  file "H:/EECS_690/TI_ARM_Tiva_Projects_EECS_690_Sp16/Source/timers.c",line 440,column 
    1096                    $C$DW$121       .dwtag  DW_TAG_TI_branch
    1097                            .dwattr $C$DW$121, DW_AT_low_pc(0x00)
    1098                            .dwattr $C$DW$121, DW_AT_name("prvProcessReceivedCommands")
    1099                            .dwattr $C$DW$121, DW_AT_TI_call
    1100 0000017e F8B1F000          BL        prvProcessReceivedCommands ; [DPU_3_PIPE] |440|  ; [KEEP 32-BIT INS]
TI ARM Assembler PC v5.2.2 Thu Mar 10 16:27:06 2016

Tools Copyright (c) 1996-2015 Texas Instruments Incorporated
timers.asm                                                           PAGE   21

    1101                            ; CALL OCCURS {prvProcessReceivedCommands }  ; [] |440| 
    1102                            .dwpsn  file "H:/EECS_690/TI_ARM_Tiva_Projects_EECS_690_Sp16/Source/timers.c",line 441,column 
    1103 00000182 E7F4              B         ||$C$L8||             ; [DPU_3_PIPE] |441|  ; [ORIG 16-BIT INS]
    1104                            ; BRANCH OCCURS {||$C$L8||}      ; [] |441| 
    1105                    ;* --------------------------------------------------------------------------*
    1106                            .dwattr $C$DW$114, DW_AT_TI_end_file("H:/EECS_690/TI_ARM_Tiva_Projects_EECS_690_Sp16/Source/ti
    1107                            .dwattr $C$DW$114, DW_AT_TI_end_line(0x1ba)
    1108                            .dwattr $C$DW$114, DW_AT_TI_end_column(0x01)
    1109                            .dwendentry
    1110                            .dwendtag $C$DW$114
    1111                    
    1112 00000184                   .sect   ".text"
    1113                            .clink
    1114                            .thumbfunc prvProcessTimerOrBlockTask
    1115 00000184                   .thumb
    1116                    
    1117                    $C$DW$122       .dwtag  DW_TAG_subprogram, DW_AT_name("prvProcessTimerOrBlockTask")
    1118                            .dwattr $C$DW$122, DW_AT_low_pc(prvProcessTimerOrBlockTask)
    1119                            .dwattr $C$DW$122, DW_AT_high_pc(0x00)
    1120                            .dwattr $C$DW$122, DW_AT_TI_symbol_name("prvProcessTimerOrBlockTask")
    1121                            .dwattr $C$DW$122, DW_AT_TI_begin_file("H:/EECS_690/TI_ARM_Tiva_Projects_EECS_690_Sp16/Source/
    1122                            .dwattr $C$DW$122, DW_AT_TI_begin_line(0x1bd)
    1123                            .dwattr $C$DW$122, DW_AT_TI_begin_column(0x0d)
    1124                            .dwattr $C$DW$122, DW_AT_decl_file("H:/EECS_690/TI_ARM_Tiva_Projects_EECS_690_Sp16/Source/time
    1125                            .dwattr $C$DW$122, DW_AT_decl_line(0x1bd)
    1126                            .dwattr $C$DW$122, DW_AT_decl_column(0x0d)
    1127                            .dwattr $C$DW$122, DW_AT_TI_max_frame_size(0x18)
    1128                            .dwpsn  file "H:/EECS_690/TI_ARM_Tiva_Projects_EECS_690_Sp16/Source/timers.c",line 446,column 
    1129                    
    1130                            .dwfde $C$DW$CIE, prvProcessTimerOrBlockTask
    1131                    $C$DW$123       .dwtag  DW_TAG_formal_parameter, DW_AT_name("xNextExpireTime")
    1132                            .dwattr $C$DW$123, DW_AT_TI_symbol_name("xNextExpireTime")
    1133                            .dwattr $C$DW$123, DW_AT_type(*$C$DW$T$92)
    1134                            .dwattr $C$DW$123, DW_AT_location[DW_OP_reg0]
    1135                    $C$DW$124       .dwtag  DW_TAG_formal_parameter, DW_AT_name("xListWasEmpty")
    1136                            .dwattr $C$DW$124, DW_AT_TI_symbol_name("xListWasEmpty")
    1137                            .dwattr $C$DW$124, DW_AT_type(*$C$DW$T$50)
    1138                            .dwattr $C$DW$124, DW_AT_location[DW_OP_reg1]
    1139                    
    1140                    ;*****************************************************************************
    1141                    ;* FUNCTION NAME: prvProcessTimerOrBlockTask                                 *
    1142                    ;*                                                                           *
    1143                    ;*   Regs Modified     : A1,A2,A3,A4,V9,SP,LR,SR,D0,D0_hi,D1,D1_hi,D2,D2_hi, *
    1144                    ;*                           D3,D3_hi,D4,D4_hi,D5,D5_hi,D6,D6_hi,D7,D7_hi,   *
    1145                    ;*                           FPEXC,FPSCR                                     *
    1146                    ;*   Regs Used         : A1,A2,A3,A4,V9,SP,LR,SR,D0,D0_hi,D1,D1_hi,D2,D2_hi, *
    1147                    ;*                           D3,D3_hi,D4,D4_hi,D5,D5_hi,D6,D6_hi,D7,D7_hi,   *
    1148                    ;*                           FPEXC,FPSCR                                     *
    1149                    ;*   Local Frame Size  : 0 Args + 16 Auto + 4 Save = 20 byte                 *
    1150                    ;*****************************************************************************
    1151 00000184           prvProcessTimerOrBlockTask:
    1152                    ;* --------------------------------------------------------------------------*
    1153                            .dwcfi  cfa_offset, 0
    1154 00000184 B500              PUSH      {LR}                  ; [DPU_3_PIPE]  ; [ORIG 16-BIT INS]
    1155                            .dwcfi  cfa_offset, 4
TI ARM Assembler PC v5.2.2 Thu Mar 10 16:27:06 2016

Tools Copyright (c) 1996-2015 Texas Instruments Incorporated
timers.asm                                                           PAGE   22

    1156                            .dwcfi  save_reg_to_mem, 14, -4
    1157 00000186 0D14F1AD          SUB       SP, SP, #20           ; [DPU_3_PIPE]  ; [KEEP 32-BIT INS]
    1158                            .dwcfi  cfa_offset, 24
    1159                    $C$DW$125       .dwtag  DW_TAG_variable, DW_AT_name("xNextExpireTime")
    1160                            .dwattr $C$DW$125, DW_AT_TI_symbol_name("xNextExpireTime")
    1161                            .dwattr $C$DW$125, DW_AT_type(*$C$DW$T$92)
    1162                            .dwattr $C$DW$125, DW_AT_location[DW_OP_breg13 0]
    1163                    $C$DW$126       .dwtag  DW_TAG_variable, DW_AT_name("xListWasEmpty")
    1164                            .dwattr $C$DW$126, DW_AT_TI_symbol_name("xListWasEmpty")
    1165                            .dwattr $C$DW$126, DW_AT_type(*$C$DW$T$50)
    1166                            .dwattr $C$DW$126, DW_AT_location[DW_OP_breg13 4]
    1167                    $C$DW$127       .dwtag  DW_TAG_variable, DW_AT_name("xTimeNow")
    1168                            .dwattr $C$DW$127, DW_AT_TI_symbol_name("xTimeNow")
    1169                            .dwattr $C$DW$127, DW_AT_type(*$C$DW$T$38)
    1170                            .dwattr $C$DW$127, DW_AT_location[DW_OP_breg13 8]
    1171                    $C$DW$128       .dwtag  DW_TAG_variable, DW_AT_name("xTimerListsWereSwitched")
    1172                            .dwattr $C$DW$128, DW_AT_TI_symbol_name("xTimerListsWereSwitched")
    1173                            .dwattr $C$DW$128, DW_AT_type(*$C$DW$T$50)
    1174                            .dwattr $C$DW$128, DW_AT_location[DW_OP_breg13 12]
    1175 0000018a 9101              STR       A2, [SP, #4]          ; [DPU_3_PIPE] |446|  ; [ORIG 16-BIT INS]
    1176 0000018c 9000              STR       A1, [SP, #0]          ; [DPU_3_PIPE] |446|  ; [ORIG 16-BIT INS]
    1177                            .dwpsn  file "H:/EECS_690/TI_ARM_Tiva_Projects_EECS_690_Sp16/Source/timers.c",line 450,column 
    1178                    $C$DW$129       .dwtag  DW_TAG_TI_branch
    1179                            .dwattr $C$DW$129, DW_AT_low_pc(0x00)
    1180                            .dwattr $C$DW$129, DW_AT_name("vTaskSuspendAll")
    1181                            .dwattr $C$DW$129, DW_AT_TI_call
    1182 0000018e FFFEF7FF!         BL        vTaskSuspendAll       ; [DPU_3_PIPE] |450|  ; [KEEP 32-BIT INS]
    1183                            ; CALL OCCURS {vTaskSuspendAll }  ; [] |450| 
    1184                            .dwpsn  file "H:/EECS_690/TI_ARM_Tiva_Projects_EECS_690_Sp16/Source/timers.c",line 457,column 
    1185 00000192 A803              ADD       A1, SP, #12           ; [DPU_3_PIPE] |457|  ; [ORIG 16-BIT INS]
    1186                    $C$DW$130       .dwtag  DW_TAG_TI_branch
    1187                            .dwattr $C$DW$130, DW_AT_low_pc(0x00)
    1188                            .dwattr $C$DW$130, DW_AT_name("prvSampleTimeNow")
    1189                            .dwattr $C$DW$130, DW_AT_TI_call
    1190 00000194 F84BF000          BL        prvSampleTimeNow      ; [DPU_3_PIPE] |457|  ; [KEEP 32-BIT INS]
    1191                            ; CALL OCCURS {prvSampleTimeNow }  ; [] |457| 
    1192 00000198 9002              STR       A1, [SP, #8]          ; [DPU_3_PIPE] |457|  ; [ORIG 16-BIT INS]
    1193                            .dwpsn  file "H:/EECS_690/TI_ARM_Tiva_Projects_EECS_690_Sp16/Source/timers.c",line 458,column 
    1194 0000019a 9803              LDR       A1, [SP, #12]         ; [DPU_3_PIPE] |458|  ; [ORIG 16-BIT INS]
    1195 0000019c 2800              CMP       A1, #0                ; [DPU_3_PIPE] |458|  ; [ORIG 16-BIT INS]
    1196 0000019e D129              BNE       ||$C$L12||            ; [DPU_3_PIPE] |458|  ; [ORIG 16-BIT INS]
    1197                            ; BRANCHCC OCCURS {||$C$L12||}   ; [] |458| 
    1198                    ;* --------------------------------------------------------------------------*
    1199                            .dwpsn  file "H:/EECS_690/TI_ARM_Tiva_Projects_EECS_690_Sp16/Source/timers.c",line 461,column 
    1200 000001a0 9801              LDR       A1, [SP, #4]          ; [DPU_3_PIPE] |461|  ; [ORIG 16-BIT INS]
    1201 000001a2 B950              CBNZ      A1, ||$C$L9||         ; []  ; [ORIG 16-BIT INS]
    1202                            ; BRANCHCC OCCURS {||$C$L9||}    ; [] |461| 
    1203                    ;* --------------------------------------------------------------------------*
    1204 000001a4 9802              LDR       A1, [SP, #8]          ; [DPU_3_PIPE] |461|  ; [ORIG 16-BIT INS]
    1205 000001a6 9900              LDR       A2, [SP, #0]          ; [DPU_3_PIPE] |461|  ; [ORIG 16-BIT INS]
    1206 000001a8 4288              CMP       A1, A2                ; [DPU_3_PIPE] |461|  ; [ORIG 16-BIT INS]
    1207 000001aa D306              BCC       ||$C$L9||             ; [DPU_3_PIPE] |461|  ; [ORIG 16-BIT INS]
    1208                            ; BRANCHCC OCCURS {||$C$L9||}    ; [] |461| 
    1209                    ;* --------------------------------------------------------------------------*
    1210                            .dwpsn  file "H:/EECS_690/TI_ARM_Tiva_Projects_EECS_690_Sp16/Source/timers.c",line 463,column 
TI ARM Assembler PC v5.2.2 Thu Mar 10 16:27:06 2016

Tools Copyright (c) 1996-2015 Texas Instruments Incorporated
timers.asm                                                           PAGE   23

    1211                    $C$DW$131       .dwtag  DW_TAG_TI_branch
    1212                            .dwattr $C$DW$131, DW_AT_low_pc(0x00)
    1213                            .dwattr $C$DW$131, DW_AT_name("xTaskResumeAll")
    1214                            .dwattr $C$DW$131, DW_AT_TI_call
    1215 000001ac FFFEF7FF!         BL        xTaskResumeAll        ; [DPU_3_PIPE] |463|  ; [KEEP 32-BIT INS]
    1216                            ; CALL OCCURS {xTaskResumeAll }  ; [] |463| 
    1217                            .dwpsn  file "H:/EECS_690/TI_ARM_Tiva_Projects_EECS_690_Sp16/Source/timers.c",line 464,column 
    1218 000001b0 9800              LDR       A1, [SP, #0]          ; [DPU_3_PIPE] |464|  ; [ORIG 16-BIT INS]
    1219 000001b2 9902              LDR       A2, [SP, #8]          ; [DPU_3_PIPE] |464|  ; [ORIG 16-BIT INS]
    1220                    $C$DW$132       .dwtag  DW_TAG_TI_branch
    1221                            .dwattr $C$DW$132, DW_AT_low_pc(0x00)
    1222                            .dwattr $C$DW$132, DW_AT_name("prvProcessExpiredTimer")
    1223                            .dwattr $C$DW$132, DW_AT_TI_call
    1224 000001b4 FFABF7FF          BL        prvProcessExpiredTimer ; [DPU_3_PIPE] |464|  ; [KEEP 32-BIT INS]
    1225                            ; CALL OCCURS {prvProcessExpiredTimer }  ; [] |464| 
    1226                            .dwpsn  file "H:/EECS_690/TI_ARM_Tiva_Projects_EECS_690_Sp16/Source/timers.c",line 465,column 
    1227 000001b8 E01E              B         ||$C$L13||            ; [DPU_3_PIPE] |465|  ; [ORIG 16-BIT INS]
    1228                            ; BRANCH OCCURS {||$C$L13||}     ; [] |465| 
    1229                    ;* --------------------------------------------------------------------------*
    1230 000001ba           ||$C$L9||:    
    1231                            .dwpsn  file "H:/EECS_690/TI_ARM_Tiva_Projects_EECS_690_Sp16/Source/timers.c",line 474,column 
    1232 000001ba 9801              LDR       A1, [SP, #4]          ; [DPU_3_PIPE] |474|  ; [ORIG 16-BIT INS]
    1233 000001bc B130              CBZ       A1, ||$C$L11||        ; []  ; [ORIG 16-BIT INS]
    1234                            ; BRANCHCC OCCURS {||$C$L11||}   ; [] |474| 
    1235                    ;* --------------------------------------------------------------------------*
    1236                            .dwpsn  file "H:/EECS_690/TI_ARM_Tiva_Projects_EECS_690_Sp16/Source/timers.c",line 478,column 
    1237 000001be 4882              LDR       A1, $C$CON4           ; [DPU_3_PIPE] |478|  ; [ORIG 16-BIT INS]
    1238 000001c0 6800              LDR       A1, [A1, #0]          ; [DPU_3_PIPE] |478|  ; [ORIG 16-BIT INS]
    1239 000001c2 6800              LDR       A1, [A1, #0]          ; [DPU_3_PIPE] |478|  ; [ORIG 16-BIT INS]
    1240 000001c4 2100              MOVS      A2, #0                ; [DPU_3_PIPE] |478|  ; [ORIG 16-BIT INS]
    1241 000001c6 B900              CBNZ      A1, ||$C$L10||        ; []  ; [ORIG 16-BIT INS]
    1242                            ; BRANCHCC OCCURS {||$C$L10||}   ; [] |478| 
    1243                    ;* --------------------------------------------------------------------------*
    1244 000001c8 2101              MOVS      A2, #1                ; [DPU_3_PIPE] |478|  ; [ORIG 16-BIT INS]
    1245                    ;* --------------------------------------------------------------------------*
    1246 000001ca           ||$C$L10||:    
    1247 000001ca 9101              STR       A2, [SP, #4]          ; [DPU_3_PIPE] |478|  ; [ORIG 16-BIT INS]
    1248                    ;* --------------------------------------------------------------------------*
    1249 000001cc           ||$C$L11||:    
    1250                            .dwpsn  file "H:/EECS_690/TI_ARM_Tiva_Projects_EECS_690_Sp16/Source/timers.c",line 481,column 
    1251 000001cc 4826              LDR       A1, $C$CON1           ; [DPU_3_PIPE] |481|  ; [ORIG 16-BIT INS]
    1252 000001ce 9A02              LDR       A3, [SP, #8]          ; [DPU_3_PIPE] |481|  ; [ORIG 16-BIT INS]
    1253 000001d0 9900              LDR       A2, [SP, #0]          ; [DPU_3_PIPE] |481|  ; [ORIG 16-BIT INS]
    1254 000001d2 6800              LDR       A1, [A1, #0]          ; [DPU_3_PIPE] |481|  ; [ORIG 16-BIT INS]
    1255 000001d4 1A89              SUBS      A2, A2, A3            ; [DPU_3_PIPE] |481|  ; [ORIG 16-BIT INS]
    1256 000001d6 9A01              LDR       A3, [SP, #4]          ; [DPU_3_PIPE] |481|  ; [ORIG 16-BIT INS]
    1257                    $C$DW$133       .dwtag  DW_TAG_TI_branch
    1258                            .dwattr $C$DW$133, DW_AT_low_pc(0x00)
    1259                            .dwattr $C$DW$133, DW_AT_name("vQueueWaitForMessageRestricted")
    1260                            .dwattr $C$DW$133, DW_AT_TI_call
    1261 000001d8 FFFEF7FF!         BL        vQueueWaitForMessageRestricted ; [DPU_3_PIPE] |481|  ; [KEEP 32-BIT INS]
    1262                            ; CALL OCCURS {vQueueWaitForMessageRestricted }  ; [] |481| 
    1263                            .dwpsn  file "H:/EECS_690/TI_ARM_Tiva_Projects_EECS_690_Sp16/Source/timers.c",line 483,column 
    1264                    $C$DW$134       .dwtag  DW_TAG_TI_branch
    1265                            .dwattr $C$DW$134, DW_AT_low_pc(0x00)
TI ARM Assembler PC v5.2.2 Thu Mar 10 16:27:06 2016

Tools Copyright (c) 1996-2015 Texas Instruments Incorporated
timers.asm                                                           PAGE   24

    1266                            .dwattr $C$DW$134, DW_AT_name("xTaskResumeAll")
    1267                            .dwattr $C$DW$134, DW_AT_TI_call
    1268 000001dc FFFEF7FF!         BL        xTaskResumeAll        ; [DPU_3_PIPE] |483|  ; [KEEP 32-BIT INS]
    1269                            ; CALL OCCURS {xTaskResumeAll }  ; [] |483| 
    1270 000001e0 B950              CBNZ      A1, ||$C$L13||        ; []  ; [ORIG 16-BIT INS]
    1271                            ; BRANCHCC OCCURS {||$C$L13||}   ; [] |483| 
    1272                    ;* --------------------------------------------------------------------------*
    1273                            .dwpsn  file "H:/EECS_690/TI_ARM_Tiva_Projects_EECS_690_Sp16/Source/timers.c",line 489,column 
    1274 000001e2 49A1              LDR       A2, $C$CON5           ; [DPU_3_PIPE] |489|  ; [ORIG 16-BIT INS]
    1275 000001e4 5080F04F          MOV       A1, #268435456        ; [DPU_3_PIPE] |489|  ; [KEEP 32-BIT INS]
    1276 000001e8 6008              STR       A1, [A2, #0]          ; [DPU_3_PIPE] |489|  ; [ORIG 16-BIT INS]
    1277 000001ea 8F4FF3BF          dsb ; [KEEP 32-BIT INS]
    1278 000001ee 8F6FF3BF          isb ; [KEEP 32-BIT INS]
    1279                            .dwpsn  file "H:/EECS_690/TI_ARM_Tiva_Projects_EECS_690_Sp16/Source/timers.c",line 490,column 
    1280 000001f2 E001              B         ||$C$L13||            ; [DPU_3_PIPE] |490|  ; [ORIG 16-BIT INS]
    1281                            ; BRANCH OCCURS {||$C$L13||}     ; [] |490| 
    1282                    ;* --------------------------------------------------------------------------*
    1283                    ;* --------------------------------------------------------------------------*
    1284 000001f4           ||$C$L12||:    
    1285                            .dwpsn  file "H:/EECS_690/TI_ARM_Tiva_Projects_EECS_690_Sp16/Source/timers.c",line 499,column 
    1286                    $C$DW$135       .dwtag  DW_TAG_TI_branch
    1287                            .dwattr $C$DW$135, DW_AT_low_pc(0x00)
    1288                            .dwattr $C$DW$135, DW_AT_name("xTaskResumeAll")
    1289                            .dwattr $C$DW$135, DW_AT_TI_call
    1290 000001f4 FFFEF7FF!         BL        xTaskResumeAll        ; [DPU_3_PIPE] |499|  ; [KEEP 32-BIT INS]
    1291                            ; CALL OCCURS {xTaskResumeAll }  ; [] |499| 
    1292                            .dwpsn  file "H:/EECS_690/TI_ARM_Tiva_Projects_EECS_690_Sp16/Source/timers.c",line 502,column 
    1293                    ;* --------------------------------------------------------------------------*
    1294 000001f8           ||$C$L13||:    
    1295 000001f8 B005              ADD       SP, SP, #20           ; [DPU_3_PIPE]  ; [ORIG 16-BIT INS]
    1296                            .dwcfi  cfa_offset, 4
    1297                    $C$DW$136       .dwtag  DW_TAG_TI_branch
    1298                            .dwattr $C$DW$136, DW_AT_low_pc(0x00)
    1299                            .dwattr $C$DW$136, DW_AT_TI_return
    1300 000001fa BD00              POP       {PC}                  ; [DPU_3_PIPE]  ; [ORIG 16-BIT INS]
    1301                            .dwcfi  cfa_offset, 0
    1302                            ; BRANCH OCCURS                  ; [] 
    1303                            .dwattr $C$DW$122, DW_AT_TI_end_file("H:/EECS_690/TI_ARM_Tiva_Projects_EECS_690_Sp16/Source/ti
    1304                            .dwattr $C$DW$122, DW_AT_TI_end_line(0x1f6)
    1305                            .dwattr $C$DW$122, DW_AT_TI_end_column(0x01)
    1306                            .dwendentry
    1307                            .dwendtag $C$DW$122
    1308                    
    1309 000001fc                   .sect   ".text"
    1310                            .clink
    1311                            .thumbfunc prvGetNextExpireTime
    1312 000001fc                   .thumb
    1313                    
    1314                    $C$DW$137       .dwtag  DW_TAG_subprogram, DW_AT_name("prvGetNextExpireTime")
    1315                            .dwattr $C$DW$137, DW_AT_low_pc(prvGetNextExpireTime)
    1316                            .dwattr $C$DW$137, DW_AT_high_pc(0x00)
    1317                            .dwattr $C$DW$137, DW_AT_TI_symbol_name("prvGetNextExpireTime")
    1318                            .dwattr $C$DW$137, DW_AT_type(*$C$DW$T$38)
    1319                            .dwattr $C$DW$137, DW_AT_TI_begin_file("H:/EECS_690/TI_ARM_Tiva_Projects_EECS_690_Sp16/Source/
    1320                            .dwattr $C$DW$137, DW_AT_TI_begin_line(0x1f9)
TI ARM Assembler PC v5.2.2 Thu Mar 10 16:27:06 2016

Tools Copyright (c) 1996-2015 Texas Instruments Incorporated
timers.asm                                                           PAGE   25

    1321                            .dwattr $C$DW$137, DW_AT_TI_begin_column(0x13)
    1322                            .dwattr $C$DW$137, DW_AT_decl_file("H:/EECS_690/TI_ARM_Tiva_Projects_EECS_690_Sp16/Source/time
    1323                            .dwattr $C$DW$137, DW_AT_decl_line(0x1f9)
    1324                            .dwattr $C$DW$137, DW_AT_decl_column(0x13)
    1325                            .dwattr $C$DW$137, DW_AT_TI_max_frame_size(0x08)
    1326                            .dwpsn  file "H:/EECS_690/TI_ARM_Tiva_Projects_EECS_690_Sp16/Source/timers.c",line 506,column 
    1327                    
    1328                            .dwfde $C$DW$CIE, prvGetNextExpireTime
    1329                    $C$DW$138       .dwtag  DW_TAG_formal_parameter, DW_AT_name("pxListWasEmpty")
    1330                            .dwattr $C$DW$138, DW_AT_TI_symbol_name("pxListWasEmpty")
    1331                            .dwattr $C$DW$138, DW_AT_type(*$C$DW$T$153)
    1332                            .dwattr $C$DW$138, DW_AT_location[DW_OP_reg0]
    1333                    
    1334                    ;*****************************************************************************
    1335                    ;* FUNCTION NAME: prvGetNextExpireTime                                       *
    1336                    ;*                                                                           *
    1337                    ;*   Regs Modified     : A1,A2,SP,SR                                         *
    1338                    ;*   Regs Used         : A1,A2,SP,LR,SR                                      *
    1339                    ;*   Local Frame Size  : 0 Args + 8 Auto + 0 Save = 8 byte                   *
    1340                    ;*****************************************************************************
    1341 000001fc           prvGetNextExpireTime:
    1342                    ;* --------------------------------------------------------------------------*
    1343                            .dwcfi  cfa_offset, 0
    1344 000001fc 0D08F1AD          SUB       SP, SP, #8            ; [DPU_3_PIPE]  ; [KEEP 32-BIT INS]
    1345                            .dwcfi  cfa_offset, 8
    1346                    $C$DW$139       .dwtag  DW_TAG_variable, DW_AT_name("pxListWasEmpty")
    1347                            .dwattr $C$DW$139, DW_AT_TI_symbol_name("pxListWasEmpty")
    1348                            .dwattr $C$DW$139, DW_AT_type(*$C$DW$T$153)
    1349                            .dwattr $C$DW$139, DW_AT_location[DW_OP_breg13 0]
    1350                    $C$DW$140       .dwtag  DW_TAG_variable, DW_AT_name("xNextExpireTime")
    1351                            .dwattr $C$DW$140, DW_AT_TI_symbol_name("xNextExpireTime")
    1352                            .dwattr $C$DW$140, DW_AT_type(*$C$DW$T$38)
    1353                            .dwattr $C$DW$140, DW_AT_location[DW_OP_breg13 4]
    1354 00000200 9000              STR       A1, [SP, #0]          ; [DPU_3_PIPE] |506|  ; [ORIG 16-BIT INS]
    1355                            .dwpsn  file "H:/EECS_690/TI_ARM_Tiva_Projects_EECS_690_Sp16/Source/timers.c",line 516,column 
    1356 00000202 4837              LDR       A1, $C$CON3           ; [DPU_3_PIPE] |516|  ; [ORIG 16-BIT INS]
    1357 00000204 6800              LDR       A1, [A1, #0]          ; [DPU_3_PIPE] |516|  ; [ORIG 16-BIT INS]
    1358 00000206 6800              LDR       A1, [A1, #0]          ; [DPU_3_PIPE] |516|  ; [ORIG 16-BIT INS]
    1359 00000208 2100              MOVS      A2, #0                ; [DPU_3_PIPE] |516|  ; [ORIG 16-BIT INS]
    1360 0000020a B900              CBNZ      A1, ||$C$L14||        ; []  ; [ORIG 16-BIT INS]
    1361                            ; BRANCHCC OCCURS {||$C$L14||}   ; [] |516| 
    1362                    ;* --------------------------------------------------------------------------*
    1363 0000020c 2101              MOVS      A2, #1                ; [DPU_3_PIPE] |516|  ; [ORIG 16-BIT INS]
    1364                    ;* --------------------------------------------------------------------------*
    1365 0000020e           ||$C$L14||:    
    1366 0000020e 9800              LDR       A1, [SP, #0]          ; [DPU_3_PIPE] |516|  ; [ORIG 16-BIT INS]
    1367 00000210 6001              STR       A2, [A1, #0]          ; [DPU_3_PIPE] |516|  ; [ORIG 16-BIT INS]
    1368                            .dwpsn  file "H:/EECS_690/TI_ARM_Tiva_Projects_EECS_690_Sp16/Source/timers.c",line 517,column 
    1369 00000212 9800              LDR       A1, [SP, #0]          ; [DPU_3_PIPE] |517|  ; [ORIG 16-BIT INS]
    1370 00000214 6800              LDR       A1, [A1, #0]          ; [DPU_3_PIPE] |517|  ; [ORIG 16-BIT INS]
    1371 00000216 B928              CBNZ      A1, ||$C$L15||        ; []  ; [ORIG 16-BIT INS]
    1372                            ; BRANCHCC OCCURS {||$C$L15||}   ; [] |517| 
    1373                    ;* --------------------------------------------------------------------------*
    1374                            .dwpsn  file "H:/EECS_690/TI_ARM_Tiva_Projects_EECS_690_Sp16/Source/timers.c",line 519,column 
    1375 00000218 4831              LDR       A1, $C$CON3           ; [DPU_3_PIPE] |519|  ; [ORIG 16-BIT INS]
TI ARM Assembler PC v5.2.2 Thu Mar 10 16:27:06 2016

Tools Copyright (c) 1996-2015 Texas Instruments Incorporated
timers.asm                                                           PAGE   26

    1376 0000021a 6800              LDR       A1, [A1, #0]          ; [DPU_3_PIPE] |519|  ; [ORIG 16-BIT INS]
    1377 0000021c 68C0              LDR       A1, [A1, #12]         ; [DPU_3_PIPE] |519|  ; [ORIG 16-BIT INS]
    1378 0000021e 6800              LDR       A1, [A1, #0]          ; [DPU_3_PIPE] |519|  ; [ORIG 16-BIT INS]
    1379 00000220 9001              STR       A1, [SP, #4]          ; [DPU_3_PIPE] |519|  ; [ORIG 16-BIT INS]
    1380                            .dwpsn  file "H:/EECS_690/TI_ARM_Tiva_Projects_EECS_690_Sp16/Source/timers.c",line 520,column 
    1381 00000222 E001              B         ||$C$L16||            ; [DPU_3_PIPE] |520|  ; [ORIG 16-BIT INS]
    1382                            ; BRANCH OCCURS {||$C$L16||}     ; [] |520| 
    1383                    ;* --------------------------------------------------------------------------*
    1384 00000224           ||$C$L15||:    
    1385                            .dwpsn  file "H:/EECS_690/TI_ARM_Tiva_Projects_EECS_690_Sp16/Source/timers.c",line 524,column 
    1386 00000224 2000              MOVS      A1, #0                ; [DPU_3_PIPE] |524|  ; [ORIG 16-BIT INS]
    1387 00000226 9001              STR       A1, [SP, #4]          ; [DPU_3_PIPE] |524|  ; [ORIG 16-BIT INS]
    1388                    ;* --------------------------------------------------------------------------*
    1389 00000228           ||$C$L16||:    
    1390                            .dwpsn  file "H:/EECS_690/TI_ARM_Tiva_Projects_EECS_690_Sp16/Source/timers.c",line 527,column 
    1391 00000228 9801              LDR       A1, [SP, #4]          ; [DPU_3_PIPE] |527|  ; [ORIG 16-BIT INS]
    1392                            .dwpsn  file "H:/EECS_690/TI_ARM_Tiva_Projects_EECS_690_Sp16/Source/timers.c",line 528,column 
    1393 0000022a B002              ADD       SP, SP, #8            ; [DPU_3_PIPE]  ; [ORIG 16-BIT INS]
    1394                            .dwcfi  cfa_offset, 0
    1395                    $C$DW$141       .dwtag  DW_TAG_TI_branch
    1396                            .dwattr $C$DW$141, DW_AT_low_pc(0x00)
    1397                            .dwattr $C$DW$141, DW_AT_TI_return
    1398 0000022c 4770              BX        LR                    ; [DPU_3_PIPE]  ; [ORIG 16-BIT INS]
    1399                            ; BRANCH OCCURS                  ; [] 
    1400                            .dwattr $C$DW$137, DW_AT_TI_end_file("H:/EECS_690/TI_ARM_Tiva_Projects_EECS_690_Sp16/Source/ti
    1401                            .dwattr $C$DW$137, DW_AT_TI_end_line(0x210)
    1402                            .dwattr $C$DW$137, DW_AT_TI_end_column(0x01)
    1403                            .dwendentry
    1404                            .dwendtag $C$DW$137
    1405                    
    1406 0000022e                   .sect   ".text"
    1407                            .clink
    1408                            .thumbfunc prvSampleTimeNow
    1409 0000022e                   .thumb
    1410                    
    1411                    $C$DW$142       .dwtag  DW_TAG_subprogram, DW_AT_name("prvSampleTimeNow")
    1412                            .dwattr $C$DW$142, DW_AT_low_pc(prvSampleTimeNow)
    1413                            .dwattr $C$DW$142, DW_AT_high_pc(0x00)
    1414                            .dwattr $C$DW$142, DW_AT_TI_symbol_name("prvSampleTimeNow")
    1415                            .dwattr $C$DW$142, DW_AT_type(*$C$DW$T$38)
    1416                            .dwattr $C$DW$142, DW_AT_TI_begin_file("H:/EECS_690/TI_ARM_Tiva_Projects_EECS_690_Sp16/Source/
    1417                            .dwattr $C$DW$142, DW_AT_TI_begin_line(0x213)
    1418                            .dwattr $C$DW$142, DW_AT_TI_begin_column(0x13)
    1419                            .dwattr $C$DW$142, DW_AT_decl_file("H:/EECS_690/TI_ARM_Tiva_Projects_EECS_690_Sp16/Source/time
    1420                            .dwattr $C$DW$142, DW_AT_decl_line(0x213)
    1421                            .dwattr $C$DW$142, DW_AT_decl_column(0x13)
    1422                            .dwattr $C$DW$142, DW_AT_TI_max_frame_size(0x10)
    1423                            .dwpsn  file "H:/EECS_690/TI_ARM_Tiva_Projects_EECS_690_Sp16/Source/timers.c",line 532,column 
    1424                    
    1425                            .dwfde $C$DW$CIE, prvSampleTimeNow
    1426                    $C$DW$143       .dwtag  DW_TAG_variable, DW_AT_name("xLastTime")
    1427                            .dwattr $C$DW$143, DW_AT_TI_symbol_name("xLastTime$1")
    1428                            .dwattr $C$DW$143, DW_AT_type(*$C$DW$T$38)
    1429                            .dwattr $C$DW$143, DW_AT_location[DW_OP_addr xLastTime$1]
    1430                    $C$DW$144       .dwtag  DW_TAG_formal_parameter, DW_AT_name("pxTimerListsWereSwitched")
TI ARM Assembler PC v5.2.2 Thu Mar 10 16:27:06 2016

Tools Copyright (c) 1996-2015 Texas Instruments Incorporated
timers.asm                                                           PAGE   27

    1431                            .dwattr $C$DW$144, DW_AT_TI_symbol_name("pxTimerListsWereSwitched")
    1432                            .dwattr $C$DW$144, DW_AT_type(*$C$DW$T$153)
    1433                            .dwattr $C$DW$144, DW_AT_location[DW_OP_reg0]
    1434                    
    1435                    ;*****************************************************************************
    1436                    ;* FUNCTION NAME: prvSampleTimeNow                                           *
    1437                    ;*                                                                           *
    1438                    ;*   Regs Modified     : A1,A2,A3,A4,V9,SP,LR,SR,D0,D0_hi,D1,D1_hi,D2,D2_hi, *
    1439                    ;*                           D3,D3_hi,D4,D4_hi,D5,D5_hi,D6,D6_hi,D7,D7_hi,   *
    1440                    ;*                           FPEXC,FPSCR                                     *
    1441                    ;*   Regs Used         : A1,A2,A3,A4,V9,SP,LR,SR,D0,D0_hi,D1,D1_hi,D2,D2_hi, *
    1442                    ;*                           D3,D3_hi,D4,D4_hi,D5,D5_hi,D6,D6_hi,D7,D7_hi,   *
    1443                    ;*                           FPEXC,FPSCR                                     *
    1444                    ;*   Local Frame Size  : 0 Args + 8 Auto + 4 Save = 12 byte                  *
    1445                    ;*****************************************************************************
    1446 0000022e           prvSampleTimeNow:
    1447                    ;* --------------------------------------------------------------------------*
    1448                            .dwcfi  cfa_offset, 0
    1449 0000022e B50E              PUSH      {A2, A3, A4, LR}      ; [DPU_3_PIPE]  ; [ORIG 16-BIT INS]
    1450                            .dwcfi  cfa_offset, 16
    1451                            .dwcfi  save_reg_to_mem, 14, -4
    1452                            .dwcfi  save_reg_to_mem, 3, -8
    1453                            .dwcfi  save_reg_to_mem, 2, -12
    1454                            .dwcfi  save_reg_to_mem, 1, -16
    1455                    $C$DW$145       .dwtag  DW_TAG_variable, DW_AT_name("pxTimerListsWereSwitched")
    1456                            .dwattr $C$DW$145, DW_AT_TI_symbol_name("pxTimerListsWereSwitched")
    1457                            .dwattr $C$DW$145, DW_AT_type(*$C$DW$T$153)
    1458                            .dwattr $C$DW$145, DW_AT_location[DW_OP_breg13 0]
    1459                    $C$DW$146       .dwtag  DW_TAG_variable, DW_AT_name("xTimeNow")
    1460                            .dwattr $C$DW$146, DW_AT_TI_symbol_name("xTimeNow")
    1461                            .dwattr $C$DW$146, DW_AT_type(*$C$DW$T$38)
    1462                            .dwattr $C$DW$146, DW_AT_location[DW_OP_breg13 4]
    1463 00000230 9000              STR       A1, [SP, #0]          ; [DPU_3_PIPE] |532|  ; [ORIG 16-BIT INS]
    1464                            .dwpsn  file "H:/EECS_690/TI_ARM_Tiva_Projects_EECS_690_Sp16/Source/timers.c",line 536,column 
    1465                    $C$DW$147       .dwtag  DW_TAG_TI_branch
    1466                            .dwattr $C$DW$147, DW_AT_low_pc(0x00)
    1467                            .dwattr $C$DW$147, DW_AT_name("xTaskGetTickCount")
    1468                            .dwattr $C$DW$147, DW_AT_TI_call
    1469 00000232 FFFEF7FF!         BL        xTaskGetTickCount     ; [DPU_3_PIPE] |536|  ; [KEEP 32-BIT INS]
    1470                            ; CALL OCCURS {xTaskGetTickCount }  ; [] |536| 
    1471 00000236 9001              STR       A1, [SP, #4]          ; [DPU_3_PIPE] |536|  ; [ORIG 16-BIT INS]
    1472                            .dwpsn  file "H:/EECS_690/TI_ARM_Tiva_Projects_EECS_690_Sp16/Source/timers.c",line 538,column 
    1473 00000238 489F              LDR       A1, $C$CON6           ; [DPU_3_PIPE] |538|  ; [ORIG 16-BIT INS]
    1474 0000023a 9901              LDR       A2, [SP, #4]          ; [DPU_3_PIPE] |538|  ; [ORIG 16-BIT INS]
    1475 0000023c 6800              LDR       A1, [A1, #0]          ; [DPU_3_PIPE] |538|  ; [ORIG 16-BIT INS]
    1476 0000023e 4288              CMP       A1, A2                ; [DPU_3_PIPE] |538|  ; [ORIG 16-BIT INS]
    1477 00000240 D905              BLS       ||$C$L17||            ; [DPU_3_PIPE] |538|  ; [ORIG 16-BIT INS]
    1478                            ; BRANCHCC OCCURS {||$C$L17||}   ; [] |538| 
    1479                    ;* --------------------------------------------------------------------------*
    1480                            .dwpsn  file "H:/EECS_690/TI_ARM_Tiva_Projects_EECS_690_Sp16/Source/timers.c",line 540,column 
    1481                    $C$DW$148       .dwtag  DW_TAG_TI_branch
    1482                            .dwattr $C$DW$148, DW_AT_low_pc(0x00)
    1483                            .dwattr $C$DW$148, DW_AT_name("prvSwitchTimerLists")
    1484                            .dwattr $C$DW$148, DW_AT_TI_call
    1485 00000242 F8C3F000          BL        prvSwitchTimerLists   ; [DPU_3_PIPE] |540|  ; [KEEP 32-BIT INS]
TI ARM Assembler PC v5.2.2 Thu Mar 10 16:27:06 2016

Tools Copyright (c) 1996-2015 Texas Instruments Incorporated
timers.asm                                                           PAGE   28

    1486                            ; CALL OCCURS {prvSwitchTimerLists }  ; [] |540| 
    1487                            .dwpsn  file "H:/EECS_690/TI_ARM_Tiva_Projects_EECS_690_Sp16/Source/timers.c",line 541,column 
    1488 00000246 9800              LDR       A1, [SP, #0]          ; [DPU_3_PIPE] |541|  ; [ORIG 16-BIT INS]
    1489 00000248 2101              MOVS      A2, #1                ; [DPU_3_PIPE] |541|  ; [ORIG 16-BIT INS]
    1490 0000024a 6001              STR       A2, [A1, #0]          ; [DPU_3_PIPE] |541|  ; [ORIG 16-BIT INS]
    1491                            .dwpsn  file "H:/EECS_690/TI_ARM_Tiva_Projects_EECS_690_Sp16/Source/timers.c",line 542,column 
    1492 0000024c E002              B         ||$C$L18||            ; [DPU_3_PIPE] |542|  ; [ORIG 16-BIT INS]
    1493                            ; BRANCH OCCURS {||$C$L18||}     ; [] |542| 
    1494                    ;* --------------------------------------------------------------------------*
    1495 0000024e           ||$C$L17||:    
    1496                            .dwpsn  file "H:/EECS_690/TI_ARM_Tiva_Projects_EECS_690_Sp16/Source/timers.c",line 545,column 
    1497 0000024e 9800              LDR       A1, [SP, #0]          ; [DPU_3_PIPE] |545|  ; [ORIG 16-BIT INS]
    1498 00000250 2100              MOVS      A2, #0                ; [DPU_3_PIPE] |545|  ; [ORIG 16-BIT INS]
    1499 00000252 6001              STR       A2, [A1, #0]          ; [DPU_3_PIPE] |545|  ; [ORIG 16-BIT INS]
    1500                    ;* --------------------------------------------------------------------------*
    1501 00000254           ||$C$L18||:    
    1502                            .dwpsn  file "H:/EECS_690/TI_ARM_Tiva_Projects_EECS_690_Sp16/Source/timers.c",line 548,column 
    1503 00000254 9801              LDR       A1, [SP, #4]          ; [DPU_3_PIPE] |548|  ; [ORIG 16-BIT INS]
    1504 00000256 4998              LDR       A2, $C$CON6           ; [DPU_3_PIPE] |548|  ; [ORIG 16-BIT INS]
    1505 00000258 6008              STR       A1, [A2, #0]          ; [DPU_3_PIPE] |548|  ; [ORIG 16-BIT INS]
    1506                            .dwpsn  file "H:/EECS_690/TI_ARM_Tiva_Projects_EECS_690_Sp16/Source/timers.c",line 550,column 
    1507 0000025a 9801              LDR       A1, [SP, #4]          ; [DPU_3_PIPE] |550|  ; [ORIG 16-BIT INS]
    1508                            .dwpsn  file "H:/EECS_690/TI_ARM_Tiva_Projects_EECS_690_Sp16/Source/timers.c",line 551,column 
    1509                    $C$DW$149       .dwtag  DW_TAG_TI_branch
    1510                            .dwattr $C$DW$149, DW_AT_low_pc(0x00)
    1511                            .dwattr $C$DW$149, DW_AT_TI_return
    1512 0000025c BD0E              POP       {A2, A3, A4, PC}      ; [DPU_3_PIPE]  ; [ORIG 16-BIT INS]
    1513                            .dwcfi  cfa_offset, 0
    1514                            ; BRANCH OCCURS                  ; [] 
    1515                            .dwattr $C$DW$142, DW_AT_TI_end_file("H:/EECS_690/TI_ARM_Tiva_Projects_EECS_690_Sp16/Source/ti
    1516                            .dwattr $C$DW$142, DW_AT_TI_end_line(0x227)
    1517                            .dwattr $C$DW$142, DW_AT_TI_end_column(0x01)
    1518                            .dwendentry
    1519                            .dwendtag $C$DW$142
    1520                    
    1521                    ;******************************************************************************
    1522                    ;* STRINGS                                                                    *
    1523                    ;******************************************************************************
    1524 0000025e                   .sect   ".text"
    1525                            .align  4
    1526 00000260 54        ||$C$SL1||:     .string "Tmr Svc",0
         00000261 6D       
         00000262 72       
         00000263 20       
         00000264 53       
         00000265 76       
         00000266 63       
         00000267 00       
    1527                    ;******************************************************************************
    1528                    ;* CONSTANT TABLE                                                             *
    1529                    ;******************************************************************************
    1530 00000268                   .sect   ".text"
    1531                            .align  4
    1532 00000266 00000063! ||$C$CON1||:    .bits   xTimerQueue,32
         0000026a 00000000 
TI ARM Assembler PC v5.2.2 Thu Mar 10 16:27:06 2016

Tools Copyright (c) 1996-2015 Texas Instruments Incorporated
timers.asm                                                           PAGE   29

    1533                            .align  4
    1534 0000026a 00000000! ||$C$CON2||:    .bits   prvTimerTask,32
         0000026e 00000000 
    1535 00000270                   .sect   ".text"
    1536                            .clink
    1537                            .thumbfunc prvInsertTimerInActiveList
    1538 00000270                   .thumb
    1539                    
    1540                    $C$DW$150       .dwtag  DW_TAG_subprogram, DW_AT_name("prvInsertTimerInActiveList")
    1541                            .dwattr $C$DW$150, DW_AT_low_pc(prvInsertTimerInActiveList)
    1542                            .dwattr $C$DW$150, DW_AT_high_pc(0x00)
    1543                            .dwattr $C$DW$150, DW_AT_TI_symbol_name("prvInsertTimerInActiveList")
    1544                            .dwattr $C$DW$150, DW_AT_type(*$C$DW$T$50)
    1545                            .dwattr $C$DW$150, DW_AT_TI_begin_file("H:/EECS_690/TI_ARM_Tiva_Projects_EECS_690_Sp16/Source/
    1546                            .dwattr $C$DW$150, DW_AT_TI_begin_line(0x22a)
    1547                            .dwattr $C$DW$150, DW_AT_TI_begin_column(0x13)
    1548                            .dwattr $C$DW$150, DW_AT_decl_file("H:/EECS_690/TI_ARM_Tiva_Projects_EECS_690_Sp16/Source/time
    1549                            .dwattr $C$DW$150, DW_AT_decl_line(0x22a)
    1550                            .dwattr $C$DW$150, DW_AT_decl_column(0x13)
    1551                            .dwattr $C$DW$150, DW_AT_TI_max_frame_size(0x18)
    1552                            .dwpsn  file "H:/EECS_690/TI_ARM_Tiva_Projects_EECS_690_Sp16/Source/timers.c",line 555,column 
    1553                    
    1554                            .dwfde $C$DW$CIE, prvInsertTimerInActiveList
    1555                    $C$DW$151       .dwtag  DW_TAG_formal_parameter, DW_AT_name("pxTimer")
    1556                            .dwattr $C$DW$151, DW_AT_TI_symbol_name("pxTimer")
    1557                            .dwattr $C$DW$151, DW_AT_type(*$C$DW$T$158)
    1558                            .dwattr $C$DW$151, DW_AT_location[DW_OP_reg0]
    1559                    $C$DW$152       .dwtag  DW_TAG_formal_parameter, DW_AT_name("xNextExpiryTime")
    1560                            .dwattr $C$DW$152, DW_AT_TI_symbol_name("xNextExpiryTime")
    1561                            .dwattr $C$DW$152, DW_AT_type(*$C$DW$T$92)
    1562                            .dwattr $C$DW$152, DW_AT_location[DW_OP_reg1]
    1563                    $C$DW$153       .dwtag  DW_TAG_formal_parameter, DW_AT_name("xTimeNow")
    1564                            .dwattr $C$DW$153, DW_AT_TI_symbol_name("xTimeNow")
    1565                            .dwattr $C$DW$153, DW_AT_type(*$C$DW$T$92)
    1566                            .dwattr $C$DW$153, DW_AT_location[DW_OP_reg2]
    1567                    $C$DW$154       .dwtag  DW_TAG_formal_parameter, DW_AT_name("xCommandTime")
    1568                            .dwattr $C$DW$154, DW_AT_TI_symbol_name("xCommandTime")
    1569                            .dwattr $C$DW$154, DW_AT_type(*$C$DW$T$92)
    1570                            .dwattr $C$DW$154, DW_AT_location[DW_OP_reg3]
    1571                    
    1572                    ;*****************************************************************************
    1573                    ;* FUNCTION NAME: prvInsertTimerInActiveList                                 *
    1574                    ;*                                                                           *
    1575                    ;*   Regs Modified     : A1,A2,A3,A4,V9,SP,LR,SR,D0,D0_hi,D1,D1_hi,D2,D2_hi, *
    1576                    ;*                           D3,D3_hi,D4,D4_hi,D5,D5_hi,D6,D6_hi,D7,D7_hi,   *
    1577                    ;*                           FPEXC,FPSCR                                     *
    1578                    ;*   Regs Used         : A1,A2,A3,A4,V9,SP,LR,SR,D0,D0_hi,D1,D1_hi,D2,D2_hi, *
    1579                    ;*                           D3,D3_hi,D4,D4_hi,D5,D5_hi,D6,D6_hi,D7,D7_hi,   *
    1580                    ;*                           FPEXC,FPSCR                                     *
    1581                    ;*   Local Frame Size  : 0 Args + 20 Auto + 4 Save = 24 byte                 *
    1582                    ;*****************************************************************************
    1583 00000270           prvInsertTimerInActiveList:
    1584                    ;* --------------------------------------------------------------------------*
    1585                            .dwcfi  cfa_offset, 0
    1586 00000270 B500              PUSH      {LR}                  ; [DPU_3_PIPE]  ; [ORIG 16-BIT INS]
TI ARM Assembler PC v5.2.2 Thu Mar 10 16:27:06 2016

Tools Copyright (c) 1996-2015 Texas Instruments Incorporated
timers.asm                                                           PAGE   30

    1587                            .dwcfi  cfa_offset, 4
    1588                            .dwcfi  save_reg_to_mem, 14, -4
    1589 00000272 0D14F1AD          SUB       SP, SP, #20           ; [DPU_3_PIPE]  ; [KEEP 32-BIT INS]
    1590                            .dwcfi  cfa_offset, 24
    1591                    $C$DW$155       .dwtag  DW_TAG_variable, DW_AT_name("pxTimer")
    1592                            .dwattr $C$DW$155, DW_AT_TI_symbol_name("pxTimer")
    1593                            .dwattr $C$DW$155, DW_AT_type(*$C$DW$T$158)
    1594                            .dwattr $C$DW$155, DW_AT_location[DW_OP_breg13 0]
    1595                    $C$DW$156       .dwtag  DW_TAG_variable, DW_AT_name("xNextExpiryTime")
    1596                            .dwattr $C$DW$156, DW_AT_TI_symbol_name("xNextExpiryTime")
    1597                            .dwattr $C$DW$156, DW_AT_type(*$C$DW$T$92)
    1598                            .dwattr $C$DW$156, DW_AT_location[DW_OP_breg13 4]
    1599                    $C$DW$157       .dwtag  DW_TAG_variable, DW_AT_name("xTimeNow")
    1600                            .dwattr $C$DW$157, DW_AT_TI_symbol_name("xTimeNow")
    1601                            .dwattr $C$DW$157, DW_AT_type(*$C$DW$T$92)
    1602                            .dwattr $C$DW$157, DW_AT_location[DW_OP_breg13 8]
    1603                    $C$DW$158       .dwtag  DW_TAG_variable, DW_AT_name("xCommandTime")
    1604                            .dwattr $C$DW$158, DW_AT_TI_symbol_name("xCommandTime")
    1605                            .dwattr $C$DW$158, DW_AT_type(*$C$DW$T$92)
    1606                            .dwattr $C$DW$158, DW_AT_location[DW_OP_breg13 12]
    1607                    $C$DW$159       .dwtag  DW_TAG_variable, DW_AT_name("xProcessTimerNow")
    1608                            .dwattr $C$DW$159, DW_AT_TI_symbol_name("xProcessTimerNow")
    1609                            .dwattr $C$DW$159, DW_AT_type(*$C$DW$T$50)
    1610                            .dwattr $C$DW$159, DW_AT_location[DW_OP_breg13 16]
    1611 00000276 9303              STR       A4, [SP, #12]         ; [DPU_3_PIPE] |555|  ; [ORIG 16-BIT INS]
    1612 00000278 9202              STR       A3, [SP, #8]          ; [DPU_3_PIPE] |555|  ; [ORIG 16-BIT INS]
    1613 0000027a 9101              STR       A2, [SP, #4]          ; [DPU_3_PIPE] |555|  ; [ORIG 16-BIT INS]
    1614 0000027c 9000              STR       A1, [SP, #0]          ; [DPU_3_PIPE] |555|  ; [ORIG 16-BIT INS]
    1615                            .dwpsn  file "H:/EECS_690/TI_ARM_Tiva_Projects_EECS_690_Sp16/Source/timers.c",line 556,column 
    1616 0000027e 2000              MOVS      A1, #0                ; [DPU_3_PIPE] |556|  ; [ORIG 16-BIT INS]
    1617 00000280 9004              STR       A1, [SP, #16]         ; [DPU_3_PIPE] |556|  ; [ORIG 16-BIT INS]
    1618                            .dwpsn  file "H:/EECS_690/TI_ARM_Tiva_Projects_EECS_690_Sp16/Source/timers.c",line 558,column 
    1619 00000282 9900              LDR       A2, [SP, #0]          ; [DPU_3_PIPE] |558|  ; [ORIG 16-BIT INS]
    1620 00000284 9801              LDR       A1, [SP, #4]          ; [DPU_3_PIPE] |558|  ; [ORIG 16-BIT INS]
    1621 00000286 6048              STR       A1, [A2, #4]          ; [DPU_3_PIPE] |558|  ; [ORIG 16-BIT INS]
    1622                            .dwpsn  file "H:/EECS_690/TI_ARM_Tiva_Projects_EECS_690_Sp16/Source/timers.c",line 559,column 
    1623 00000288 9800              LDR       A1, [SP, #0]          ; [DPU_3_PIPE] |559|  ; [ORIG 16-BIT INS]
    1624 0000028a 9900              LDR       A2, [SP, #0]          ; [DPU_3_PIPE] |559|  ; [ORIG 16-BIT INS]
    1625 0000028c 6108              STR       A1, [A2, #16]         ; [DPU_3_PIPE] |559|  ; [ORIG 16-BIT INS]
    1626                            .dwpsn  file "H:/EECS_690/TI_ARM_Tiva_Projects_EECS_690_Sp16/Source/timers.c",line 561,column 
    1627 0000028e 9802              LDR       A1, [SP, #8]          ; [DPU_3_PIPE] |561|  ; [ORIG 16-BIT INS]
    1628 00000290 9901              LDR       A2, [SP, #4]          ; [DPU_3_PIPE] |561|  ; [ORIG 16-BIT INS]
    1629 00000292 4288              CMP       A1, A2                ; [DPU_3_PIPE] |561|  ; [ORIG 16-BIT INS]
    1630 00000294 D310              BCC       ||$C$L20||            ; [DPU_3_PIPE] |561|  ; [ORIG 16-BIT INS]
    1631                            ; BRANCHCC OCCURS {||$C$L20||}   ; [] |561| 
    1632                    ;* --------------------------------------------------------------------------*
    1633                            .dwpsn  file "H:/EECS_690/TI_ARM_Tiva_Projects_EECS_690_Sp16/Source/timers.c",line 565,column 
    1634 00000296 9900              LDR       A2, [SP, #0]          ; [DPU_3_PIPE] |565|  ; [ORIG 16-BIT INS]
    1635 00000298 9A03              LDR       A3, [SP, #12]         ; [DPU_3_PIPE] |565|  ; [ORIG 16-BIT INS]
    1636 0000029a 9802              LDR       A1, [SP, #8]          ; [DPU_3_PIPE] |565|  ; [ORIG 16-BIT INS]
    1637 0000029c 6989              LDR       A2, [A2, #24]         ; [DPU_3_PIPE] |565|  ; [ORIG 16-BIT INS]
    1638 0000029e 1A80              SUBS      A1, A1, A3            ; [DPU_3_PIPE] |565|  ; [ORIG 16-BIT INS]
    1639 000002a0 4281              CMP       A2, A1                ; [DPU_3_PIPE] |565|  ; [ORIG 16-BIT INS]
    1640 000002a2 D802              BHI       ||$C$L19||            ; [DPU_3_PIPE] |565|  ; [ORIG 16-BIT INS]
    1641                            ; BRANCHCC OCCURS {||$C$L19||}   ; [] |565| 
TI ARM Assembler PC v5.2.2 Thu Mar 10 16:27:06 2016

Tools Copyright (c) 1996-2015 Texas Instruments Incorporated
timers.asm                                                           PAGE   31

    1642                    ;* --------------------------------------------------------------------------*
    1643                            .dwpsn  file "H:/EECS_690/TI_ARM_Tiva_Projects_EECS_690_Sp16/Source/timers.c",line 569,column 
    1644 000002a4 2001              MOVS      A1, #1                ; [DPU_3_PIPE] |569|  ; [ORIG 16-BIT INS]
    1645 000002a6 9004              STR       A1, [SP, #16]         ; [DPU_3_PIPE] |569|  ; [ORIG 16-BIT INS]
    1646                            .dwpsn  file "H:/EECS_690/TI_ARM_Tiva_Projects_EECS_690_Sp16/Source/timers.c",line 570,column 
    1647 000002a8 E017              B         ||$C$L22||            ; [DPU_3_PIPE] |570|  ; [ORIG 16-BIT INS]
    1648                            ; BRANCH OCCURS {||$C$L22||}     ; [] |570| 
    1649                    ;* --------------------------------------------------------------------------*
    1650 000002aa           ||$C$L19||:    
    1651                            .dwpsn  file "H:/EECS_690/TI_ARM_Tiva_Projects_EECS_690_Sp16/Source/timers.c",line 573,column 
    1652 000002aa 4847              LDR       A1, $C$CON4           ; [DPU_3_PIPE] |573|  ; [ORIG 16-BIT INS]
    1653 000002ac 9900              LDR       A2, [SP, #0]          ; [DPU_3_PIPE] |573|  ; [ORIG 16-BIT INS]
    1654 000002ae 6800              LDR       A1, [A1, #0]          ; [DPU_3_PIPE] |573|  ; [ORIG 16-BIT INS]
    1655 000002b0 1D09              ADDS      A2, A2, #4            ; [DPU_3_PIPE] |573|  ; [ORIG 16-BIT INS]
    1656                    $C$DW$160       .dwtag  DW_TAG_TI_branch
    1657                            .dwattr $C$DW$160, DW_AT_low_pc(0x00)
    1658                            .dwattr $C$DW$160, DW_AT_name("vListInsert")
    1659                            .dwattr $C$DW$160, DW_AT_TI_call
    1660 000002b2 FFFEF7FF!         BL        vListInsert           ; [DPU_3_PIPE] |573|  ; [KEEP 32-BIT INS]
    1661                            ; CALL OCCURS {vListInsert }     ; [] |573| 
    1662                            .dwpsn  file "H:/EECS_690/TI_ARM_Tiva_Projects_EECS_690_Sp16/Source/timers.c",line 575,column 
    1663 000002b6 E010              B         ||$C$L22||            ; [DPU_3_PIPE] |575|  ; [ORIG 16-BIT INS]
    1664                            ; BRANCH OCCURS {||$C$L22||}     ; [] |575| 
    1665                    ;* --------------------------------------------------------------------------*
    1666 000002b8           ||$C$L20||:    
    1667                            .dwpsn  file "H:/EECS_690/TI_ARM_Tiva_Projects_EECS_690_Sp16/Source/timers.c",line 578,column 
    1668 000002b8 9803              LDR       A1, [SP, #12]         ; [DPU_3_PIPE] |578|  ; [ORIG 16-BIT INS]
    1669 000002ba 9902              LDR       A2, [SP, #8]          ; [DPU_3_PIPE] |578|  ; [ORIG 16-BIT INS]
    1670 000002bc 4288              CMP       A1, A2                ; [DPU_3_PIPE] |578|  ; [ORIG 16-BIT INS]
    1671 000002be D906              BLS       ||$C$L21||            ; [DPU_3_PIPE] |578|  ; [ORIG 16-BIT INS]
    1672                            ; BRANCHCC OCCURS {||$C$L21||}   ; [] |578| 
    1673                    ;* --------------------------------------------------------------------------*
    1674 000002c0 9803              LDR       A1, [SP, #12]         ; [DPU_3_PIPE] |578|  ; [ORIG 16-BIT INS]
    1675 000002c2 9901              LDR       A2, [SP, #4]          ; [DPU_3_PIPE] |578|  ; [ORIG 16-BIT INS]
    1676 000002c4 4288              CMP       A1, A2                ; [DPU_3_PIPE] |578|  ; [ORIG 16-BIT INS]
    1677 000002c6 D802              BHI       ||$C$L21||            ; [DPU_3_PIPE] |578|  ; [ORIG 16-BIT INS]
    1678                            ; BRANCHCC OCCURS {||$C$L21||}   ; [] |578| 
    1679                    ;* --------------------------------------------------------------------------*
    1680                            .dwpsn  file "H:/EECS_690/TI_ARM_Tiva_Projects_EECS_690_Sp16/Source/timers.c",line 583,column 
    1681 000002c8 2001              MOVS      A1, #1                ; [DPU_3_PIPE] |583|  ; [ORIG 16-BIT INS]
    1682 000002ca 9004              STR       A1, [SP, #16]         ; [DPU_3_PIPE] |583|  ; [ORIG 16-BIT INS]
    1683                            .dwpsn  file "H:/EECS_690/TI_ARM_Tiva_Projects_EECS_690_Sp16/Source/timers.c",line 584,column 
    1684 000002cc E005              B         ||$C$L22||            ; [DPU_3_PIPE] |584|  ; [ORIG 16-BIT INS]
    1685                            ; BRANCH OCCURS {||$C$L22||}     ; [] |584| 
    1686                    ;* --------------------------------------------------------------------------*
    1687 000002ce           ||$C$L21||:    
    1688                            .dwpsn  file "H:/EECS_690/TI_ARM_Tiva_Projects_EECS_690_Sp16/Source/timers.c",line 587,column 
    1689 000002ce 4804              LDR       A1, $C$CON3           ; [DPU_3_PIPE] |587|  ; [ORIG 16-BIT INS]
    1690 000002d0 9900              LDR       A2, [SP, #0]          ; [DPU_3_PIPE] |587|  ; [ORIG 16-BIT INS]
    1691 000002d2 6800              LDR       A1, [A1, #0]          ; [DPU_3_PIPE] |587|  ; [ORIG 16-BIT INS]
    1692 000002d4 1D09              ADDS      A2, A2, #4            ; [DPU_3_PIPE] |587|  ; [ORIG 16-BIT INS]
    1693                    $C$DW$161       .dwtag  DW_TAG_TI_branch
    1694                            .dwattr $C$DW$161, DW_AT_low_pc(0x00)
    1695                            .dwattr $C$DW$161, DW_AT_name("vListInsert")
    1696                            .dwattr $C$DW$161, DW_AT_TI_call
TI ARM Assembler PC v5.2.2 Thu Mar 10 16:27:06 2016

Tools Copyright (c) 1996-2015 Texas Instruments Incorporated
timers.asm                                                           PAGE   32

    1697 000002d6 FFFEF7FF!         BL        vListInsert           ; [DPU_3_PIPE] |587|  ; [KEEP 32-BIT INS]
    1698                            ; CALL OCCURS {vListInsert }     ; [] |587| 
    1699                    ;* --------------------------------------------------------------------------*
    1700 000002da           ||$C$L22||:    
    1701                            .dwpsn  file "H:/EECS_690/TI_ARM_Tiva_Projects_EECS_690_Sp16/Source/timers.c",line 591,column 
    1702 000002da 9804              LDR       A1, [SP, #16]         ; [DPU_3_PIPE] |591|  ; [ORIG 16-BIT INS]
    1703                            .dwpsn  file "H:/EECS_690/TI_ARM_Tiva_Projects_EECS_690_Sp16/Source/timers.c",line 592,column 
    1704 000002dc B005              ADD       SP, SP, #20           ; [DPU_3_PIPE]  ; [ORIG 16-BIT INS]
    1705                            .dwcfi  cfa_offset, 4
    1706                    $C$DW$162       .dwtag  DW_TAG_TI_branch
    1707                            .dwattr $C$DW$162, DW_AT_low_pc(0x00)
    1708                            .dwattr $C$DW$162, DW_AT_TI_return
    1709 000002de BD00              POP       {PC}                  ; [DPU_3_PIPE]  ; [ORIG 16-BIT INS]
    1710                            .dwcfi  cfa_offset, 0
    1711                            ; BRANCH OCCURS                  ; [] 
    1712                            .dwattr $C$DW$150, DW_AT_TI_end_file("H:/EECS_690/TI_ARM_Tiva_Projects_EECS_690_Sp16/Source/ti
    1713                            .dwattr $C$DW$150, DW_AT_TI_end_line(0x250)
    1714                            .dwattr $C$DW$150, DW_AT_TI_end_column(0x01)
    1715                            .dwendentry
    1716                            .dwendtag $C$DW$150
    1717                    
    1718                    ;******************************************************************************
    1719                    ;* CONSTANT TABLE                                                             *
    1720                    ;******************************************************************************
    1721 000002e0                   .sect   ".text"
    1722                            .align  4
    1723 000002e0 00000000! ||$C$CON3||:    .bits   pxCurrentTimerList,32
    1724 000002e4                   .sect   ".text"
    1725                            .clink
    1726                            .thumbfunc prvProcessReceivedCommands
    1727 000002e4                   .thumb
    1728                    
    1729                    $C$DW$163       .dwtag  DW_TAG_subprogram, DW_AT_name("prvProcessReceivedCommands")
    1730                            .dwattr $C$DW$163, DW_AT_low_pc(prvProcessReceivedCommands)
    1731                            .dwattr $C$DW$163, DW_AT_high_pc(0x00)
    1732                            .dwattr $C$DW$163, DW_AT_TI_symbol_name("prvProcessReceivedCommands")
    1733                            .dwattr $C$DW$163, DW_AT_TI_begin_file("H:/EECS_690/TI_ARM_Tiva_Projects_EECS_690_Sp16/Source/
    1734                            .dwattr $C$DW$163, DW_AT_TI_begin_line(0x253)
    1735                            .dwattr $C$DW$163, DW_AT_TI_begin_column(0x0d)
    1736                            .dwattr $C$DW$163, DW_AT_decl_file("H:/EECS_690/TI_ARM_Tiva_Projects_EECS_690_Sp16/Source/time
    1737                            .dwattr $C$DW$163, DW_AT_decl_line(0x253)
    1738                            .dwattr $C$DW$163, DW_AT_decl_column(0x0d)
    1739                            .dwattr $C$DW$163, DW_AT_TI_max_frame_size(0x28)
    1740                            .dwpsn  file "H:/EECS_690/TI_ARM_Tiva_Projects_EECS_690_Sp16/Source/timers.c",line 596,column 
    1741                    
    1742                            .dwfde $C$DW$CIE, prvProcessReceivedCommands
    1743                    
    1744                    ;*****************************************************************************
    1745                    ;* FUNCTION NAME: prvProcessReceivedCommands                                 *
    1746                    ;*                                                                           *
    1747                    ;*   Regs Modified     : A1,A2,A3,A4,V9,SP,LR,SR,D0,D0_hi,D1,D1_hi,D2,D2_hi, *
    1748                    ;*                           D3,D3_hi,D4,D4_hi,D5,D5_hi,D6,D6_hi,D7,D7_hi,   *
    1749                    ;*                           FPEXC,FPSCR                                     *
    1750                    ;*   Regs Used         : A1,A2,A3,A4,V9,SP,LR,SR,D0,D0_hi,D1,D1_hi,D2,D2_hi, *
    1751                    ;*                           D3,D3_hi,D4,D4_hi,D5,D5_hi,D6,D6_hi,D7,D7_hi,   *
TI ARM Assembler PC v5.2.2 Thu Mar 10 16:27:06 2016

Tools Copyright (c) 1996-2015 Texas Instruments Incorporated
timers.asm                                                           PAGE   33

    1752                    ;*                           FPEXC,FPSCR                                     *
    1753                    ;*   Local Frame Size  : 4 Args + 28 Auto + 4 Save = 36 byte                 *
    1754                    ;*****************************************************************************
    1755 000002e4           prvProcessReceivedCommands:
    1756                    ;* --------------------------------------------------------------------------*
    1757                            .dwcfi  cfa_offset, 0
    1758 000002e4 B500              PUSH      {LR}                  ; [DPU_3_PIPE]  ; [ORIG 16-BIT INS]
    1759                            .dwcfi  cfa_offset, 4
    1760                            .dwcfi  save_reg_to_mem, 14, -4
    1761 000002e6 0D24F1AD          SUB       SP, SP, #36           ; [DPU_3_PIPE]  ; [KEEP 32-BIT INS]
    1762                            .dwcfi  cfa_offset, 40
    1763                    $C$DW$164       .dwtag  DW_TAG_variable, DW_AT_name("xMessage")
    1764                            .dwattr $C$DW$164, DW_AT_TI_symbol_name("xMessage")
    1765                            .dwattr $C$DW$164, DW_AT_type(*$C$DW$T$211)
    1766                            .dwattr $C$DW$164, DW_AT_location[DW_OP_breg13 4]
    1767                    $C$DW$165       .dwtag  DW_TAG_variable, DW_AT_name("pxTimer")
    1768                            .dwattr $C$DW$165, DW_AT_TI_symbol_name("pxTimer")
    1769                            .dwattr $C$DW$165, DW_AT_type(*$C$DW$T$47)
    1770                            .dwattr $C$DW$165, DW_AT_location[DW_OP_breg13 16]
    1771                    $C$DW$166       .dwtag  DW_TAG_variable, DW_AT_name("xTimerListsWereSwitched")
    1772                            .dwattr $C$DW$166, DW_AT_TI_symbol_name("xTimerListsWereSwitched")
    1773                            .dwattr $C$DW$166, DW_AT_type(*$C$DW$T$50)
    1774                            .dwattr $C$DW$166, DW_AT_location[DW_OP_breg13 20]
    1775                    $C$DW$167       .dwtag  DW_TAG_variable, DW_AT_name("xResult")
    1776                            .dwattr $C$DW$167, DW_AT_TI_symbol_name("xResult")
    1777                            .dwattr $C$DW$167, DW_AT_type(*$C$DW$T$50)
    1778                            .dwattr $C$DW$167, DW_AT_location[DW_OP_breg13 24]
    1779                    $C$DW$168       .dwtag  DW_TAG_variable, DW_AT_name("xTimeNow")
    1780                            .dwattr $C$DW$168, DW_AT_TI_symbol_name("xTimeNow")
    1781                            .dwattr $C$DW$168, DW_AT_type(*$C$DW$T$38)
    1782                            .dwattr $C$DW$168, DW_AT_location[DW_OP_breg13 28]
    1783                            .dwpsn  file "H:/EECS_690/TI_ARM_Tiva_Projects_EECS_690_Sp16/Source/timers.c",line 602,column 
    1784 000002ea E061              B         ||$C$L30||            ; [DPU_3_PIPE] |602|  ; [ORIG 16-BIT INS]
    1785                            ; BRANCH OCCURS {||$C$L30||}     ; [] |602| 
    1786                    ;* --------------------------------------------------------------------------*
    1787 000002ec           ||$C$L23||:    
    1788                            .dwpsn  file "H:/EECS_690/TI_ARM_Tiva_Projects_EECS_690_Sp16/Source/timers.c",line 628,column 
    1789 000002ec 9801              LDR       A1, [SP, #4]          ; [DPU_3_PIPE] |628|  ; [ORIG 16-BIT INS]
    1790 000002ee 2800              CMP       A1, #0                ; [DPU_3_PIPE] |628|  ; [ORIG 16-BIT INS]
    1791 000002f0 D45E              BMI       ||$C$L30||            ; [DPU_3_PIPE] |628|  ; [ORIG 16-BIT INS]
    1792                            ; BRANCHCC OCCURS {||$C$L30||}   ; [] |628| 
    1793                    ;* --------------------------------------------------------------------------*
    1794                            .dwpsn  file "H:/EECS_690/TI_ARM_Tiva_Projects_EECS_690_Sp16/Source/timers.c",line 632,column 
    1795 000002f2 9803              LDR       A1, [SP, #12]         ; [DPU_3_PIPE] |632|  ; [ORIG 16-BIT INS]
    1796 000002f4 9004              STR       A1, [SP, #16]         ; [DPU_3_PIPE] |632|  ; [ORIG 16-BIT INS]
    1797                            .dwpsn  file "H:/EECS_690/TI_ARM_Tiva_Projects_EECS_690_Sp16/Source/timers.c",line 634,column 
    1798 000002f6 9804              LDR       A1, [SP, #16]         ; [DPU_3_PIPE] |634|  ; [ORIG 16-BIT INS]
    1799 000002f8 6941              LDR       A2, [A1, #20]         ; [DPU_3_PIPE] |634|  ; [ORIG 16-BIT INS]
    1800 000002fa 2000              MOVS      A1, #0                ; [DPU_3_PIPE] |634|  ; [ORIG 16-BIT INS]
    1801 000002fc B901              CBNZ      A2, ||$C$L24||        ; []  ; [ORIG 16-BIT INS]
    1802                            ; BRANCHCC OCCURS {||$C$L24||}   ; [] |634| 
    1803                    ;* --------------------------------------------------------------------------*
    1804 000002fe 2001              MOVS      A1, #1                ; [DPU_3_PIPE] |634|  ; [ORIG 16-BIT INS]
    1805                    ;* --------------------------------------------------------------------------*
    1806 00000300           ||$C$L24||:    
TI ARM Assembler PC v5.2.2 Thu Mar 10 16:27:06 2016

Tools Copyright (c) 1996-2015 Texas Instruments Incorporated
timers.asm                                                           PAGE   34

    1807 00000300 B918              CBNZ      A1, ||$C$L25||        ; []  ; [ORIG 16-BIT INS]
    1808                            ; BRANCHCC OCCURS {||$C$L25||}   ; [] |634| 
    1809                    ;* --------------------------------------------------------------------------*
    1810                            .dwpsn  file "H:/EECS_690/TI_ARM_Tiva_Projects_EECS_690_Sp16/Source/timers.c",line 637,column 
    1811 00000302 9804              LDR       A1, [SP, #16]         ; [DPU_3_PIPE] |637|  ; [ORIG 16-BIT INS]
    1812 00000304 1D00              ADDS      A1, A1, #4            ; [DPU_3_PIPE] |637|  ; [ORIG 16-BIT INS]
    1813                    $C$DW$169       .dwtag  DW_TAG_TI_branch
    1814                            .dwattr $C$DW$169, DW_AT_low_pc(0x00)
    1815                            .dwattr $C$DW$169, DW_AT_name("uxListRemove")
    1816                            .dwattr $C$DW$169, DW_AT_TI_call
    1817 00000306 FFFEF7FF!         BL        uxListRemove          ; [DPU_3_PIPE] |637|  ; [KEEP 32-BIT INS]
    1818                            ; CALL OCCURS {uxListRemove }    ; [] |637| 
    1819                            .dwpsn  file "H:/EECS_690/TI_ARM_Tiva_Projects_EECS_690_Sp16/Source/timers.c",line 638,column 
    1820                    ;* --------------------------------------------------------------------------*
    1821 0000030a           ||$C$L25||:    
    1822                            .dwpsn  file "H:/EECS_690/TI_ARM_Tiva_Projects_EECS_690_Sp16/Source/timers.c",line 652,column 
    1823 0000030a A805              ADD       A1, SP, #20           ; [DPU_3_PIPE] |652|  ; [ORIG 16-BIT INS]
    1824                    $C$DW$170       .dwtag  DW_TAG_TI_branch
    1825                            .dwattr $C$DW$170, DW_AT_low_pc(0x00)
    1826                            .dwattr $C$DW$170, DW_AT_name("prvSampleTimeNow")
    1827                            .dwattr $C$DW$170, DW_AT_TI_call
    1828 0000030c FF8FF7FF          BL        prvSampleTimeNow      ; [DPU_3_PIPE] |652|  ; [KEEP 32-BIT INS]
    1829                            ; CALL OCCURS {prvSampleTimeNow }  ; [] |652| 
    1830 00000310 9007              STR       A1, [SP, #28]         ; [DPU_3_PIPE] |652|  ; [ORIG 16-BIT INS]
    1831                            .dwpsn  file "H:/EECS_690/TI_ARM_Tiva_Projects_EECS_690_Sp16/Source/timers.c",line 654,column 
    1832 00000312 E031              B         ||$C$L29||            ; [DPU_3_PIPE] |654|  ; [ORIG 16-BIT INS]
    1833                            ; BRANCH OCCURS {||$C$L29||}     ; [] |654| 
    1834                    ;* --------------------------------------------------------------------------*
    1835 00000314           ||$C$L26||:    
    1836                            .dwpsn  file "H:/EECS_690/TI_ARM_Tiva_Projects_EECS_690_Sp16/Source/timers.c",line 662,column 
    1837 00000314 9904              LDR       A2, [SP, #16]         ; [DPU_3_PIPE] |662|  ; [ORIG 16-BIT INS]
    1838 00000316 9802              LDR       A1, [SP, #8]          ; [DPU_3_PIPE] |662|  ; [ORIG 16-BIT INS]
    1839 00000318 9A07              LDR       A3, [SP, #28]         ; [DPU_3_PIPE] |662|  ; [ORIG 16-BIT INS]
    1840 0000031a 9B02              LDR       A4, [SP, #8]          ; [DPU_3_PIPE] |662|  ; [ORIG 16-BIT INS]
    1841 0000031c 6989              LDR       A2, [A2, #24]         ; [DPU_3_PIPE] |662|  ; [ORIG 16-BIT INS]
    1842 0000031e 1809              ADDS      A2, A2, A1            ; [DPU_3_PIPE] |662|  ; [ORIG 16-BIT INS]
    1843 00000320 9804              LDR       A1, [SP, #16]         ; [DPU_3_PIPE] |662|  ; [ORIG 16-BIT INS]
    1844                    $C$DW$171       .dwtag  DW_TAG_TI_branch
    1845                            .dwattr $C$DW$171, DW_AT_low_pc(0x00)
    1846                            .dwattr $C$DW$171, DW_AT_name("prvInsertTimerInActiveList")
    1847                            .dwattr $C$DW$171, DW_AT_TI_call
    1848 00000322 FFA5F7FF          BL        prvInsertTimerInActiveList ; [DPU_3_PIPE] |662|  ; [KEEP 32-BIT INS]
    1849                            ; CALL OCCURS {prvInsertTimerInActiveList }  ; [] |662| 
    1850 00000326 2801              CMP       A1, #1                ; [DPU_3_PIPE] |662|  ; [ORIG 16-BIT INS]
    1851 00000328 D142              BNE       ||$C$L30||            ; [DPU_3_PIPE] |662|  ; [ORIG 16-BIT INS]
    1852                            ; BRANCHCC OCCURS {||$C$L30||}   ; [] |662| 
    1853                    ;* --------------------------------------------------------------------------*
    1854                            .dwpsn  file "H:/EECS_690/TI_ARM_Tiva_Projects_EECS_690_Sp16/Source/timers.c",line 666,column 
    1855 0000032a 9804              LDR       A1, [SP, #16]         ; [DPU_3_PIPE] |666|  ; [ORIG 16-BIT INS]
    1856 0000032c 6A40              LDR       A1, [A1, #36]         ; [DPU_3_PIPE] |666|  ; [ORIG 16-BIT INS]
    1857 0000032e 4601              MOV       A2, A1                ; [DPU_3_PIPE] |666|  ; [ORIG 16-BIT INS]
    1858 00000330 9804              LDR       A1, [SP, #16]         ; [DPU_3_PIPE] |666|  ; [ORIG 16-BIT INS]
    1859                    $C$DW$172       .dwtag  DW_TAG_TI_branch
    1860                            .dwattr $C$DW$172, DW_AT_low_pc(0x00)
    1861                            .dwattr $C$DW$172, DW_AT_TI_call
TI ARM Assembler PC v5.2.2 Thu Mar 10 16:27:06 2016

Tools Copyright (c) 1996-2015 Texas Instruments Incorporated
timers.asm                                                           PAGE   35

    1862                            .dwattr $C$DW$172, DW_AT_TI_indirect
    1863 00000332 4788              BLX       A2                    ; [DPU_3_PIPE] |666|  ; [ORIG 16-BIT INS]
    1864                            ; CALL OCCURS {}                 ; [] |666| 
    1865                            .dwpsn  file "H:/EECS_690/TI_ARM_Tiva_Projects_EECS_690_Sp16/Source/timers.c",line 669,column 
    1866 00000334 9804              LDR       A1, [SP, #16]         ; [DPU_3_PIPE] |669|  ; [ORIG 16-BIT INS]
    1867 00000336 69C0              LDR       A1, [A1, #28]         ; [DPU_3_PIPE] |669|  ; [ORIG 16-BIT INS]
    1868 00000338 2801              CMP       A1, #1                ; [DPU_3_PIPE] |669|  ; [ORIG 16-BIT INS]
    1869 0000033a D139              BNE       ||$C$L30||            ; [DPU_3_PIPE] |669|  ; [ORIG 16-BIT INS]
    1870                            ; BRANCHCC OCCURS {||$C$L30||}   ; [] |669| 
    1871                    ;* --------------------------------------------------------------------------*
    1872                            .dwpsn  file "H:/EECS_690/TI_ARM_Tiva_Projects_EECS_690_Sp16/Source/timers.c",line 671,column 
    1873 0000033c 2000              MOVS      A1, #0                ; [DPU_3_PIPE] |671|  ; [ORIG 16-BIT INS]
    1874 0000033e 9000              STR       A1, [SP, #0]          ; [DPU_3_PIPE] |671|  ; [ORIG 16-BIT INS]
    1875 00000340 9904              LDR       A2, [SP, #16]         ; [DPU_3_PIPE] |671|  ; [ORIG 16-BIT INS]
    1876 00000342 9802              LDR       A1, [SP, #8]          ; [DPU_3_PIPE] |671|  ; [ORIG 16-BIT INS]
    1877 00000344 698A              LDR       A3, [A2, #24]         ; [DPU_3_PIPE] |671|  ; [ORIG 16-BIT INS]
    1878 00000346 1812              ADDS      A3, A3, A1            ; [DPU_3_PIPE] |671|  ; [ORIG 16-BIT INS]
    1879 00000348 9804              LDR       A1, [SP, #16]         ; [DPU_3_PIPE] |671|  ; [ORIG 16-BIT INS]
    1880 0000034a 2300              MOVS      A4, #0                ; [DPU_3_PIPE] |671|  ; [ORIG 16-BIT INS]
    1881 0000034c 2100              MOVS      A2, #0                ; [DPU_3_PIPE] |671|  ; [ORIG 16-BIT INS]
    1882                    $C$DW$173       .dwtag  DW_TAG_TI_branch
    1883                            .dwattr $C$DW$173, DW_AT_low_pc(0x00)
    1884                            .dwattr $C$DW$173, DW_AT_name("xTimerGenericCommand")
    1885                            .dwattr $C$DW$173, DW_AT_TI_call
    1886 0000034e FE9EF7FF          BL        xTimerGenericCommand  ; [DPU_3_PIPE] |671|  ; [KEEP 32-BIT INS]
    1887                            ; CALL OCCURS {xTimerGenericCommand }  ; [] |671| 
    1888 00000352 9006              STR       A1, [SP, #24]         ; [DPU_3_PIPE] |671|  ; [ORIG 16-BIT INS]
    1889                            .dwpsn  file "H:/EECS_690/TI_ARM_Tiva_Projects_EECS_690_Sp16/Source/timers.c",line 673,column 
    1890                            .dwpsn  file "H:/EECS_690/TI_ARM_Tiva_Projects_EECS_690_Sp16/Source/timers.c",line 674,column 
    1891 00000354 E02C              B         ||$C$L30||            ; [DPU_3_PIPE] |674|  ; [ORIG 16-BIT INS]
    1892                            ; BRANCH OCCURS {||$C$L30||}     ; [] |674| 
    1893                    ;* --------------------------------------------------------------------------*
    1894                    ;* --------------------------------------------------------------------------*
    1895 00000356           ||$C$L27||:    
    1896                            .dwpsn  file "H:/EECS_690/TI_ARM_Tiva_Projects_EECS_690_Sp16/Source/timers.c",line 694,column 
    1897 00000356 9802              LDR       A1, [SP, #8]          ; [DPU_3_PIPE] |694|  ; [ORIG 16-BIT INS]
    1898 00000358 9904              LDR       A2, [SP, #16]         ; [DPU_3_PIPE] |694|  ; [ORIG 16-BIT INS]
    1899 0000035a 6188              STR       A1, [A2, #24]         ; [DPU_3_PIPE] |694|  ; [ORIG 16-BIT INS]
    1900                            .dwpsn  file "H:/EECS_690/TI_ARM_Tiva_Projects_EECS_690_Sp16/Source/timers.c",line 703,column 
    1901 0000035c 9904              LDR       A2, [SP, #16]         ; [DPU_3_PIPE] |703|  ; [ORIG 16-BIT INS]
    1902 0000035e 9807              LDR       A1, [SP, #28]         ; [DPU_3_PIPE] |703|  ; [ORIG 16-BIT INS]
    1903 00000360 9A07              LDR       A3, [SP, #28]         ; [DPU_3_PIPE] |703|  ; [ORIG 16-BIT INS]
    1904 00000362 9B07              LDR       A4, [SP, #28]         ; [DPU_3_PIPE] |703|  ; [ORIG 16-BIT INS]
    1905 00000364 6989              LDR       A2, [A2, #24]         ; [DPU_3_PIPE] |703|  ; [ORIG 16-BIT INS]
    1906 00000366 1809              ADDS      A2, A2, A1            ; [DPU_3_PIPE] |703|  ; [ORIG 16-BIT INS]
    1907 00000368 9804              LDR       A1, [SP, #16]         ; [DPU_3_PIPE] |703|  ; [ORIG 16-BIT INS]
    1908                    $C$DW$174       .dwtag  DW_TAG_TI_branch
    1909                            .dwattr $C$DW$174, DW_AT_low_pc(0x00)
    1910                            .dwattr $C$DW$174, DW_AT_name("prvInsertTimerInActiveList")
    1911                            .dwattr $C$DW$174, DW_AT_TI_call
    1912 0000036a FF81F7FF          BL        prvInsertTimerInActiveList ; [DPU_3_PIPE] |703|  ; [KEEP 32-BIT INS]
    1913                            ; CALL OCCURS {prvInsertTimerInActiveList }  ; [] |703| 
    1914                            .dwpsn  file "H:/EECS_690/TI_ARM_Tiva_Projects_EECS_690_Sp16/Source/timers.c",line 704,column 
    1915 0000036e E01F              B         ||$C$L30||            ; [DPU_3_PIPE] |704|  ; [ORIG 16-BIT INS]
    1916                            ; BRANCH OCCURS {||$C$L30||}     ; [] |704| 
TI ARM Assembler PC v5.2.2 Thu Mar 10 16:27:06 2016

Tools Copyright (c) 1996-2015 Texas Instruments Incorporated
timers.asm                                                           PAGE   36

    1917                    ;* --------------------------------------------------------------------------*
    1918 00000370           ||$C$L28||:    
    1919                            .dwpsn  file "H:/EECS_690/TI_ARM_Tiva_Projects_EECS_690_Sp16/Source/timers.c",line 709,column 
    1920 00000370 9804              LDR       A1, [SP, #16]         ; [DPU_3_PIPE] |709|  ; [ORIG 16-BIT INS]
    1921                    $C$DW$175       .dwtag  DW_TAG_TI_branch
    1922                            .dwattr $C$DW$175, DW_AT_low_pc(0x00)
    1923                            .dwattr $C$DW$175, DW_AT_name("vPortFree")
    1924                            .dwattr $C$DW$175, DW_AT_TI_call
    1925 00000372 FFFEF7FF!         BL        vPortFree             ; [DPU_3_PIPE] |709|  ; [KEEP 32-BIT INS]
    1926                            ; CALL OCCURS {vPortFree }       ; [] |709| 
    1927                            .dwpsn  file "H:/EECS_690/TI_ARM_Tiva_Projects_EECS_690_Sp16/Source/timers.c",line 710,column 
    1928 00000376 E01B              B         ||$C$L30||            ; [DPU_3_PIPE] |710|  ; [ORIG 16-BIT INS]
    1929                            ; BRANCH OCCURS {||$C$L30||}     ; [] |710| 
    1930                    ;* --------------------------------------------------------------------------*
    1931                    ;* --------------------------------------------------------------------------*
    1932 00000378           ||$C$L29||:    
    1933                            .dwpsn  file "H:/EECS_690/TI_ARM_Tiva_Projects_EECS_690_Sp16/Source/timers.c",line 654,column 
    1934 00000378 9801              LDR       A1, [SP, #4]          ; [DPU_3_PIPE] |654|  ; [ORIG 16-BIT INS]
    1935 0000037a 2809              CMP       A1, #9                ; [DPU_3_PIPE] |654|  ; [ORIG 16-BIT INS]
    1936 0000037c D818              BHI       ||$C$L30||            ; [DPU_3_PIPE] |654|  ; [ORIG 16-BIT INS]
    1937                            ; BRANCHCC OCCURS {||$C$L30||}   ; [] |654| 
    1938                    ;* --------------------------------------------------------------------------*
    1939 0000037e A102              ADR       A2, ||$C$SW1||        ; [DPU_3_PIPE] |654|  ; [ORIG 16-BIT INS]
    1940 00000380 0020F851          LDR       A1, [A2, +A1, LSL #2] ; [DPU_3_PIPE] |654|  ; [KEEP 32-BIT INS]
    1941 00000384 4687              MOV       PC, A1                ; [DPU_3_PIPE] |654|  ; [ORIG 16-BIT INS]
    1942                            ; BRANCH OCCURS                  ; [] |654| 
    1943 00000388 00000000! ||$C$SW1||:     .word   ||$C$L26||      ; 0
    1944 0000038c 00000000!         .word   ||$C$L26||      ; 1
    1945 00000390 00000000!         .word   ||$C$L26||      ; 2
    1946 00000394 00000000!         .word   ||$C$L30||      ; 3
    1947 00000398 00000000!         .word   ||$C$L27||      ; 4
    1948 0000039c 00000000!         .word   ||$C$L28||      ; 5
    1949 000003a0 00000000!         .word   ||$C$L26||      ; 6
    1950 000003a4 00000000!         .word   ||$C$L26||      ; 7
    1951 000003a8 00000000!         .word   ||$C$L30||      ; 8
    1952 000003ac 00000000!         .word   ||$C$L27||      ; 9
    1953                    ;* --------------------------------------------------------------------------*
    1954                    ;*   BEGIN LOOP ||$C$L30||
    1955                    ;* --------------------------------------------------------------------------*
    1956 000003b0           ||$C$L30||:    
    1957                            .dwpsn  file "H:/EECS_690/TI_ARM_Tiva_Projects_EECS_690_Sp16/Source/timers.c",line 602,column 
    1958 000003b0 485C              LDR       A1, $C$CON7           ; [DPU_3_PIPE] |602|  ; [ORIG 16-BIT INS]
    1959 000003b2 6800              LDR       A1, [A1, #0]          ; [DPU_3_PIPE] |602|  ; [ORIG 16-BIT INS]
    1960 000003b4 A901              ADD       A2, SP, #4            ; [DPU_3_PIPE] |602|  ; [ORIG 16-BIT INS]
    1961 000003b6 2200              MOVS      A3, #0                ; [DPU_3_PIPE] |602|  ; [ORIG 16-BIT INS]
    1962 000003b8 2300              MOVS      A4, #0                ; [DPU_3_PIPE] |602|  ; [ORIG 16-BIT INS]
    1963                    $C$DW$176       .dwtag  DW_TAG_TI_branch
    1964                            .dwattr $C$DW$176, DW_AT_low_pc(0x00)
    1965                            .dwattr $C$DW$176, DW_AT_name("xQueueGenericReceive")
    1966                            .dwattr $C$DW$176, DW_AT_TI_call
    1967 000003ba FFFEF7FF!         BL        xQueueGenericReceive  ; [DPU_3_PIPE] |602|  ; [KEEP 32-BIT INS]
    1968                            ; CALL OCCURS {xQueueGenericReceive }  ; [] |602| 
    1969 000003be 2800              CMP       A1, #0                ; [DPU_3_PIPE] |602|  ; [ORIG 16-BIT INS]
    1970 000003c0 D194              BNE       ||$C$L23||            ; [DPU_3_PIPE] |602|  ; [ORIG 16-BIT INS]
    1971                            ; BRANCHCC OCCURS {||$C$L23||}   ; [] |602| 
TI ARM Assembler PC v5.2.2 Thu Mar 10 16:27:06 2016

Tools Copyright (c) 1996-2015 Texas Instruments Incorporated
timers.asm                                                           PAGE   37

    1972                    ;* --------------------------------------------------------------------------*
    1973                            .dwpsn  file "H:/EECS_690/TI_ARM_Tiva_Projects_EECS_690_Sp16/Source/timers.c",line 718,column 
    1974 000003c2 B009              ADD       SP, SP, #36           ; [DPU_3_PIPE]  ; [ORIG 16-BIT INS]
    1975                            .dwcfi  cfa_offset, 4
    1976                    $C$DW$177       .dwtag  DW_TAG_TI_branch
    1977                            .dwattr $C$DW$177, DW_AT_low_pc(0x00)
    1978                            .dwattr $C$DW$177, DW_AT_TI_return
    1979 000003c4 BD00              POP       {PC}                  ; [DPU_3_PIPE]  ; [ORIG 16-BIT INS]
    1980                            .dwcfi  cfa_offset, 0
    1981                            ; BRANCH OCCURS                  ; [] 
    1982                            .dwattr $C$DW$163, DW_AT_TI_end_file("H:/EECS_690/TI_ARM_Tiva_Projects_EECS_690_Sp16/Source/ti
    1983                            .dwattr $C$DW$163, DW_AT_TI_end_line(0x2ce)
    1984                            .dwattr $C$DW$163, DW_AT_TI_end_column(0x01)
    1985                            .dwendentry
    1986                            .dwendtag $C$DW$163
    1987                    
    1988                    ;******************************************************************************
    1989                    ;* CONSTANT TABLE                                                             *
    1990                    ;******************************************************************************
    1991 000003c6                   .sect   ".text"
    1992                            .align  4
    1993 000003c6 000046C0! ||$C$CON4||:    .bits   pxOverflowTimerList,32
         000003ca 00000000 
    1994 000003cc                   .sect   ".text"
    1995                            .clink
    1996                            .thumbfunc prvSwitchTimerLists
    1997 000003cc                   .thumb
    1998                    
    1999                    $C$DW$178       .dwtag  DW_TAG_subprogram, DW_AT_name("prvSwitchTimerLists")
    2000                            .dwattr $C$DW$178, DW_AT_low_pc(prvSwitchTimerLists)
    2001                            .dwattr $C$DW$178, DW_AT_high_pc(0x00)
    2002                            .dwattr $C$DW$178, DW_AT_TI_symbol_name("prvSwitchTimerLists")
    2003                            .dwattr $C$DW$178, DW_AT_TI_begin_file("H:/EECS_690/TI_ARM_Tiva_Projects_EECS_690_Sp16/Source/
    2004                            .dwattr $C$DW$178, DW_AT_TI_begin_line(0x2d1)
    2005                            .dwattr $C$DW$178, DW_AT_TI_begin_column(0x0d)
    2006                            .dwattr $C$DW$178, DW_AT_decl_file("H:/EECS_690/TI_ARM_Tiva_Projects_EECS_690_Sp16/Source/time
    2007                            .dwattr $C$DW$178, DW_AT_decl_line(0x2d1)
    2008                            .dwattr $C$DW$178, DW_AT_decl_column(0x0d)
    2009                            .dwattr $C$DW$178, DW_AT_TI_max_frame_size(0x20)
    2010                            .dwpsn  file "H:/EECS_690/TI_ARM_Tiva_Projects_EECS_690_Sp16/Source/timers.c",line 722,column 
    2011                    
    2012                            .dwfde $C$DW$CIE, prvSwitchTimerLists
    2013                    
    2014                    ;*****************************************************************************
    2015                    ;* FUNCTION NAME: prvSwitchTimerLists                                        *
    2016                    ;*                                                                           *
    2017                    ;*   Regs Modified     : A1,A2,A3,A4,V9,SP,LR,SR,D0,D0_hi,D1,D1_hi,D2,D2_hi, *
    2018                    ;*                           D3,D3_hi,D4,D4_hi,D5,D5_hi,D6,D6_hi,D7,D7_hi,   *
    2019                    ;*                           FPEXC,FPSCR                                     *
    2020                    ;*   Regs Used         : A1,A2,A3,A4,V9,SP,LR,SR,D0,D0_hi,D1,D1_hi,D2,D2_hi, *
    2021                    ;*                           D3,D3_hi,D4,D4_hi,D5,D5_hi,D6,D6_hi,D7,D7_hi,   *
    2022                    ;*                           FPEXC,FPSCR                                     *
    2023                    ;*   Local Frame Size  : 4 Args + 20 Auto + 4 Save = 28 byte                 *
    2024                    ;*****************************************************************************
    2025 000003cc           prvSwitchTimerLists:
TI ARM Assembler PC v5.2.2 Thu Mar 10 16:27:06 2016

Tools Copyright (c) 1996-2015 Texas Instruments Incorporated
timers.asm                                                           PAGE   38

    2026                    ;* --------------------------------------------------------------------------*
    2027                            .dwcfi  cfa_offset, 0
    2028 000003cc B500              PUSH      {LR}                  ; [DPU_3_PIPE]  ; [ORIG 16-BIT INS]
    2029                            .dwcfi  cfa_offset, 4
    2030                            .dwcfi  save_reg_to_mem, 14, -4
    2031 000003ce 0D1CF1AD          SUB       SP, SP, #28           ; [DPU_3_PIPE]  ; [KEEP 32-BIT INS]
    2032                            .dwcfi  cfa_offset, 32
    2033                    $C$DW$179       .dwtag  DW_TAG_variable, DW_AT_name("xNextExpireTime")
    2034                            .dwattr $C$DW$179, DW_AT_TI_symbol_name("xNextExpireTime")
    2035                            .dwattr $C$DW$179, DW_AT_type(*$C$DW$T$38)
    2036                            .dwattr $C$DW$179, DW_AT_location[DW_OP_breg13 4]
    2037                    $C$DW$180       .dwtag  DW_TAG_variable, DW_AT_name("xReloadTime")
    2038                            .dwattr $C$DW$180, DW_AT_TI_symbol_name("xReloadTime")
    2039                            .dwattr $C$DW$180, DW_AT_type(*$C$DW$T$38)
    2040                            .dwattr $C$DW$180, DW_AT_location[DW_OP_breg13 8]
    2041                    $C$DW$181       .dwtag  DW_TAG_variable, DW_AT_name("pxTemp")
    2042                            .dwattr $C$DW$181, DW_AT_TI_symbol_name("pxTemp")
    2043                            .dwattr $C$DW$181, DW_AT_type(*$C$DW$T$102)
    2044                            .dwattr $C$DW$181, DW_AT_location[DW_OP_breg13 12]
    2045                    $C$DW$182       .dwtag  DW_TAG_variable, DW_AT_name("pxTimer")
    2046                            .dwattr $C$DW$182, DW_AT_TI_symbol_name("pxTimer")
    2047                            .dwattr $C$DW$182, DW_AT_type(*$C$DW$T$47)
    2048                            .dwattr $C$DW$182, DW_AT_location[DW_OP_breg13 16]
    2049                    $C$DW$183       .dwtag  DW_TAG_variable, DW_AT_name("xResult")
    2050                            .dwattr $C$DW$183, DW_AT_TI_symbol_name("xResult")
    2051                            .dwattr $C$DW$183, DW_AT_type(*$C$DW$T$50)
    2052                            .dwattr $C$DW$183, DW_AT_location[DW_OP_breg13 20]
    2053                            .dwpsn  file "H:/EECS_690/TI_ARM_Tiva_Projects_EECS_690_Sp16/Source/timers.c",line 732,column 
    2054 000003d2 E035              B         ||$C$L33||            ; [DPU_3_PIPE] |732|  ; [ORIG 16-BIT INS]
    2055                            ; BRANCH OCCURS {||$C$L33||}     ; [] |732| 
    2056                    ;* --------------------------------------------------------------------------*
    2057 000003d4           ||$C$L31||:    
    2058                            .dwpsn  file "H:/EECS_690/TI_ARM_Tiva_Projects_EECS_690_Sp16/Source/timers.c",line 734,column 
    2059 000003d4 4854              LDR       A1, $C$CON8           ; [DPU_3_PIPE] |734|  ; [ORIG 16-BIT INS]
    2060 000003d6 6800              LDR       A1, [A1, #0]          ; [DPU_3_PIPE] |734|  ; [ORIG 16-BIT INS]
    2061 000003d8 68C0              LDR       A1, [A1, #12]         ; [DPU_3_PIPE] |734|  ; [ORIG 16-BIT INS]
    2062 000003da 6800              LDR       A1, [A1, #0]          ; [DPU_3_PIPE] |734|  ; [ORIG 16-BIT INS]
    2063 000003dc 9001              STR       A1, [SP, #4]          ; [DPU_3_PIPE] |734|  ; [ORIG 16-BIT INS]
    2064                            .dwpsn  file "H:/EECS_690/TI_ARM_Tiva_Projects_EECS_690_Sp16/Source/timers.c",line 737,column 
    2065 000003de 4852              LDR       A1, $C$CON8           ; [DPU_3_PIPE] |737|  ; [ORIG 16-BIT INS]
    2066 000003e0 6800              LDR       A1, [A1, #0]          ; [DPU_3_PIPE] |737|  ; [ORIG 16-BIT INS]
    2067 000003e2 68C0              LDR       A1, [A1, #12]         ; [DPU_3_PIPE] |737|  ; [ORIG 16-BIT INS]
    2068 000003e4 68C0              LDR       A1, [A1, #12]         ; [DPU_3_PIPE] |737|  ; [ORIG 16-BIT INS]
    2069 000003e6 9004              STR       A1, [SP, #16]         ; [DPU_3_PIPE] |737|  ; [ORIG 16-BIT INS]
    2070                            .dwpsn  file "H:/EECS_690/TI_ARM_Tiva_Projects_EECS_690_Sp16/Source/timers.c",line 738,column 
    2071 000003e8 9804              LDR       A1, [SP, #16]         ; [DPU_3_PIPE] |738|  ; [ORIG 16-BIT INS]
    2072 000003ea 1D00              ADDS      A1, A1, #4            ; [DPU_3_PIPE] |738|  ; [ORIG 16-BIT INS]
    2073                    $C$DW$184       .dwtag  DW_TAG_TI_branch
    2074                            .dwattr $C$DW$184, DW_AT_low_pc(0x00)
    2075                            .dwattr $C$DW$184, DW_AT_name("uxListRemove")
    2076                            .dwattr $C$DW$184, DW_AT_TI_call
    2077 000003ec FFFEF7FF!         BL        uxListRemove          ; [DPU_3_PIPE] |738|  ; [KEEP 32-BIT INS]
    2078                            ; CALL OCCURS {uxListRemove }    ; [] |738| 
    2079                            .dwpsn  file "H:/EECS_690/TI_ARM_Tiva_Projects_EECS_690_Sp16/Source/timers.c",line 744,column 
    2080 000003f0 9804              LDR       A1, [SP, #16]         ; [DPU_3_PIPE] |744|  ; [ORIG 16-BIT INS]
TI ARM Assembler PC v5.2.2 Thu Mar 10 16:27:06 2016

Tools Copyright (c) 1996-2015 Texas Instruments Incorporated
timers.asm                                                           PAGE   39

    2081 000003f2 6A40              LDR       A1, [A1, #36]         ; [DPU_3_PIPE] |744|  ; [ORIG 16-BIT INS]
    2082 000003f4 4601              MOV       A2, A1                ; [DPU_3_PIPE] |744|  ; [ORIG 16-BIT INS]
    2083 000003f6 9804              LDR       A1, [SP, #16]         ; [DPU_3_PIPE] |744|  ; [ORIG 16-BIT INS]
    2084                    $C$DW$185       .dwtag  DW_TAG_TI_branch
    2085                            .dwattr $C$DW$185, DW_AT_low_pc(0x00)
    2086                            .dwattr $C$DW$185, DW_AT_TI_call
    2087                            .dwattr $C$DW$185, DW_AT_TI_indirect
    2088 000003f8 4788              BLX       A2                    ; [DPU_3_PIPE] |744|  ; [ORIG 16-BIT INS]
    2089                            ; CALL OCCURS {}                 ; [] |744| 
    2090                            .dwpsn  file "H:/EECS_690/TI_ARM_Tiva_Projects_EECS_690_Sp16/Source/timers.c",line 746,column 
    2091 000003fa 9804              LDR       A1, [SP, #16]         ; [DPU_3_PIPE] |746|  ; [ORIG 16-BIT INS]
    2092 000003fc 69C0              LDR       A1, [A1, #28]         ; [DPU_3_PIPE] |746|  ; [ORIG 16-BIT INS]
    2093 000003fe 2801              CMP       A1, #1                ; [DPU_3_PIPE] |746|  ; [ORIG 16-BIT INS]
    2094 00000400 D11E              BNE       ||$C$L33||            ; [DPU_3_PIPE] |746|  ; [ORIG 16-BIT INS]
    2095                            ; BRANCHCC OCCURS {||$C$L33||}   ; [] |746| 
    2096                    ;* --------------------------------------------------------------------------*
    2097                            .dwpsn  file "H:/EECS_690/TI_ARM_Tiva_Projects_EECS_690_Sp16/Source/timers.c",line 754,column 
    2098 00000402 9804              LDR       A1, [SP, #16]         ; [DPU_3_PIPE] |754|  ; [ORIG 16-BIT INS]
    2099 00000404 9901              LDR       A2, [SP, #4]          ; [DPU_3_PIPE] |754|  ; [ORIG 16-BIT INS]
    2100 00000406 6980              LDR       A1, [A1, #24]         ; [DPU_3_PIPE] |754|  ; [ORIG 16-BIT INS]
    2101 00000408 1840              ADDS      A1, A1, A2            ; [DPU_3_PIPE] |754|  ; [ORIG 16-BIT INS]
    2102 0000040a 9002              STR       A1, [SP, #8]          ; [DPU_3_PIPE] |754|  ; [ORIG 16-BIT INS]
    2103                            .dwpsn  file "H:/EECS_690/TI_ARM_Tiva_Projects_EECS_690_Sp16/Source/timers.c",line 755,column 
    2104 0000040c 9801              LDR       A1, [SP, #4]          ; [DPU_3_PIPE] |755|  ; [ORIG 16-BIT INS]
    2105 0000040e 9902              LDR       A2, [SP, #8]          ; [DPU_3_PIPE] |755|  ; [ORIG 16-BIT INS]
    2106 00000410 4288              CMP       A1, A2                ; [DPU_3_PIPE] |755|  ; [ORIG 16-BIT INS]
    2107 00000412 D20C              BCS       ||$C$L32||            ; [DPU_3_PIPE] |755|  ; [ORIG 16-BIT INS]
    2108                            ; BRANCHCC OCCURS {||$C$L32||}   ; [] |755| 
    2109                    ;* --------------------------------------------------------------------------*
    2110                            .dwpsn  file "H:/EECS_690/TI_ARM_Tiva_Projects_EECS_690_Sp16/Source/timers.c",line 757,column 
    2111 00000414 9802              LDR       A1, [SP, #8]          ; [DPU_3_PIPE] |757|  ; [ORIG 16-BIT INS]
    2112 00000416 9904              LDR       A2, [SP, #16]         ; [DPU_3_PIPE] |757|  ; [ORIG 16-BIT INS]
    2113 00000418 6048              STR       A1, [A2, #4]          ; [DPU_3_PIPE] |757|  ; [ORIG 16-BIT INS]
    2114                            .dwpsn  file "H:/EECS_690/TI_ARM_Tiva_Projects_EECS_690_Sp16/Source/timers.c",line 758,column 
    2115 0000041a 9804              LDR       A1, [SP, #16]         ; [DPU_3_PIPE] |758|  ; [ORIG 16-BIT INS]
    2116 0000041c 9904              LDR       A2, [SP, #16]         ; [DPU_3_PIPE] |758|  ; [ORIG 16-BIT INS]
    2117 0000041e 6108              STR       A1, [A2, #16]         ; [DPU_3_PIPE] |758|  ; [ORIG 16-BIT INS]
    2118                            .dwpsn  file "H:/EECS_690/TI_ARM_Tiva_Projects_EECS_690_Sp16/Source/timers.c",line 759,column 
    2119 00000420 4841              LDR       A1, $C$CON8           ; [DPU_3_PIPE] |759|  ; [ORIG 16-BIT INS]
    2120 00000422 9904              LDR       A2, [SP, #16]         ; [DPU_3_PIPE] |759|  ; [ORIG 16-BIT INS]
    2121 00000424 6800              LDR       A1, [A1, #0]          ; [DPU_3_PIPE] |759|  ; [ORIG 16-BIT INS]
    2122 00000426 1D09              ADDS      A2, A2, #4            ; [DPU_3_PIPE] |759|  ; [ORIG 16-BIT INS]
    2123                    $C$DW$186       .dwtag  DW_TAG_TI_branch
    2124                            .dwattr $C$DW$186, DW_AT_low_pc(0x00)
    2125                            .dwattr $C$DW$186, DW_AT_name("vListInsert")
    2126                            .dwattr $C$DW$186, DW_AT_TI_call
    2127 00000428 FFFEF7FF!         BL        vListInsert           ; [DPU_3_PIPE] |759|  ; [KEEP 32-BIT INS]
    2128                            ; CALL OCCURS {vListInsert }     ; [] |759| 
    2129                            .dwpsn  file "H:/EECS_690/TI_ARM_Tiva_Projects_EECS_690_Sp16/Source/timers.c",line 760,column 
    2130 0000042c E008              B         ||$C$L33||            ; [DPU_3_PIPE] |760|  ; [ORIG 16-BIT INS]
    2131                            ; BRANCH OCCURS {||$C$L33||}     ; [] |760| 
    2132                    ;* --------------------------------------------------------------------------*
    2133 0000042e           ||$C$L32||:    
    2134                            .dwpsn  file "H:/EECS_690/TI_ARM_Tiva_Projects_EECS_690_Sp16/Source/timers.c",line 763,column 
    2135 0000042e 2000              MOVS      A1, #0                ; [DPU_3_PIPE] |763|  ; [ORIG 16-BIT INS]
TI ARM Assembler PC v5.2.2 Thu Mar 10 16:27:06 2016

Tools Copyright (c) 1996-2015 Texas Instruments Incorporated
timers.asm                                                           PAGE   40

    2136 00000430 9000              STR       A1, [SP, #0]          ; [DPU_3_PIPE] |763|  ; [ORIG 16-BIT INS]
    2137 00000432 9A01              LDR       A3, [SP, #4]          ; [DPU_3_PIPE] |763|  ; [ORIG 16-BIT INS]
    2138 00000434 9804              LDR       A1, [SP, #16]         ; [DPU_3_PIPE] |763|  ; [ORIG 16-BIT INS]
    2139 00000436 2100              MOVS      A2, #0                ; [DPU_3_PIPE] |763|  ; [ORIG 16-BIT INS]
    2140 00000438 2300              MOVS      A4, #0                ; [DPU_3_PIPE] |763|  ; [ORIG 16-BIT INS]
    2141                    $C$DW$187       .dwtag  DW_TAG_TI_branch
    2142                            .dwattr $C$DW$187, DW_AT_low_pc(0x00)
    2143                            .dwattr $C$DW$187, DW_AT_name("xTimerGenericCommand")
    2144                            .dwattr $C$DW$187, DW_AT_TI_call
    2145 0000043a FE28F7FF          BL        xTimerGenericCommand  ; [DPU_3_PIPE] |763|  ; [KEEP 32-BIT INS]
    2146                            ; CALL OCCURS {xTimerGenericCommand }  ; [] |763| 
    2147 0000043e 9005              STR       A1, [SP, #20]         ; [DPU_3_PIPE] |763|  ; [ORIG 16-BIT INS]
    2148                            .dwpsn  file "H:/EECS_690/TI_ARM_Tiva_Projects_EECS_690_Sp16/Source/timers.c",line 765,column 
    2149                            .dwpsn  file "H:/EECS_690/TI_ARM_Tiva_Projects_EECS_690_Sp16/Source/timers.c",line 767,column 
    2150                    ;* --------------------------------------------------------------------------*
    2151                    ;*   BEGIN LOOP ||$C$L33||
    2152                    ;* --------------------------------------------------------------------------*
    2153 00000440           ||$C$L33||:    
    2154                            .dwpsn  file "H:/EECS_690/TI_ARM_Tiva_Projects_EECS_690_Sp16/Source/timers.c",line 732,column 
    2155 00000440 4839              LDR       A1, $C$CON8           ; [DPU_3_PIPE] |732|  ; [ORIG 16-BIT INS]
    2156 00000442 6800              LDR       A1, [A1, #0]          ; [DPU_3_PIPE] |732|  ; [ORIG 16-BIT INS]
    2157 00000444 6800              LDR       A1, [A1, #0]          ; [DPU_3_PIPE] |732|  ; [ORIG 16-BIT INS]
    2158 00000446 2100              MOVS      A2, #0                ; [DPU_3_PIPE] |732|  ; [ORIG 16-BIT INS]
    2159 00000448 B900              CBNZ      A1, ||$C$L34||        ; []  ; [ORIG 16-BIT INS]
    2160                            ; BRANCHCC OCCURS {||$C$L34||}   ; [] |732| 
    2161                    ;* --------------------------------------------------------------------------*
    2162 0000044a 2101              MOVS      A2, #1                ; [DPU_3_PIPE] |732|  ; [ORIG 16-BIT INS]
    2163                    ;* --------------------------------------------------------------------------*
    2164 0000044c           ||$C$L34||:    
    2165 0000044c 2900              CMP       A2, #0                ; [DPU_3_PIPE] |732|  ; [ORIG 16-BIT INS]
    2166 0000044e D0C1              BEQ       ||$C$L31||            ; [DPU_3_PIPE] |732|  ; [ORIG 16-BIT INS]
    2167                            ; BRANCHCC OCCURS {||$C$L31||}   ; [] |732| 
    2168                    ;* --------------------------------------------------------------------------*
    2169                            .dwpsn  file "H:/EECS_690/TI_ARM_Tiva_Projects_EECS_690_Sp16/Source/timers.c",line 774,column 
    2170 00000450 4835              LDR       A1, $C$CON8           ; [DPU_3_PIPE] |774|  ; [ORIG 16-BIT INS]
    2171 00000452 6800              LDR       A1, [A1, #0]          ; [DPU_3_PIPE] |774|  ; [ORIG 16-BIT INS]
    2172 00000454 9003              STR       A1, [SP, #12]         ; [DPU_3_PIPE] |774|  ; [ORIG 16-BIT INS]
    2173                            .dwpsn  file "H:/EECS_690/TI_ARM_Tiva_Projects_EECS_690_Sp16/Source/timers.c",line 775,column 
    2174 00000456 4835              LDR       A1, $C$CON9           ; [DPU_3_PIPE] |775|  ; [ORIG 16-BIT INS]
    2175 00000458 4933              LDR       A2, $C$CON8           ; [DPU_3_PIPE] |775|  ; [ORIG 16-BIT INS]
    2176 0000045a 6800              LDR       A1, [A1, #0]          ; [DPU_3_PIPE] |775|  ; [ORIG 16-BIT INS]
    2177 0000045c 6008              STR       A1, [A2, #0]          ; [DPU_3_PIPE] |775|  ; [ORIG 16-BIT INS]
    2178                            .dwpsn  file "H:/EECS_690/TI_ARM_Tiva_Projects_EECS_690_Sp16/Source/timers.c",line 776,column 
    2179 0000045e 4933              LDR       A2, $C$CON9           ; [DPU_3_PIPE] |776|  ; [ORIG 16-BIT INS]
    2180 00000460 9803              LDR       A1, [SP, #12]         ; [DPU_3_PIPE] |776|  ; [ORIG 16-BIT INS]
    2181 00000462 6008              STR       A1, [A2, #0]          ; [DPU_3_PIPE] |776|  ; [ORIG 16-BIT INS]
    2182                            .dwpsn  file "H:/EECS_690/TI_ARM_Tiva_Projects_EECS_690_Sp16/Source/timers.c",line 777,column 
    2183 00000464 B007              ADD       SP, SP, #28           ; [DPU_3_PIPE]  ; [ORIG 16-BIT INS]
    2184                            .dwcfi  cfa_offset, 4
    2185                    $C$DW$188       .dwtag  DW_TAG_TI_branch
    2186                            .dwattr $C$DW$188, DW_AT_low_pc(0x00)
    2187                            .dwattr $C$DW$188, DW_AT_TI_return
    2188 00000466 BD00              POP       {PC}                  ; [DPU_3_PIPE]  ; [ORIG 16-BIT INS]
    2189                            .dwcfi  cfa_offset, 0
    2190                            ; BRANCH OCCURS                  ; [] 
TI ARM Assembler PC v5.2.2 Thu Mar 10 16:27:06 2016

Tools Copyright (c) 1996-2015 Texas Instruments Incorporated
timers.asm                                                           PAGE   41

    2191                            .dwattr $C$DW$178, DW_AT_TI_end_file("H:/EECS_690/TI_ARM_Tiva_Projects_EECS_690_Sp16/Source/ti
    2192                            .dwattr $C$DW$178, DW_AT_TI_end_line(0x309)
    2193                            .dwattr $C$DW$178, DW_AT_TI_end_column(0x01)
    2194                            .dwendentry
    2195                            .dwendtag $C$DW$178
    2196                    
    2197                    ;******************************************************************************
    2198                    ;* CONSTANT TABLE                                                             *
    2199                    ;******************************************************************************
    2200 00000468                   .sect   ".text"
    2201                            .align  4
    2202 00000468 E000ED04  ||$C$CON5||:    .bits   -536810236,32
    2203 0000046c                   .sect   ".text"
    2204                            .clink
    2205                            .thumbfunc prvCheckForValidListAndQueue
    2206 0000046c                   .thumb
    2207                    
    2208                    $C$DW$189       .dwtag  DW_TAG_subprogram, DW_AT_name("prvCheckForValidListAndQueue")
    2209                            .dwattr $C$DW$189, DW_AT_low_pc(prvCheckForValidListAndQueue)
    2210                            .dwattr $C$DW$189, DW_AT_high_pc(0x00)
    2211                            .dwattr $C$DW$189, DW_AT_TI_symbol_name("prvCheckForValidListAndQueue")
    2212                            .dwattr $C$DW$189, DW_AT_TI_begin_file("H:/EECS_690/TI_ARM_Tiva_Projects_EECS_690_Sp16/Source/
    2213                            .dwattr $C$DW$189, DW_AT_TI_begin_line(0x30c)
    2214                            .dwattr $C$DW$189, DW_AT_TI_begin_column(0x0d)
    2215                            .dwattr $C$DW$189, DW_AT_decl_file("H:/EECS_690/TI_ARM_Tiva_Projects_EECS_690_Sp16/Source/time
    2216                            .dwattr $C$DW$189, DW_AT_decl_line(0x30c)
    2217                            .dwattr $C$DW$189, DW_AT_decl_column(0x0d)
    2218                            .dwattr $C$DW$189, DW_AT_TI_max_frame_size(0x08)
    2219                            .dwpsn  file "H:/EECS_690/TI_ARM_Tiva_Projects_EECS_690_Sp16/Source/timers.c",line 781,column 
    2220                    
    2221                            .dwfde $C$DW$CIE, prvCheckForValidListAndQueue
    2222                    
    2223                    ;*****************************************************************************
    2224                    ;* FUNCTION NAME: prvCheckForValidListAndQueue                               *
    2225                    ;*                                                                           *
    2226                    ;*   Regs Modified     : A1,A2,A3,A4,V9,SP,LR,SR,D0,D0_hi,D1,D1_hi,D2,D2_hi, *
    2227                    ;*                           D3,D3_hi,D4,D4_hi,D5,D5_hi,D6,D6_hi,D7,D7_hi,   *
    2228                    ;*                           FPEXC,FPSCR                                     *
    2229                    ;*   Regs Used         : A1,A2,A3,A4,V9,SP,LR,SR,D0,D0_hi,D1,D1_hi,D2,D2_hi, *
    2230                    ;*                           D3,D3_hi,D4,D4_hi,D5,D5_hi,D6,D6_hi,D7,D7_hi,   *
    2231                    ;*                           FPEXC,FPSCR                                     *
    2232                    ;*   Local Frame Size  : 0 Args + 0 Auto + 4 Save = 4 byte                   *
    2233                    ;*****************************************************************************
    2234 0000046c           prvCheckForValidListAndQueue:
    2235                    ;* --------------------------------------------------------------------------*
    2236                            .dwcfi  cfa_offset, 0
    2237 0000046c B508              PUSH      {A4, LR}              ; [DPU_3_PIPE]  ; [ORIG 16-BIT INS]
    2238                            .dwcfi  cfa_offset, 8
    2239                            .dwcfi  save_reg_to_mem, 14, -4
    2240                            .dwcfi  save_reg_to_mem, 3, -8
    2241                            .dwpsn  file "H:/EECS_690/TI_ARM_Tiva_Projects_EECS_690_Sp16/Source/timers.c",line 785,column 
    2242                    $C$DW$190       .dwtag  DW_TAG_TI_branch
    2243                            .dwattr $C$DW$190, DW_AT_low_pc(0x00)
    2244                            .dwattr $C$DW$190, DW_AT_name("vPortEnterCritical")
    2245                            .dwattr $C$DW$190, DW_AT_TI_call
TI ARM Assembler PC v5.2.2 Thu Mar 10 16:27:06 2016

Tools Copyright (c) 1996-2015 Texas Instruments Incorporated
timers.asm                                                           PAGE   42

    2246 0000046e FFFEF7FF!         BL        vPortEnterCritical    ; [DPU_3_PIPE] |785|  ; [KEEP 32-BIT INS]
    2247                            ; CALL OCCURS {vPortEnterCritical }  ; [] |785| 
    2248                            .dwpsn  file "H:/EECS_690/TI_ARM_Tiva_Projects_EECS_690_Sp16/Source/timers.c",line 787,column 
    2249 00000472 482C              LDR       A1, $C$CON7           ; [DPU_3_PIPE] |787|  ; [ORIG 16-BIT INS]
    2250 00000474 6800              LDR       A1, [A1, #0]          ; [DPU_3_PIPE] |787|  ; [ORIG 16-BIT INS]
    2251 00000476 B9D8              CBNZ      A1, ||$C$L35||        ; []  ; [ORIG 16-BIT INS]
    2252                            ; BRANCHCC OCCURS {||$C$L35||}   ; [] |787| 
    2253                    ;* --------------------------------------------------------------------------*
    2254                            .dwpsn  file "H:/EECS_690/TI_ARM_Tiva_Projects_EECS_690_Sp16/Source/timers.c",line 789,column 
    2255 00000478 482D              LDR       A1, $C$CON10          ; [DPU_3_PIPE] |789|  ; [ORIG 16-BIT INS]
    2256                    $C$DW$191       .dwtag  DW_TAG_TI_branch
    2257                            .dwattr $C$DW$191, DW_AT_low_pc(0x00)
    2258                            .dwattr $C$DW$191, DW_AT_name("vListInitialise")
    2259                            .dwattr $C$DW$191, DW_AT_TI_call
    2260 0000047a FFFEF7FF!         BL        vListInitialise       ; [DPU_3_PIPE] |789|  ; [KEEP 32-BIT INS]
    2261                            ; CALL OCCURS {vListInitialise }  ; [] |789| 
    2262                            .dwpsn  file "H:/EECS_690/TI_ARM_Tiva_Projects_EECS_690_Sp16/Source/timers.c",line 790,column 
    2263 0000047e 482D              LDR       A1, $C$CON11          ; [DPU_3_PIPE] |790|  ; [ORIG 16-BIT INS]
    2264                    $C$DW$192       .dwtag  DW_TAG_TI_branch
    2265                            .dwattr $C$DW$192, DW_AT_low_pc(0x00)
    2266                            .dwattr $C$DW$192, DW_AT_name("vListInitialise")
    2267                            .dwattr $C$DW$192, DW_AT_TI_call
    2268 00000480 FFFEF7FF!         BL        vListInitialise       ; [DPU_3_PIPE] |790|  ; [KEEP 32-BIT INS]
    2269                            ; CALL OCCURS {vListInitialise }  ; [] |790| 
    2270                            .dwpsn  file "H:/EECS_690/TI_ARM_Tiva_Projects_EECS_690_Sp16/Source/timers.c",line 791,column 
    2271 00000484 482A              LDR       A1, $C$CON10          ; [DPU_3_PIPE] |791|  ; [ORIG 16-BIT INS]
    2272 00000486 4928              LDR       A2, $C$CON8           ; [DPU_3_PIPE] |791|  ; [ORIG 16-BIT INS]
    2273 00000488 6008              STR       A1, [A2, #0]          ; [DPU_3_PIPE] |791|  ; [ORIG 16-BIT INS]
    2274                            .dwpsn  file "H:/EECS_690/TI_ARM_Tiva_Projects_EECS_690_Sp16/Source/timers.c",line 792,column 
    2275 0000048a 482A              LDR       A1, $C$CON11          ; [DPU_3_PIPE] |792|  ; [ORIG 16-BIT INS]
    2276 0000048c 4927              LDR       A2, $C$CON9           ; [DPU_3_PIPE] |792|  ; [ORIG 16-BIT INS]
    2277 0000048e 6008              STR       A1, [A2, #0]          ; [DPU_3_PIPE] |792|  ; [ORIG 16-BIT INS]
    2278                            .dwpsn  file "H:/EECS_690/TI_ARM_Tiva_Projects_EECS_690_Sp16/Source/timers.c",line 793,column 
    2279 00000490 2200              MOVS      A3, #0                ; [DPU_3_PIPE] |793|  ; [ORIG 16-BIT INS]
    2280 00000492 2005              MOVS      A1, #5                ; [DPU_3_PIPE] |793|  ; [ORIG 16-BIT INS]
    2281 00000494 210C              MOVS      A2, #12               ; [DPU_3_PIPE] |793|  ; [ORIG 16-BIT INS]
    2282                    $C$DW$193       .dwtag  DW_TAG_TI_branch
    2283                            .dwattr $C$DW$193, DW_AT_low_pc(0x00)
    2284                            .dwattr $C$DW$193, DW_AT_name("xQueueGenericCreate")
    2285                            .dwattr $C$DW$193, DW_AT_TI_call
    2286 00000496 FFFEF7FF!         BL        xQueueGenericCreate   ; [DPU_3_PIPE] |793|  ; [KEEP 32-BIT INS]
    2287                            ; CALL OCCURS {xQueueGenericCreate }  ; [] |793| 
    2288 0000049a 4922              LDR       A2, $C$CON7           ; [DPU_3_PIPE] |793|  ; [ORIG 16-BIT INS]
    2289 0000049c 6008              STR       A1, [A2, #0]          ; [DPU_3_PIPE] |793|  ; [ORIG 16-BIT INS]
    2290                            .dwpsn  file "H:/EECS_690/TI_ARM_Tiva_Projects_EECS_690_Sp16/Source/timers.c",line 798,column 
    2291 0000049e 4821              LDR       A1, $C$CON7           ; [DPU_3_PIPE] |798|  ; [ORIG 16-BIT INS]
    2292 000004a0 6800              LDR       A1, [A1, #0]          ; [DPU_3_PIPE] |798|  ; [ORIG 16-BIT INS]
    2293 000004a2 B128              CBZ       A1, ||$C$L35||        ; []  ; [ORIG 16-BIT INS]
    2294                            ; BRANCHCC OCCURS {||$C$L35||}   ; [] |798| 
    2295                    ;* --------------------------------------------------------------------------*
    2296                            .dwpsn  file "H:/EECS_690/TI_ARM_Tiva_Projects_EECS_690_Sp16/Source/timers.c",line 800,column 
    2297 000004a4 481F              LDR       A1, $C$CON7           ; [DPU_3_PIPE] |800|  ; [ORIG 16-BIT INS]
    2298 000004a6 6800              LDR       A1, [A1, #0]          ; [DPU_3_PIPE] |800|  ; [ORIG 16-BIT INS]
    2299 000004a8 A11C              ADR       A2, $C$SL2            ; [DPU_3_PIPE] |800|  ; [ORIG 16-BIT INS]
    2300                    $C$DW$194       .dwtag  DW_TAG_TI_branch
TI ARM Assembler PC v5.2.2 Thu Mar 10 16:27:06 2016

Tools Copyright (c) 1996-2015 Texas Instruments Incorporated
timers.asm                                                           PAGE   43

    2301                            .dwattr $C$DW$194, DW_AT_low_pc(0x00)
    2302                            .dwattr $C$DW$194, DW_AT_name("vQueueAddToRegistry")
    2303                            .dwattr $C$DW$194, DW_AT_TI_call
    2304 000004aa FFFEF7FF!         BL        vQueueAddToRegistry   ; [DPU_3_PIPE] |800|  ; [KEEP 32-BIT INS]
    2305                            ; CALL OCCURS {vQueueAddToRegistry }  ; [] |800| 
    2306                            .dwpsn  file "H:/EECS_690/TI_ARM_Tiva_Projects_EECS_690_Sp16/Source/timers.c",line 801,column 
    2307 000004ae E7FF              B         ||$C$L35||            ; [DPU_3_PIPE] |801|  ; [ORIG 16-BIT INS]
    2308                            ; BRANCH OCCURS {||$C$L35||}     ; [] |801| 
    2309                    ;* --------------------------------------------------------------------------*
    2310                    ;* --------------------------------------------------------------------------*
    2311 000004b0           ||$C$L35||:    
    2312                            .dwpsn  file "H:/EECS_690/TI_ARM_Tiva_Projects_EECS_690_Sp16/Source/timers.c",line 814,column 
    2313                    $C$DW$195       .dwtag  DW_TAG_TI_branch
    2314                            .dwattr $C$DW$195, DW_AT_low_pc(0x00)
    2315                            .dwattr $C$DW$195, DW_AT_name("vPortExitCritical")
    2316                            .dwattr $C$DW$195, DW_AT_TI_call
    2317 000004b0 FFFEF7FF!         BL        vPortExitCritical     ; [DPU_3_PIPE] |814|  ; [KEEP 32-BIT INS]
    2318                            ; CALL OCCURS {vPortExitCritical }  ; [] |814| 
    2319                            .dwpsn  file "H:/EECS_690/TI_ARM_Tiva_Projects_EECS_690_Sp16/Source/timers.c",line 815,column 
    2320                    $C$DW$196       .dwtag  DW_TAG_TI_branch
    2321                            .dwattr $C$DW$196, DW_AT_low_pc(0x00)
    2322                            .dwattr $C$DW$196, DW_AT_TI_return
    2323 000004b4 BD08              POP       {A4, PC}              ; [DPU_3_PIPE]  ; [ORIG 16-BIT INS]
    2324                            .dwcfi  cfa_offset, 0
    2325                            ; BRANCH OCCURS                  ; [] 
    2326                            .dwattr $C$DW$189, DW_AT_TI_end_file("H:/EECS_690/TI_ARM_Tiva_Projects_EECS_690_Sp16/Source/ti
    2327                            .dwattr $C$DW$189, DW_AT_TI_end_line(0x32f)
    2328                            .dwattr $C$DW$189, DW_AT_TI_end_column(0x01)
    2329                            .dwendentry
    2330                            .dwendtag $C$DW$189
    2331                    
    2332                    ;******************************************************************************
    2333                    ;* CONSTANT TABLE                                                             *
    2334                    ;******************************************************************************
    2335 000004b6                   .sect   ".text"
    2336                            .align  4
    2337 000004b6 000046C0! ||$C$CON6||:    .bits   xLastTime$1,32
         000004ba 00000000 
    2338 000004bc                   .sect   ".text"
    2339                            .clink
    2340                            .thumbfunc xTimerIsTimerActive
    2341 000004bc                   .thumb
    2342                            .global xTimerIsTimerActive
    2343                    
    2344                    $C$DW$197       .dwtag  DW_TAG_subprogram, DW_AT_name("xTimerIsTimerActive")
    2345                            .dwattr $C$DW$197, DW_AT_low_pc(xTimerIsTimerActive)
    2346                            .dwattr $C$DW$197, DW_AT_high_pc(0x00)
    2347                            .dwattr $C$DW$197, DW_AT_TI_symbol_name("xTimerIsTimerActive")
    2348                            .dwattr $C$DW$197, DW_AT_external
    2349                            .dwattr $C$DW$197, DW_AT_type(*$C$DW$T$50)
    2350                            .dwattr $C$DW$197, DW_AT_TI_begin_file("H:/EECS_690/TI_ARM_Tiva_Projects_EECS_690_Sp16/Source/
    2351                            .dwattr $C$DW$197, DW_AT_TI_begin_line(0x332)
    2352                            .dwattr $C$DW$197, DW_AT_TI_begin_column(0x0c)
    2353                            .dwattr $C$DW$197, DW_AT_decl_file("H:/EECS_690/TI_ARM_Tiva_Projects_EECS_690_Sp16/Source/time
    2354                            .dwattr $C$DW$197, DW_AT_decl_line(0x332)
TI ARM Assembler PC v5.2.2 Thu Mar 10 16:27:06 2016

Tools Copyright (c) 1996-2015 Texas Instruments Incorporated
timers.asm                                                           PAGE   44

    2355                            .dwattr $C$DW$197, DW_AT_decl_column(0x0c)
    2356                            .dwattr $C$DW$197, DW_AT_TI_max_frame_size(0x10)
    2357                            .dwpsn  file "H:/EECS_690/TI_ARM_Tiva_Projects_EECS_690_Sp16/Source/timers.c",line 819,column 
    2358                    
    2359                            .dwfde $C$DW$CIE, xTimerIsTimerActive
    2360                    $C$DW$198       .dwtag  DW_TAG_formal_parameter, DW_AT_name("xTimer")
    2361                            .dwattr $C$DW$198, DW_AT_TI_symbol_name("xTimer")
    2362                            .dwattr $C$DW$198, DW_AT_type(*$C$DW$T$40)
    2363                            .dwattr $C$DW$198, DW_AT_location[DW_OP_reg0]
    2364                    
    2365                    ;*****************************************************************************
    2366                    ;* FUNCTION NAME: xTimerIsTimerActive                                        *
    2367                    ;*                                                                           *
    2368                    ;*   Regs Modified     : A1,A2,A3,A4,V9,SP,LR,SR,D0,D0_hi,D1,D1_hi,D2,D2_hi, *
    2369                    ;*                           D3,D3_hi,D4,D4_hi,D5,D5_hi,D6,D6_hi,D7,D7_hi,   *
    2370                    ;*                           FPEXC,FPSCR                                     *
    2371                    ;*   Regs Used         : A1,A2,A3,A4,V9,SP,LR,SR,D0,D0_hi,D1,D1_hi,D2,D2_hi, *
    2372                    ;*                           D3,D3_hi,D4,D4_hi,D5,D5_hi,D6,D6_hi,D7,D7_hi,   *
    2373                    ;*                           FPEXC,FPSCR                                     *
    2374                    ;*   Local Frame Size  : 0 Args + 12 Auto + 4 Save = 16 byte                 *
    2375                    ;*****************************************************************************
    2376 000004bc           xTimerIsTimerActive:
    2377                    ;* --------------------------------------------------------------------------*
    2378                            .dwcfi  cfa_offset, 0
    2379 000004bc B50E              PUSH      {A2, A3, A4, LR}      ; [DPU_3_PIPE]  ; [ORIG 16-BIT INS]
    2380                            .dwcfi  cfa_offset, 16
    2381                            .dwcfi  save_reg_to_mem, 14, -4
    2382                            .dwcfi  save_reg_to_mem, 3, -8
    2383                            .dwcfi  save_reg_to_mem, 2, -12
    2384                            .dwcfi  save_reg_to_mem, 1, -16
    2385                    $C$DW$199       .dwtag  DW_TAG_variable, DW_AT_name("xTimer")
    2386                            .dwattr $C$DW$199, DW_AT_TI_symbol_name("xTimer")
    2387                            .dwattr $C$DW$199, DW_AT_type(*$C$DW$T$40)
    2388                            .dwattr $C$DW$199, DW_AT_location[DW_OP_breg13 0]
    2389                    $C$DW$200       .dwtag  DW_TAG_variable, DW_AT_name("xTimerIsInActiveList")
    2390                            .dwattr $C$DW$200, DW_AT_TI_symbol_name("xTimerIsInActiveList")
    2391                            .dwattr $C$DW$200, DW_AT_type(*$C$DW$T$50)
    2392                            .dwattr $C$DW$200, DW_AT_location[DW_OP_breg13 4]
    2393                    $C$DW$201       .dwtag  DW_TAG_variable, DW_AT_name("pxTimer")
    2394                            .dwattr $C$DW$201, DW_AT_TI_symbol_name("pxTimer")
    2395                            .dwattr $C$DW$201, DW_AT_type(*$C$DW$T$47)
    2396                            .dwattr $C$DW$201, DW_AT_location[DW_OP_breg13 8]
    2397 000004be 9000              STR       A1, [SP, #0]          ; [DPU_3_PIPE] |819|  ; [ORIG 16-BIT INS]
    2398                            .dwpsn  file "H:/EECS_690/TI_ARM_Tiva_Projects_EECS_690_Sp16/Source/timers.c",line 821,column 
    2399 000004c0 9800              LDR       A1, [SP, #0]          ; [DPU_3_PIPE] |821|  ; [ORIG 16-BIT INS]
    2400 000004c2 9002              STR       A1, [SP, #8]          ; [DPU_3_PIPE] |821|  ; [ORIG 16-BIT INS]
    2401                            .dwpsn  file "H:/EECS_690/TI_ARM_Tiva_Projects_EECS_690_Sp16/Source/timers.c",line 826,column 
    2402                    $C$DW$202       .dwtag  DW_TAG_TI_branch
    2403                            .dwattr $C$DW$202, DW_AT_low_pc(0x00)
    2404                            .dwattr $C$DW$202, DW_AT_name("vPortEnterCritical")
    2405                            .dwattr $C$DW$202, DW_AT_TI_call
    2406 000004c4 FFFEF7FF!         BL        vPortEnterCritical    ; [DPU_3_PIPE] |826|  ; [KEEP 32-BIT INS]
    2407                            ; CALL OCCURS {vPortEnterCritical }  ; [] |826| 
    2408                            .dwpsn  file "H:/EECS_690/TI_ARM_Tiva_Projects_EECS_690_Sp16/Source/timers.c",line 831,column 
    2409 000004c8 9802              LDR       A1, [SP, #8]          ; [DPU_3_PIPE] |831|  ; [ORIG 16-BIT INS]
TI ARM Assembler PC v5.2.2 Thu Mar 10 16:27:06 2016

Tools Copyright (c) 1996-2015 Texas Instruments Incorporated
timers.asm                                                           PAGE   45

    2410 000004ca 6942              LDR       A3, [A1, #20]         ; [DPU_3_PIPE] |831|  ; [ORIG 16-BIT INS]
    2411 000004cc 2300              MOVS      A4, #0                ; [DPU_3_PIPE] |831|  ; [ORIG 16-BIT INS]
    2412 000004ce 2100              MOVS      A2, #0                ; [DPU_3_PIPE] |831|  ; [ORIG 16-BIT INS]
    2413 000004d0 2000              MOVS      A1, #0                ; [DPU_3_PIPE] |831|  ; [ORIG 16-BIT INS]
    2414 000004d2 B902              CBNZ      A3, ||$C$L36||        ; []  ; [ORIG 16-BIT INS]
    2415                            ; BRANCHCC OCCURS {||$C$L36||}   ; [] |831| 
    2416                    ;* --------------------------------------------------------------------------*
    2417 000004d4 2101              MOVS      A2, #1                ; [DPU_3_PIPE] |831|  ; [ORIG 16-BIT INS]
    2418                    ;* --------------------------------------------------------------------------*
    2419 000004d6           ||$C$L36||:    
    2420 000004d6 B101              CBZ       A2, ||$C$L37||        ; []  ; [ORIG 16-BIT INS]
    2421                            ; BRANCHCC OCCURS {||$C$L37||}   ; [] |831| 
    2422                    ;* --------------------------------------------------------------------------*
    2423 000004d8 2001              MOVS      A1, #1                ; [DPU_3_PIPE] |831|  ; [ORIG 16-BIT INS]
    2424                    ;* --------------------------------------------------------------------------*
    2425 000004da           ||$C$L37||:    
    2426 000004da B900              CBNZ      A1, ||$C$L38||        ; []  ; [ORIG 16-BIT INS]
    2427                            ; BRANCHCC OCCURS {||$C$L38||}   ; [] |831| 
    2428                    ;* --------------------------------------------------------------------------*
    2429 000004dc 2301              MOVS      A4, #1                ; [DPU_3_PIPE] |831|  ; [ORIG 16-BIT INS]
    2430                    ;* --------------------------------------------------------------------------*
    2431 000004de           ||$C$L38||:    
    2432 000004de 9301              STR       A4, [SP, #4]          ; [DPU_3_PIPE] |831|  ; [ORIG 16-BIT INS]
    2433                            .dwpsn  file "H:/EECS_690/TI_ARM_Tiva_Projects_EECS_690_Sp16/Source/timers.c",line 833,column 
    2434                    $C$DW$203       .dwtag  DW_TAG_TI_branch
    2435                            .dwattr $C$DW$203, DW_AT_low_pc(0x00)
    2436                            .dwattr $C$DW$203, DW_AT_name("vPortExitCritical")
    2437                            .dwattr $C$DW$203, DW_AT_TI_call
    2438 000004e0 FFFEF7FF!         BL        vPortExitCritical     ; [DPU_3_PIPE] |833|  ; [KEEP 32-BIT INS]
    2439                            ; CALL OCCURS {vPortExitCritical }  ; [] |833| 
    2440                            .dwpsn  file "H:/EECS_690/TI_ARM_Tiva_Projects_EECS_690_Sp16/Source/timers.c",line 835,column 
    2441 000004e4 9801              LDR       A1, [SP, #4]          ; [DPU_3_PIPE] |835|  ; [ORIG 16-BIT INS]
    2442                            .dwpsn  file "H:/EECS_690/TI_ARM_Tiva_Projects_EECS_690_Sp16/Source/timers.c",line 836,column 
    2443                    $C$DW$204       .dwtag  DW_TAG_TI_branch
    2444                            .dwattr $C$DW$204, DW_AT_low_pc(0x00)
    2445                            .dwattr $C$DW$204, DW_AT_TI_return
    2446 000004e6 BD0E              POP       {A2, A3, A4, PC}      ; [DPU_3_PIPE]  ; [ORIG 16-BIT INS]
    2447                            .dwcfi  cfa_offset, 0
    2448                            ; BRANCH OCCURS                  ; [] 
    2449                            .dwattr $C$DW$197, DW_AT_TI_end_file("H:/EECS_690/TI_ARM_Tiva_Projects_EECS_690_Sp16/Source/ti
    2450                            .dwattr $C$DW$197, DW_AT_TI_end_line(0x344)
    2451                            .dwattr $C$DW$197, DW_AT_TI_end_column(0x01)
    2452                            .dwendentry
    2453                            .dwendtag $C$DW$197
    2454                    
    2455 000004e8                   .sect   ".text"
    2456                            .clink
    2457                            .thumbfunc pvTimerGetTimerID
    2458 000004e8                   .thumb
    2459                            .global pvTimerGetTimerID
    2460                    
    2461                    $C$DW$205       .dwtag  DW_TAG_subprogram, DW_AT_name("pvTimerGetTimerID")
    2462                            .dwattr $C$DW$205, DW_AT_low_pc(pvTimerGetTimerID)
    2463                            .dwattr $C$DW$205, DW_AT_high_pc(0x00)
    2464                            .dwattr $C$DW$205, DW_AT_TI_symbol_name("pvTimerGetTimerID")
TI ARM Assembler PC v5.2.2 Thu Mar 10 16:27:06 2016

Tools Copyright (c) 1996-2015 Texas Instruments Incorporated
timers.asm                                                           PAGE   46

    2465                            .dwattr $C$DW$205, DW_AT_external
    2466                            .dwattr $C$DW$205, DW_AT_type(*$C$DW$T$3)
    2467                            .dwattr $C$DW$205, DW_AT_TI_begin_file("H:/EECS_690/TI_ARM_Tiva_Projects_EECS_690_Sp16/Source/
    2468                            .dwattr $C$DW$205, DW_AT_TI_begin_line(0x347)
    2469                            .dwattr $C$DW$205, DW_AT_TI_begin_column(0x07)
    2470                            .dwattr $C$DW$205, DW_AT_decl_file("H:/EECS_690/TI_ARM_Tiva_Projects_EECS_690_Sp16/Source/time
    2471                            .dwattr $C$DW$205, DW_AT_decl_line(0x347)
    2472                            .dwattr $C$DW$205, DW_AT_decl_column(0x07)
    2473                            .dwattr $C$DW$205, DW_AT_TI_max_frame_size(0x10)
    2474                            .dwpsn  file "H:/EECS_690/TI_ARM_Tiva_Projects_EECS_690_Sp16/Source/timers.c",line 840,column 
    2475                    
    2476                            .dwfde $C$DW$CIE, pvTimerGetTimerID
    2477                    $C$DW$206       .dwtag  DW_TAG_formal_parameter, DW_AT_name("xTimer")
    2478                            .dwattr $C$DW$206, DW_AT_TI_symbol_name("xTimer")
    2479                            .dwattr $C$DW$206, DW_AT_type(*$C$DW$T$91)
    2480                            .dwattr $C$DW$206, DW_AT_location[DW_OP_reg0]
    2481                    
    2482                    ;*****************************************************************************
    2483                    ;* FUNCTION NAME: pvTimerGetTimerID                                          *
    2484                    ;*                                                                           *
    2485                    ;*   Regs Modified     : A1,A2,A3,A4,V9,SP,LR,SR,D0,D0_hi,D1,D1_hi,D2,D2_hi, *
    2486                    ;*                           D3,D3_hi,D4,D4_hi,D5,D5_hi,D6,D6_hi,D7,D7_hi,   *
    2487                    ;*                           FPEXC,FPSCR                                     *
    2488                    ;*   Regs Used         : A1,A2,A3,A4,V9,SP,LR,SR,D0,D0_hi,D1,D1_hi,D2,D2_hi, *
    2489                    ;*                           D3,D3_hi,D4,D4_hi,D5,D5_hi,D6,D6_hi,D7,D7_hi,   *
    2490                    ;*                           FPEXC,FPSCR                                     *
    2491                    ;*   Local Frame Size  : 0 Args + 12 Auto + 4 Save = 16 byte                 *
    2492                    ;*****************************************************************************
    2493 000004e8           pvTimerGetTimerID:
    2494                    ;* --------------------------------------------------------------------------*
    2495                            .dwcfi  cfa_offset, 0
    2496 000004e8 B50E              PUSH      {A2, A3, A4, LR}      ; [DPU_3_PIPE]  ; [ORIG 16-BIT INS]
    2497                            .dwcfi  cfa_offset, 16
    2498                            .dwcfi  save_reg_to_mem, 14, -4
    2499                            .dwcfi  save_reg_to_mem, 3, -8
    2500                            .dwcfi  save_reg_to_mem, 2, -12
    2501                            .dwcfi  save_reg_to_mem, 1, -16
    2502                    $C$DW$207       .dwtag  DW_TAG_variable, DW_AT_name("xTimer")
    2503                            .dwattr $C$DW$207, DW_AT_TI_symbol_name("xTimer")
    2504                            .dwattr $C$DW$207, DW_AT_type(*$C$DW$T$91)
    2505                            .dwattr $C$DW$207, DW_AT_location[DW_OP_breg13 0]
    2506                    $C$DW$208       .dwtag  DW_TAG_variable, DW_AT_name("pxTimer")
    2507                            .dwattr $C$DW$208, DW_AT_TI_symbol_name("pxTimer")
    2508                            .dwattr $C$DW$208, DW_AT_type(*$C$DW$T$158)
    2509                            .dwattr $C$DW$208, DW_AT_location[DW_OP_breg13 4]
    2510                    $C$DW$209       .dwtag  DW_TAG_variable, DW_AT_name("pvReturn")
    2511                            .dwattr $C$DW$209, DW_AT_TI_symbol_name("pvReturn")
    2512                            .dwattr $C$DW$209, DW_AT_type(*$C$DW$T$3)
    2513                            .dwattr $C$DW$209, DW_AT_location[DW_OP_breg13 8]
    2514 000004ea 9000              STR       A1, [SP, #0]          ; [DPU_3_PIPE] |840|  ; [ORIG 16-BIT INS]
    2515                            .dwpsn  file "H:/EECS_690/TI_ARM_Tiva_Projects_EECS_690_Sp16/Source/timers.c",line 841,column 
    2516 000004ec 9800              LDR       A1, [SP, #0]          ; [DPU_3_PIPE] |841|  ; [ORIG 16-BIT INS]
    2517 000004ee 9001              STR       A1, [SP, #4]          ; [DPU_3_PIPE] |841|  ; [ORIG 16-BIT INS]
    2518                            .dwpsn  file "H:/EECS_690/TI_ARM_Tiva_Projects_EECS_690_Sp16/Source/timers.c",line 846,column 
    2519                    $C$DW$210       .dwtag  DW_TAG_TI_branch
TI ARM Assembler PC v5.2.2 Thu Mar 10 16:27:06 2016

Tools Copyright (c) 1996-2015 Texas Instruments Incorporated
timers.asm                                                           PAGE   47

    2520                            .dwattr $C$DW$210, DW_AT_low_pc(0x00)
    2521                            .dwattr $C$DW$210, DW_AT_name("vPortEnterCritical")
    2522                            .dwattr $C$DW$210, DW_AT_TI_call
    2523 000004f0 FFFEF7FF!         BL        vPortEnterCritical    ; [DPU_3_PIPE] |846|  ; [KEEP 32-BIT INS]
    2524                            ; CALL OCCURS {vPortEnterCritical }  ; [] |846| 
    2525                            .dwpsn  file "H:/EECS_690/TI_ARM_Tiva_Projects_EECS_690_Sp16/Source/timers.c",line 848,column 
    2526 000004f4 9801              LDR       A1, [SP, #4]          ; [DPU_3_PIPE] |848|  ; [ORIG 16-BIT INS]
    2527 000004f6 6A00              LDR       A1, [A1, #32]         ; [DPU_3_PIPE] |848|  ; [ORIG 16-BIT INS]
    2528 000004f8 9002              STR       A1, [SP, #8]          ; [DPU_3_PIPE] |848|  ; [ORIG 16-BIT INS]
    2529                            .dwpsn  file "H:/EECS_690/TI_ARM_Tiva_Projects_EECS_690_Sp16/Source/timers.c",line 850,column 
    2530                    $C$DW$211       .dwtag  DW_TAG_TI_branch
    2531                            .dwattr $C$DW$211, DW_AT_low_pc(0x00)
    2532                            .dwattr $C$DW$211, DW_AT_name("vPortExitCritical")
    2533                            .dwattr $C$DW$211, DW_AT_TI_call
    2534 000004fa FFFEF7FF!         BL        vPortExitCritical     ; [DPU_3_PIPE] |850|  ; [KEEP 32-BIT INS]
    2535                            ; CALL OCCURS {vPortExitCritical }  ; [] |850| 
    2536                            .dwpsn  file "H:/EECS_690/TI_ARM_Tiva_Projects_EECS_690_Sp16/Source/timers.c",line 852,column 
    2537 000004fe 9802              LDR       A1, [SP, #8]          ; [DPU_3_PIPE] |852|  ; [ORIG 16-BIT INS]
    2538                            .dwpsn  file "H:/EECS_690/TI_ARM_Tiva_Projects_EECS_690_Sp16/Source/timers.c",line 853,column 
    2539                    $C$DW$212       .dwtag  DW_TAG_TI_branch
    2540                            .dwattr $C$DW$212, DW_AT_low_pc(0x00)
    2541                            .dwattr $C$DW$212, DW_AT_TI_return
    2542 00000500 BD0E              POP       {A2, A3, A4, PC}      ; [DPU_3_PIPE]  ; [ORIG 16-BIT INS]
    2543                            .dwcfi  cfa_offset, 0
    2544                            ; BRANCH OCCURS                  ; [] 
    2545                            .dwattr $C$DW$205, DW_AT_TI_end_file("H:/EECS_690/TI_ARM_Tiva_Projects_EECS_690_Sp16/Source/ti
    2546                            .dwattr $C$DW$205, DW_AT_TI_end_line(0x355)
    2547                            .dwattr $C$DW$205, DW_AT_TI_end_column(0x01)
    2548                            .dwendentry
    2549                            .dwendtag $C$DW$205
    2550                    
    2551 00000502                   .sect   ".text"
    2552                            .clink
    2553                            .thumbfunc vTimerSetTimerID
    2554 00000502                   .thumb
    2555                            .global vTimerSetTimerID
    2556                    
    2557                    $C$DW$213       .dwtag  DW_TAG_subprogram, DW_AT_name("vTimerSetTimerID")
    2558                            .dwattr $C$DW$213, DW_AT_low_pc(vTimerSetTimerID)
    2559                            .dwattr $C$DW$213, DW_AT_high_pc(0x00)
    2560                            .dwattr $C$DW$213, DW_AT_TI_symbol_name("vTimerSetTimerID")
    2561                            .dwattr $C$DW$213, DW_AT_external
    2562                            .dwattr $C$DW$213, DW_AT_TI_begin_file("H:/EECS_690/TI_ARM_Tiva_Projects_EECS_690_Sp16/Source/
    2563                            .dwattr $C$DW$213, DW_AT_TI_begin_line(0x358)
    2564                            .dwattr $C$DW$213, DW_AT_TI_begin_column(0x06)
    2565                            .dwattr $C$DW$213, DW_AT_decl_file("H:/EECS_690/TI_ARM_Tiva_Projects_EECS_690_Sp16/Source/time
    2566                            .dwattr $C$DW$213, DW_AT_decl_line(0x358)
    2567                            .dwattr $C$DW$213, DW_AT_decl_column(0x06)
    2568                            .dwattr $C$DW$213, DW_AT_TI_max_frame_size(0x10)
    2569                            .dwpsn  file "H:/EECS_690/TI_ARM_Tiva_Projects_EECS_690_Sp16/Source/timers.c",line 857,column 
    2570                    
    2571                            .dwfde $C$DW$CIE, vTimerSetTimerID
    2572                    $C$DW$214       .dwtag  DW_TAG_formal_parameter, DW_AT_name("xTimer")
    2573                            .dwattr $C$DW$214, DW_AT_TI_symbol_name("xTimer")
    2574                            .dwattr $C$DW$214, DW_AT_type(*$C$DW$T$40)
TI ARM Assembler PC v5.2.2 Thu Mar 10 16:27:06 2016

Tools Copyright (c) 1996-2015 Texas Instruments Incorporated
timers.asm                                                           PAGE   48

    2575                            .dwattr $C$DW$214, DW_AT_location[DW_OP_reg0]
    2576                    $C$DW$215       .dwtag  DW_TAG_formal_parameter, DW_AT_name("pvNewID")
    2577                            .dwattr $C$DW$215, DW_AT_TI_symbol_name("pvNewID")
    2578                            .dwattr $C$DW$215, DW_AT_type(*$C$DW$T$3)
    2579                            .dwattr $C$DW$215, DW_AT_location[DW_OP_reg1]
    2580                    
    2581                    ;*****************************************************************************
    2582                    ;* FUNCTION NAME: vTimerSetTimerID                                           *
    2583                    ;*                                                                           *
    2584                    ;*   Regs Modified     : A1,A2,A3,A4,V9,SP,LR,SR,D0,D0_hi,D1,D1_hi,D2,D2_hi, *
    2585                    ;*                           D3,D3_hi,D4,D4_hi,D5,D5_hi,D6,D6_hi,D7,D7_hi,   *
    2586                    ;*                           FPEXC,FPSCR                                     *
    2587                    ;*   Regs Used         : A1,A2,A3,A4,V9,SP,LR,SR,D0,D0_hi,D1,D1_hi,D2,D2_hi, *
    2588                    ;*                           D3,D3_hi,D4,D4_hi,D5,D5_hi,D6,D6_hi,D7,D7_hi,   *
    2589                    ;*                           FPEXC,FPSCR                                     *
    2590                    ;*   Local Frame Size  : 0 Args + 12 Auto + 4 Save = 16 byte                 *
    2591                    ;*****************************************************************************
    2592 00000502           vTimerSetTimerID:
    2593                    ;* --------------------------------------------------------------------------*
    2594                            .dwcfi  cfa_offset, 0
    2595 00000502 B50E              PUSH      {A2, A3, A4, LR}      ; [DPU_3_PIPE]  ; [ORIG 16-BIT INS]
    2596                            .dwcfi  cfa_offset, 16
    2597                            .dwcfi  save_reg_to_mem, 14, -4
    2598                            .dwcfi  save_reg_to_mem, 3, -8
    2599                            .dwcfi  save_reg_to_mem, 2, -12
    2600                            .dwcfi  save_reg_to_mem, 1, -16
    2601                    $C$DW$216       .dwtag  DW_TAG_variable, DW_AT_name("xTimer")
    2602                            .dwattr $C$DW$216, DW_AT_TI_symbol_name("xTimer")
    2603                            .dwattr $C$DW$216, DW_AT_type(*$C$DW$T$40)
    2604                            .dwattr $C$DW$216, DW_AT_location[DW_OP_breg13 0]
    2605                    $C$DW$217       .dwtag  DW_TAG_variable, DW_AT_name("pvNewID")
    2606                            .dwattr $C$DW$217, DW_AT_TI_symbol_name("pvNewID")
    2607                            .dwattr $C$DW$217, DW_AT_type(*$C$DW$T$3)
    2608                            .dwattr $C$DW$217, DW_AT_location[DW_OP_breg13 4]
    2609                    $C$DW$218       .dwtag  DW_TAG_variable, DW_AT_name("pxTimer")
    2610                            .dwattr $C$DW$218, DW_AT_TI_symbol_name("pxTimer")
    2611                            .dwattr $C$DW$218, DW_AT_type(*$C$DW$T$158)
    2612                            .dwattr $C$DW$218, DW_AT_location[DW_OP_breg13 8]
    2613 00000504 9101              STR       A2, [SP, #4]          ; [DPU_3_PIPE] |857|  ; [ORIG 16-BIT INS]
    2614 00000506 9000              STR       A1, [SP, #0]          ; [DPU_3_PIPE] |857|  ; [ORIG 16-BIT INS]
    2615                            .dwpsn  file "H:/EECS_690/TI_ARM_Tiva_Projects_EECS_690_Sp16/Source/timers.c",line 858,column 
    2616 00000508 9800              LDR       A1, [SP, #0]          ; [DPU_3_PIPE] |858|  ; [ORIG 16-BIT INS]
    2617 0000050a 9002              STR       A1, [SP, #8]          ; [DPU_3_PIPE] |858|  ; [ORIG 16-BIT INS]
    2618                            .dwpsn  file "H:/EECS_690/TI_ARM_Tiva_Projects_EECS_690_Sp16/Source/timers.c",line 862,column 
    2619                    $C$DW$219       .dwtag  DW_TAG_TI_branch
    2620                            .dwattr $C$DW$219, DW_AT_low_pc(0x00)
    2621                            .dwattr $C$DW$219, DW_AT_name("vPortEnterCritical")
    2622                            .dwattr $C$DW$219, DW_AT_TI_call
    2623 0000050c FFFEF7FF!         BL        vPortEnterCritical    ; [DPU_3_PIPE] |862|  ; [KEEP 32-BIT INS]
    2624                            ; CALL OCCURS {vPortEnterCritical }  ; [] |862| 
    2625                            .dwpsn  file "H:/EECS_690/TI_ARM_Tiva_Projects_EECS_690_Sp16/Source/timers.c",line 864,column 
    2626 00000510 9801              LDR       A1, [SP, #4]          ; [DPU_3_PIPE] |864|  ; [ORIG 16-BIT INS]
    2627 00000512 9902              LDR       A2, [SP, #8]          ; [DPU_3_PIPE] |864|  ; [ORIG 16-BIT INS]
    2628 00000514 6208              STR       A1, [A2, #32]         ; [DPU_3_PIPE] |864|  ; [ORIG 16-BIT INS]
    2629                            .dwpsn  file "H:/EECS_690/TI_ARM_Tiva_Projects_EECS_690_Sp16/Source/timers.c",line 866,column 
TI ARM Assembler PC v5.2.2 Thu Mar 10 16:27:06 2016

Tools Copyright (c) 1996-2015 Texas Instruments Incorporated
timers.asm                                                           PAGE   49

    2630                    $C$DW$220       .dwtag  DW_TAG_TI_branch
    2631                            .dwattr $C$DW$220, DW_AT_low_pc(0x00)
    2632                            .dwattr $C$DW$220, DW_AT_name("vPortExitCritical")
    2633                            .dwattr $C$DW$220, DW_AT_TI_call
