TI ARM Assembler PC v5.2.2 Thu Mar 10 16:26:56 2016

Tools Copyright (c) 1996-2015 Texas Instruments Incorporated
Task_Blinky.asm                                                      PAGE    1

       1                    ;******************************************************************************
       2                    ;* TI ARM C/C++ Codegen                                             PC v5.2.2 *
       3                    ;* Date/Time created: Thu Mar 10 16:26:56 2016                                *
       4                    ;******************************************************************************
       5                            .compiler_opts --abi=eabi --arm_vmrs_si_workaround=off --code_state=16 --diag_wrap=off --disab
       6 00000000                   .thumb
       7                    
       8                    $C$DW$CU        .dwtag  DW_TAG_compile_unit
       9                            .dwattr $C$DW$CU, DW_AT_name("../Tasks/Task_Blinky.c")
      10                            .dwattr $C$DW$CU, DW_AT_producer("TI TI ARM C/C++ Codegen PC v5.2.2 Copyright (c) 1996-2015 Te
      11                            .dwattr $C$DW$CU, DW_AT_TI_version(0x01)
      12                            .dwattr $C$DW$CU, DW_AT_comp_dir("H:\EECS_690\TI_ARM_Tiva_Projects_EECS_690_Sp16\FreeRTOS823_3
      13                    
      14                    $C$DW$1 .dwtag  DW_TAG_subprogram, DW_AT_name("SysCtlPeripheralEnable")
      15                            .dwattr $C$DW$1, DW_AT_TI_symbol_name("SysCtlPeripheralEnable")
      16                            .dwattr $C$DW$1, DW_AT_declaration
      17                            .dwattr $C$DW$1, DW_AT_external
      18                            .dwattr $C$DW$1, DW_AT_decl_file("C:/TI_CodeComposer/TivaWare/driverlib/sysctl.h")
      19                            .dwattr $C$DW$1, DW_AT_decl_line(0x24e)
      20                            .dwattr $C$DW$1, DW_AT_decl_column(0x0d)
      21                    $C$DW$2 .dwtag  DW_TAG_formal_parameter
      22                            .dwattr $C$DW$2, DW_AT_type(*$C$DW$T$24)
      23                            .dwendtag $C$DW$1
      24                    
      25                    
      26                    $C$DW$3 .dwtag  DW_TAG_subprogram, DW_AT_name("GPIOPadConfigSet")
      27                            .dwattr $C$DW$3, DW_AT_TI_symbol_name("GPIOPadConfigSet")
      28                            .dwattr $C$DW$3, DW_AT_declaration
      29                            .dwattr $C$DW$3, DW_AT_external
      30                            .dwattr $C$DW$3, DW_AT_decl_file("C:/TI_CodeComposer/TivaWare/driverlib/gpio.h")
      31                            .dwattr $C$DW$3, DW_AT_decl_line(0x93)
      32                            .dwattr $C$DW$3, DW_AT_decl_column(0x0d)
      33                    $C$DW$4 .dwtag  DW_TAG_formal_parameter
      34                            .dwattr $C$DW$4, DW_AT_type(*$C$DW$T$24)
      35                    $C$DW$5 .dwtag  DW_TAG_formal_parameter
      36                            .dwattr $C$DW$5, DW_AT_type(*$C$DW$T$19)
      37                    $C$DW$6 .dwtag  DW_TAG_formal_parameter
      38                            .dwattr $C$DW$6, DW_AT_type(*$C$DW$T$24)
      39                    $C$DW$7 .dwtag  DW_TAG_formal_parameter
      40                            .dwattr $C$DW$7, DW_AT_type(*$C$DW$T$24)
      41                            .dwendtag $C$DW$3
      42                    
      43                    
      44                    $C$DW$8 .dwtag  DW_TAG_subprogram, DW_AT_name("GPIOPinRead")
      45                            .dwattr $C$DW$8, DW_AT_TI_symbol_name("GPIOPinRead")
      46                            .dwattr $C$DW$8, DW_AT_type(*$C$DW$T$52)
      47                            .dwattr $C$DW$8, DW_AT_declaration
      48                            .dwattr $C$DW$8, DW_AT_external
      49                            .dwattr $C$DW$8, DW_AT_decl_file("C:/TI_CodeComposer/TivaWare/driverlib/gpio.h")
      50                            .dwattr $C$DW$8, DW_AT_decl_line(0x9d)
      51                            .dwattr $C$DW$8, DW_AT_decl_column(0x10)
      52                    $C$DW$9 .dwtag  DW_TAG_formal_parameter
      53                            .dwattr $C$DW$9, DW_AT_type(*$C$DW$T$24)
      54                    $C$DW$10        .dwtag  DW_TAG_formal_parameter
      55                            .dwattr $C$DW$10, DW_AT_type(*$C$DW$T$19)
TI ARM Assembler PC v5.2.2 Thu Mar 10 16:26:56 2016

Tools Copyright (c) 1996-2015 Texas Instruments Incorporated
Task_Blinky.asm                                                      PAGE    2

      56                            .dwendtag $C$DW$8
      57                    
      58                    
      59                    $C$DW$11        .dwtag  DW_TAG_subprogram, DW_AT_name("GPIOPinWrite")
      60                            .dwattr $C$DW$11, DW_AT_TI_symbol_name("GPIOPinWrite")
      61                            .dwattr $C$DW$11, DW_AT_declaration
      62                            .dwattr $C$DW$11, DW_AT_external
      63                            .dwattr $C$DW$11, DW_AT_decl_file("C:/TI_CodeComposer/TivaWare/driverlib/gpio.h")
      64                            .dwattr $C$DW$11, DW_AT_decl_line(0x9e)
      65                            .dwattr $C$DW$11, DW_AT_decl_column(0x0d)
      66                    $C$DW$12        .dwtag  DW_TAG_formal_parameter
      67                            .dwattr $C$DW$12, DW_AT_type(*$C$DW$T$24)
      68                    $C$DW$13        .dwtag  DW_TAG_formal_parameter
      69                            .dwattr $C$DW$13, DW_AT_type(*$C$DW$T$19)
      70                    $C$DW$14        .dwtag  DW_TAG_formal_parameter
      71                            .dwattr $C$DW$14, DW_AT_type(*$C$DW$T$19)
      72                            .dwendtag $C$DW$11
      73                    
      74                    
      75                    $C$DW$15        .dwtag  DW_TAG_subprogram, DW_AT_name("GPIOPinTypeGPIOOutput")
      76                            .dwattr $C$DW$15, DW_AT_TI_symbol_name("GPIOPinTypeGPIOOutput")
      77                            .dwattr $C$DW$15, DW_AT_declaration
      78                            .dwattr $C$DW$15, DW_AT_external
      79                            .dwattr $C$DW$15, DW_AT_decl_file("C:/TI_CodeComposer/TivaWare/driverlib/gpio.h")
      80                            .dwattr $C$DW$15, DW_AT_decl_line(0xa7)
      81                            .dwattr $C$DW$15, DW_AT_decl_column(0x0d)
      82                    $C$DW$16        .dwtag  DW_TAG_formal_parameter
      83                            .dwattr $C$DW$16, DW_AT_type(*$C$DW$T$24)
      84                    $C$DW$17        .dwtag  DW_TAG_formal_parameter
      85                            .dwattr $C$DW$17, DW_AT_type(*$C$DW$T$19)
      86                            .dwendtag $C$DW$15
      87                    
      88                    
      89                    $C$DW$18        .dwtag  DW_TAG_subprogram, DW_AT_name("vTaskDelay")
      90                            .dwattr $C$DW$18, DW_AT_TI_symbol_name("vTaskDelay")
      91                            .dwattr $C$DW$18, DW_AT_declaration
      92                            .dwattr $C$DW$18, DW_AT_external
      93                            .dwattr $C$DW$18, DW_AT_decl_file("H:/EECS_690/TI_ARM_Tiva_Projects_EECS_690_Sp16/Source/inclu
      94                            .dwattr $C$DW$18, DW_AT_decl_line(0x22b)
      95                            .dwattr $C$DW$18, DW_AT_decl_column(0x06)
      96                    $C$DW$19        .dwtag  DW_TAG_formal_parameter
      97                            .dwattr $C$DW$19, DW_AT_type(*$C$DW$T$68)
      98                            .dwendtag $C$DW$18
      99                    
     100                    ;       C:\TI_CodeComposer\ccsv6\tools\compiler\ti-cgt-arm_5.2.2\bin\armacpia.exe -@C:\\Users\\callmon
     101 00000000                   .sect   ".text"
     102                            .clink
     103                            .thumbfunc Task_Blink_LED_D1
     104 00000000                   .thumb
     105                            .global Task_Blink_LED_D1
     106                    
     107                    $C$DW$20        .dwtag  DW_TAG_subprogram, DW_AT_name("Task_Blink_LED_D1")
     108                            .dwattr $C$DW$20, DW_AT_low_pc(Task_Blink_LED_D1)
     109                            .dwattr $C$DW$20, DW_AT_high_pc(0x00)
     110                            .dwattr $C$DW$20, DW_AT_TI_symbol_name("Task_Blink_LED_D1")
TI ARM Assembler PC v5.2.2 Thu Mar 10 16:26:56 2016

Tools Copyright (c) 1996-2015 Texas Instruments Incorporated
Task_Blinky.asm                                                      PAGE    3

     111                            .dwattr $C$DW$20, DW_AT_external
     112                            .dwattr $C$DW$20, DW_AT_TI_begin_file("../Tasks/Task_Blinky.c")
     113                            .dwattr $C$DW$20, DW_AT_TI_begin_line(0x1c)
     114                            .dwattr $C$DW$20, DW_AT_TI_begin_column(0x0d)
     115                            .dwattr $C$DW$20, DW_AT_decl_file("../Tasks/Task_Blinky.c")
     116                            .dwattr $C$DW$20, DW_AT_decl_line(0x1c)
     117                            .dwattr $C$DW$20, DW_AT_decl_column(0x0d)
     118                            .dwattr $C$DW$20, DW_AT_TI_max_frame_size(0x10)
     119                            .dwpsn  file "../Tasks/Task_Blinky.c",line 28,column 53,is_stmt,address Task_Blink_LED_D1,isa 
     120                    
     121                            .dwfde $C$DW$CIE, Task_Blink_LED_D1
     122                    $C$DW$21        .dwtag  DW_TAG_formal_parameter, DW_AT_name("pvParameters")
     123                            .dwattr $C$DW$21, DW_AT_TI_symbol_name("pvParameters")
     124                            .dwattr $C$DW$21, DW_AT_type(*$C$DW$T$3)
     125                            .dwattr $C$DW$21, DW_AT_location[DW_OP_reg0]
     126                    
     127                    ;*****************************************************************************
     128                    ;* FUNCTION NAME: Task_Blink_LED_D1                                          *
     129                    ;*                                                                           *
     130                    ;*   Regs Modified     : A1,A2,A3,A4,V9,SP,LR,SR,D0,D0_hi,D1,D1_hi,D2,D2_hi, *
     131                    ;*                           D3,D3_hi,D4,D4_hi,D5,D5_hi,D6,D6_hi,D7,D7_hi,   *
     132                    ;*                           FPEXC,FPSCR                                     *
     133                    ;*   Regs Used         : A1,A2,A3,A4,V9,SP,LR,SR,D0,D0_hi,D1,D1_hi,D2,D2_hi, *
     134                    ;*                           D3,D3_hi,D4,D4_hi,D5,D5_hi,D6,D6_hi,D7,D7_hi,   *
     135                    ;*                           FPEXC,FPSCR                                     *
     136                    ;*   Local Frame Size  : 0 Args + 8 Auto + 4 Save = 12 byte                  *
     137                    ;*****************************************************************************
     138 00000000           Task_Blink_LED_D1:
     139                    ;* --------------------------------------------------------------------------*
     140                            .dwcfi  cfa_offset, 0
     141 00000000 B50E              PUSH      {A2, A3, A4, LR}      ; [DPU_3_PIPE]  ; [ORIG 16-BIT INS]
     142                            .dwcfi  cfa_offset, 16
     143                            .dwcfi  save_reg_to_mem, 14, -4
     144                            .dwcfi  save_reg_to_mem, 3, -8
     145                            .dwcfi  save_reg_to_mem, 2, -12
     146                            .dwcfi  save_reg_to_mem, 1, -16
     147                    $C$DW$22        .dwtag  DW_TAG_variable, DW_AT_name("pvParameters")
     148                            .dwattr $C$DW$22, DW_AT_TI_symbol_name("pvParameters")
     149                            .dwattr $C$DW$22, DW_AT_type(*$C$DW$T$3)
     150                            .dwattr $C$DW$22, DW_AT_location[DW_OP_breg13 0]
     151                    $C$DW$23        .dwtag  DW_TAG_variable, DW_AT_name("LED_Data")
     152                            .dwattr $C$DW$23, DW_AT_TI_symbol_name("LED_Data")
     153                            .dwattr $C$DW$23, DW_AT_type(*$C$DW$T$24)
     154                            .dwattr $C$DW$23, DW_AT_location[DW_OP_breg13 4]
     155 00000002 9000              STR       A1, [SP, #0]          ; [DPU_3_PIPE] |28|  ; [ORIG 16-BIT INS]
     156                            .dwpsn  file "../Tasks/Task_Blinky.c",line 35,column 5,is_stmt,isa 1
     157 00000004 480F              LDR       A1, $C$CON1           ; [DPU_3_PIPE] |35|  ; [ORIG 16-BIT INS]
     158                    $C$DW$24        .dwtag  DW_TAG_TI_branch
     159                            .dwattr $C$DW$24, DW_AT_low_pc(0x00)
     160                            .dwattr $C$DW$24, DW_AT_name("SysCtlPeripheralEnable")
     161                            .dwattr $C$DW$24, DW_AT_TI_call
     162 00000006 FFFEF7FF!         BL        SysCtlPeripheralEnable ; [DPU_3_PIPE] |35|  ; [KEEP 32-BIT INS]
     163                            ; CALL OCCURS {SysCtlPeripheralEnable }  ; [] |35| 
     164                            .dwpsn  file "../Tasks/Task_Blinky.c",line 40,column 5,is_stmt,isa 1
     165 0000000a 480F              LDR       A1, $C$CON2           ; [DPU_3_PIPE] |40|  ; [ORIG 16-BIT INS]
TI ARM Assembler PC v5.2.2 Thu Mar 10 16:26:56 2016

Tools Copyright (c) 1996-2015 Texas Instruments Incorporated
Task_Blinky.asm                                                      PAGE    4

     166 0000000c 2102              MOVS      A2, #2                ; [DPU_3_PIPE] |40|  ; [ORIG 16-BIT INS]
     167                    $C$DW$25        .dwtag  DW_TAG_TI_branch
     168                            .dwattr $C$DW$25, DW_AT_low_pc(0x00)
     169                            .dwattr $C$DW$25, DW_AT_name("GPIOPinTypeGPIOOutput")
     170                            .dwattr $C$DW$25, DW_AT_TI_call
     171 0000000e FFFEF7FF!         BL        GPIOPinTypeGPIOOutput ; [DPU_3_PIPE] |40|  ; [KEEP 32-BIT INS]
     172                            ; CALL OCCURS {GPIOPinTypeGPIOOutput }  ; [] |40| 
     173                            .dwpsn  file "../Tasks/Task_Blinky.c",line 41,column 5,is_stmt,isa 1
     174 00000012 480D              LDR       A1, $C$CON2           ; [DPU_3_PIPE] |41|  ; [ORIG 16-BIT INS]
     175 00000014 2102              MOVS      A2, #2                ; [DPU_3_PIPE] |41|  ; [ORIG 16-BIT INS]
     176 00000016 2201              MOVS      A3, #1                ; [DPU_3_PIPE] |41|  ; [ORIG 16-BIT INS]
     177 00000018 2308              MOVS      A4, #8                ; [DPU_3_PIPE] |41|  ; [ORIG 16-BIT INS]
     178                    $C$DW$26        .dwtag  DW_TAG_TI_branch
     179                            .dwattr $C$DW$26, DW_AT_low_pc(0x00)
     180                            .dwattr $C$DW$26, DW_AT_name("GPIOPadConfigSet")
     181                            .dwattr $C$DW$26, DW_AT_TI_call
     182 0000001a FFFEF7FF!         BL        GPIOPadConfigSet      ; [DPU_3_PIPE] |41|  ; [KEEP 32-BIT INS]
     183                            ; CALL OCCURS {GPIOPadConfigSet }  ; [] |41| 
     184                            .dwpsn  file "../Tasks/Task_Blinky.c",line 44,column 10,is_stmt,isa 1
     185                    ;* --------------------------------------------------------------------------*
     186                    ;*   BEGIN LOOP ||$C$L1||
     187                    ;*
     188                    ;*   Loop source line                : 44
     189                    ;*   Loop closing brace source line  : 53
     190                    ;*   Known Minimum Trip Count        : 1
     191                    ;*   Known Maximum Trip Count        : 4294967295
     192                    ;*   Known Max Trip Count Factor     : 1
     193                    ;* --------------------------------------------------------------------------*
     194 0000001e           ||$C$L1||:    
     195                            .dwpsn  file "../Tasks/Task_Blinky.c",line 48,column 3,is_stmt,isa 1
     196 0000001e 480A              LDR       A1, $C$CON2           ; [DPU_3_PIPE] |48|  ; [ORIG 16-BIT INS]
     197 00000020 2102              MOVS      A2, #2                ; [DPU_3_PIPE] |48|  ; [ORIG 16-BIT INS]
     198                    $C$DW$27        .dwtag  DW_TAG_TI_branch
     199                            .dwattr $C$DW$27, DW_AT_low_pc(0x00)
     200                            .dwattr $C$DW$27, DW_AT_name("GPIOPinRead")
     201                            .dwattr $C$DW$27, DW_AT_TI_call
     202 00000022 FFFEF7FF!         BL        GPIOPinRead           ; [DPU_3_PIPE] |48|  ; [KEEP 32-BIT INS]
     203                            ; CALL OCCURS {GPIOPinRead }     ; [] |48| 
     204 00000026 9001              STR       A1, [SP, #4]          ; [DPU_3_PIPE] |48|  ; [ORIG 16-BIT INS]
     205                            .dwpsn  file "../Tasks/Task_Blinky.c",line 49,column 3,is_stmt,isa 1
     206 00000028 9801              LDR       A1, [SP, #4]          ; [DPU_3_PIPE] |49|  ; [ORIG 16-BIT INS]
     207 0000002a 0002F080          EOR       A1, A1, #2            ; [DPU_3_PIPE] |49|  ; [KEEP 32-BIT INS]
     208 0000002e 9001              STR       A1, [SP, #4]          ; [DPU_3_PIPE] |49|  ; [ORIG 16-BIT INS]
     209                            .dwpsn  file "../Tasks/Task_Blinky.c",line 50,column 9,is_stmt,isa 1
     210 00000030 4805              LDR       A1, $C$CON2           ; [DPU_3_PIPE] |50|  ; [ORIG 16-BIT INS]
     211 00000032 2004F89D          LDRB      A3, [SP, #4]          ; [DPU_3_PIPE] |50|  ; [KEEP 32-BIT INS]
     212 00000036 2102              MOVS      A2, #2                ; [DPU_3_PIPE] |50|  ; [ORIG 16-BIT INS]
     213                    $C$DW$28        .dwtag  DW_TAG_TI_branch
     214                            .dwattr $C$DW$28, DW_AT_low_pc(0x00)
     215                            .dwattr $C$DW$28, DW_AT_name("GPIOPinWrite")
     216                            .dwattr $C$DW$28, DW_AT_TI_call
     217 00000038 FFFEF7FF!         BL        GPIOPinWrite          ; [DPU_3_PIPE] |50|  ; [KEEP 32-BIT INS]
     218                            ; CALL OCCURS {GPIOPinWrite }    ; [] |50| 
     219                            .dwpsn  file "../Tasks/Task_Blinky.c",line 52,column 3,is_stmt,isa 1
     220 0000003c 2032              MOVS      A1, #50               ; [DPU_3_PIPE] |52|  ; [ORIG 16-BIT INS]
TI ARM Assembler PC v5.2.2 Thu Mar 10 16:26:56 2016

Tools Copyright (c) 1996-2015 Texas Instruments Incorporated
Task_Blinky.asm                                                      PAGE    5

     221                    $C$DW$29        .dwtag  DW_TAG_TI_branch
     222                            .dwattr $C$DW$29, DW_AT_low_pc(0x00)
     223                            .dwattr $C$DW$29, DW_AT_name("vTaskDelay")
     224                            .dwattr $C$DW$29, DW_AT_TI_call
     225 0000003e FFFEF7FF!         BL        vTaskDelay            ; [DPU_3_PIPE] |52|  ; [KEEP 32-BIT INS]
     226                            ; CALL OCCURS {vTaskDelay }      ; [] |52| 
     227                            .dwpsn  file "../Tasks/Task_Blinky.c",line 44,column 10,is_stmt,isa 1
     228 00000042 E7EC              B         ||$C$L1||             ; [DPU_3_PIPE] |44|  ; [ORIG 16-BIT INS]
     229                            ; BRANCH OCCURS {||$C$L1||}      ; [] |44| 
     230                    ;* --------------------------------------------------------------------------*
     231                            .dwattr $C$DW$20, DW_AT_TI_end_file("../Tasks/Task_Blinky.c")
     232                            .dwattr $C$DW$20, DW_AT_TI_end_line(0x36)
     233                            .dwattr $C$DW$20, DW_AT_TI_end_column(0x01)
     234                            .dwendentry
     235                            .dwendtag $C$DW$20
     236                    
     237                    ;******************************************************************************
     238                    ;* CONSTANT TABLE                                                             *
     239                    ;******************************************************************************
     240 00000044                   .sect   ".text"
     241                            .align  4
     242 00000044 F000080C  ||$C$CON1||:    .bits   -268433396,32
     243                            .align  4
     244 00000048 40064000  ||$C$CON2||:    .bits   1074151424,32
     245                    ;*****************************************************************************
     246                    ;* UNDEFINED EXTERNAL REFERENCES                                             *
     247                    ;*****************************************************************************
     248                            .global SysCtlPeripheralEnable
     249                            .global GPIOPadConfigSet
     250                            .global GPIOPinRead
     251                            .global GPIOPinWrite
     252                            .global GPIOPinTypeGPIOOutput
     253                            .global vTaskDelay
     254                    
     255                    ;******************************************************************************
     256                    ;* BUILD ATTRIBUTES                                                           *
     257                    ;******************************************************************************
     258                            .battr "aeabi", Tag_File, 1, Tag_ABI_PCS_wchar_t(2)
     259                            .battr "aeabi", Tag_File, 1, Tag_ABI_FP_rounding(0)
     260                            .battr "aeabi", Tag_File, 1, Tag_ABI_FP_denormal(0)
     261                            .battr "aeabi", Tag_File, 1, Tag_ABI_FP_exceptions(0)
     262                            .battr "aeabi", Tag_File, 1, Tag_ABI_FP_number_model(1)
     263                            .battr "aeabi", Tag_File, 1, Tag_ABI_enum_size(1)
     264                            .battr "aeabi", Tag_File, 1, Tag_ABI_optimization_goals(5)
     265                            .battr "aeabi", Tag_File, 1, Tag_ABI_FP_optimization_goals(0)
     266                            .battr "TI", Tag_File, 1, Tag_Bitfield_layout(2)
     267                            .battr "TI", Tag_File, 1, Tag_FP_interface(1)
     268                    
     269                    ;******************************************************************************
     270                    ;* TYPE INFORMATION                                                           *
     271                    ;******************************************************************************
     272                    
     273                    $C$DW$T$49      .dwtag  DW_TAG_enumeration_type
     274                            .dwattr $C$DW$T$49, DW_AT_byte_size(0x01)
     275                    $C$DW$30        .dwtag  DW_TAG_enumerator, DW_AT_name("eRunning"), DW_AT_const_value(0x00)
TI ARM Assembler PC v5.2.2 Thu Mar 10 16:26:56 2016

Tools Copyright (c) 1996-2015 Texas Instruments Incorporated
Task_Blinky.asm                                                      PAGE    6

     276                            .dwattr $C$DW$30, DW_AT_decl_file("H:/EECS_690/TI_ARM_Tiva_Projects_EECS_690_Sp16/Source/inclu
     277                            .dwattr $C$DW$30, DW_AT_decl_line(0x72)
     278                            .dwattr $C$DW$30, DW_AT_decl_column(0x02)
     279                    $C$DW$31        .dwtag  DW_TAG_enumerator, DW_AT_name("eReady"), DW_AT_const_value(0x01)
     280                            .dwattr $C$DW$31, DW_AT_decl_file("H:/EECS_690/TI_ARM_Tiva_Projects_EECS_690_Sp16/Source/inclu
     281                            .dwattr $C$DW$31, DW_AT_decl_line(0x73)
     282                            .dwattr $C$DW$31, DW_AT_decl_column(0x02)
     283                    $C$DW$32        .dwtag  DW_TAG_enumerator, DW_AT_name("eBlocked"), DW_AT_const_value(0x02)
     284                            .dwattr $C$DW$32, DW_AT_decl_file("H:/EECS_690/TI_ARM_Tiva_Projects_EECS_690_Sp16/Source/inclu
     285                            .dwattr $C$DW$32, DW_AT_decl_line(0x74)
     286                            .dwattr $C$DW$32, DW_AT_decl_column(0x02)
     287                    $C$DW$33        .dwtag  DW_TAG_enumerator, DW_AT_name("eSuspended"), DW_AT_const_value(0x03)
     288                            .dwattr $C$DW$33, DW_AT_decl_file("H:/EECS_690/TI_ARM_Tiva_Projects_EECS_690_Sp16/Source/inclu
     289                            .dwattr $C$DW$33, DW_AT_decl_line(0x75)
     290                            .dwattr $C$DW$33, DW_AT_decl_column(0x02)
     291                    $C$DW$34        .dwtag  DW_TAG_enumerator, DW_AT_name("eDeleted"), DW_AT_const_value(0x04)
     292                            .dwattr $C$DW$34, DW_AT_decl_file("H:/EECS_690/TI_ARM_Tiva_Projects_EECS_690_Sp16/Source/inclu
     293                            .dwattr $C$DW$34, DW_AT_decl_line(0x76)
     294                            .dwattr $C$DW$34, DW_AT_decl_column(0x02)
     295                            .dwendtag $C$DW$T$49
     296                    
     297                            .dwattr $C$DW$T$49, DW_AT_decl_file("H:/EECS_690/TI_ARM_Tiva_Projects_EECS_690_Sp16/Source/inc
     298                            .dwattr $C$DW$T$49, DW_AT_decl_line(0x71)
     299                            .dwattr $C$DW$T$49, DW_AT_decl_column(0x01)
     300                    $C$DW$T$50      .dwtag  DW_TAG_typedef, DW_AT_name("eTaskState")
     301                            .dwattr $C$DW$T$50, DW_AT_type(*$C$DW$T$49)
     302                            .dwattr $C$DW$T$50, DW_AT_language(DW_LANG_C)
     303                            .dwattr $C$DW$T$50, DW_AT_decl_file("H:/EECS_690/TI_ARM_Tiva_Projects_EECS_690_Sp16/Source/inc
     304                            .dwattr $C$DW$T$50, DW_AT_decl_line(0x77)
     305                            .dwattr $C$DW$T$50, DW_AT_decl_column(0x03)
     306                    
     307                    $C$DW$T$55      .dwtag  DW_TAG_enumeration_type
     308                            .dwattr $C$DW$T$55, DW_AT_byte_size(0x01)
     309                    $C$DW$35        .dwtag  DW_TAG_enumerator, DW_AT_name("eNoAction"), DW_AT_const_value(0x00)
     310                            .dwattr $C$DW$35, DW_AT_decl_file("H:/EECS_690/TI_ARM_Tiva_Projects_EECS_690_Sp16/Source/inclu
     311                            .dwattr $C$DW$35, DW_AT_decl_line(0x7c)
     312                            .dwattr $C$DW$35, DW_AT_decl_column(0x02)
     313                    $C$DW$36        .dwtag  DW_TAG_enumerator, DW_AT_name("eSetBits"), DW_AT_const_value(0x01)
     314                            .dwattr $C$DW$36, DW_AT_decl_file("H:/EECS_690/TI_ARM_Tiva_Projects_EECS_690_Sp16/Source/inclu
     315                            .dwattr $C$DW$36, DW_AT_decl_line(0x7d)
     316                            .dwattr $C$DW$36, DW_AT_decl_column(0x02)
     317                    $C$DW$37        .dwtag  DW_TAG_enumerator, DW_AT_name("eIncrement"), DW_AT_const_value(0x02)
     318                            .dwattr $C$DW$37, DW_AT_decl_file("H:/EECS_690/TI_ARM_Tiva_Projects_EECS_690_Sp16/Source/inclu
     319                            .dwattr $C$DW$37, DW_AT_decl_line(0x7e)
     320                            .dwattr $C$DW$37, DW_AT_decl_column(0x02)
     321                    $C$DW$38        .dwtag  DW_TAG_enumerator, DW_AT_name("eSetValueWithOverwrite"), DW_AT_const_value(0x0
     322                            .dwattr $C$DW$38, DW_AT_decl_file("H:/EECS_690/TI_ARM_Tiva_Projects_EECS_690_Sp16/Source/inclu
     323                            .dwattr $C$DW$38, DW_AT_decl_line(0x7f)
     324                            .dwattr $C$DW$38, DW_AT_decl_column(0x02)
     325                    $C$DW$39        .dwtag  DW_TAG_enumerator, DW_AT_name("eSetValueWithoutOverwrite"), DW_AT_const_value(
     326                            .dwattr $C$DW$39, DW_AT_decl_file("H:/EECS_690/TI_ARM_Tiva_Projects_EECS_690_Sp16/Source/inclu
     327                            .dwattr $C$DW$39, DW_AT_decl_line(0x80)
     328                            .dwattr $C$DW$39, DW_AT_decl_column(0x02)
     329                            .dwendtag $C$DW$T$55
     330                    
TI ARM Assembler PC v5.2.2 Thu Mar 10 16:26:56 2016

Tools Copyright (c) 1996-2015 Texas Instruments Incorporated
Task_Blinky.asm                                                      PAGE    7

     331                            .dwattr $C$DW$T$55, DW_AT_decl_file("H:/EECS_690/TI_ARM_Tiva_Projects_EECS_690_Sp16/Source/inc
     332                            .dwattr $C$DW$T$55, DW_AT_decl_line(0x7b)
     333                            .dwattr $C$DW$T$55, DW_AT_decl_column(0x01)
     334                    $C$DW$T$56      .dwtag  DW_TAG_typedef, DW_AT_name("eNotifyAction")
     335                            .dwattr $C$DW$T$56, DW_AT_type(*$C$DW$T$55)
     336                            .dwattr $C$DW$T$56, DW_AT_language(DW_LANG_C)
     337                            .dwattr $C$DW$T$56, DW_AT_decl_file("H:/EECS_690/TI_ARM_Tiva_Projects_EECS_690_Sp16/Source/inc
     338                            .dwattr $C$DW$T$56, DW_AT_decl_line(0x81)
     339                            .dwattr $C$DW$T$56, DW_AT_decl_column(0x03)
     340                    
     341                    $C$DW$T$57      .dwtag  DW_TAG_enumeration_type
     342                            .dwattr $C$DW$T$57, DW_AT_byte_size(0x01)
     343                    $C$DW$40        .dwtag  DW_TAG_enumerator, DW_AT_name("eAbortSleep"), DW_AT_const_value(0x00)
     344                            .dwattr $C$DW$40, DW_AT_decl_file("H:/EECS_690/TI_ARM_Tiva_Projects_EECS_690_Sp16/Source/inclu
     345                            .dwattr $C$DW$40, DW_AT_decl_line(0xb5)
     346                            .dwattr $C$DW$40, DW_AT_decl_column(0x02)
     347                    $C$DW$41        .dwtag  DW_TAG_enumerator, DW_AT_name("eStandardSleep"), DW_AT_const_value(0x01)
     348                            .dwattr $C$DW$41, DW_AT_decl_file("H:/EECS_690/TI_ARM_Tiva_Projects_EECS_690_Sp16/Source/inclu
     349                            .dwattr $C$DW$41, DW_AT_decl_line(0xb6)
     350                            .dwattr $C$DW$41, DW_AT_decl_column(0x02)
     351                    $C$DW$42        .dwtag  DW_TAG_enumerator, DW_AT_name("eNoTasksWaitingTimeout"), DW_AT_const_value(0x0
     352                            .dwattr $C$DW$42, DW_AT_decl_file("H:/EECS_690/TI_ARM_Tiva_Projects_EECS_690_Sp16/Source/inclu
     353                            .dwattr $C$DW$42, DW_AT_decl_line(0xb7)
     354                            .dwattr $C$DW$42, DW_AT_decl_column(0x02)
     355                            .dwendtag $C$DW$T$57
     356                    
     357                            .dwattr $C$DW$T$57, DW_AT_decl_file("H:/EECS_690/TI_ARM_Tiva_Projects_EECS_690_Sp16/Source/inc
     358                            .dwattr $C$DW$T$57, DW_AT_decl_line(0xb4)
     359                            .dwattr $C$DW$T$57, DW_AT_decl_column(0x01)
     360                    $C$DW$T$58      .dwtag  DW_TAG_typedef, DW_AT_name("eSleepModeStatus")
     361                            .dwattr $C$DW$T$58, DW_AT_type(*$C$DW$T$57)
     362                            .dwattr $C$DW$T$58, DW_AT_language(DW_LANG_C)
     363                            .dwattr $C$DW$T$58, DW_AT_decl_file("H:/EECS_690/TI_ARM_Tiva_Projects_EECS_690_Sp16/Source/inc
     364                            .dwattr $C$DW$T$58, DW_AT_decl_line(0xb8)
     365                            .dwattr $C$DW$T$58, DW_AT_decl_column(0x03)
     366                    
     367                    $C$DW$T$22      .dwtag  DW_TAG_structure_type
     368                            .dwattr $C$DW$T$22, DW_AT_name("HeapRegion")
     369                            .dwattr $C$DW$T$22, DW_AT_byte_size(0x08)
     370                    $C$DW$43        .dwtag  DW_TAG_member
     371                            .dwattr $C$DW$43, DW_AT_type(*$C$DW$T$20)
     372                            .dwattr $C$DW$43, DW_AT_name("pucStartAddress")
     373                            .dwattr $C$DW$43, DW_AT_TI_symbol_name("pucStartAddress")
     374                            .dwattr $C$DW$43, DW_AT_data_member_location[DW_OP_plus_uconst 0x0]
     375                            .dwattr $C$DW$43, DW_AT_accessibility(DW_ACCESS_public)
     376                            .dwattr $C$DW$43, DW_AT_decl_file("H:\EECS_690\TI_ARM_Tiva_Projects_EECS_690_Sp16\Source\inclu
     377                            .dwattr $C$DW$43, DW_AT_decl_line(0x96)
     378                            .dwattr $C$DW$43, DW_AT_decl_column(0x0b)
     379                    $C$DW$44        .dwtag  DW_TAG_member
     380                            .dwattr $C$DW$44, DW_AT_type(*$C$DW$T$21)
     381                            .dwattr $C$DW$44, DW_AT_name("xSizeInBytes")
     382                            .dwattr $C$DW$44, DW_AT_TI_symbol_name("xSizeInBytes")
     383                            .dwattr $C$DW$44, DW_AT_data_member_location[DW_OP_plus_uconst 0x4]
     384                            .dwattr $C$DW$44, DW_AT_accessibility(DW_ACCESS_public)
     385                            .dwattr $C$DW$44, DW_AT_decl_file("H:\EECS_690\TI_ARM_Tiva_Projects_EECS_690_Sp16\Source\inclu
TI ARM Assembler PC v5.2.2 Thu Mar 10 16:26:56 2016

Tools Copyright (c) 1996-2015 Texas Instruments Incorporated
Task_Blinky.asm                                                      PAGE    8

     386                            .dwattr $C$DW$44, DW_AT_decl_line(0x97)
     387                            .dwattr $C$DW$44, DW_AT_decl_column(0x09)
     388                            .dwendtag $C$DW$T$22
     389                    
     390                            .dwattr $C$DW$T$22, DW_AT_decl_file("H:\EECS_690\TI_ARM_Tiva_Projects_EECS_690_Sp16\Source\inc
     391                            .dwattr $C$DW$T$22, DW_AT_decl_line(0x94)
     392                            .dwattr $C$DW$T$22, DW_AT_decl_column(0x10)
     393                    $C$DW$T$59      .dwtag  DW_TAG_typedef, DW_AT_name("HeapRegion_t")
     394                            .dwattr $C$DW$T$59, DW_AT_type(*$C$DW$T$22)
     395                            .dwattr $C$DW$T$59, DW_AT_language(DW_LANG_C)
     396                            .dwattr $C$DW$T$59, DW_AT_decl_file("H:\EECS_690\TI_ARM_Tiva_Projects_EECS_690_Sp16\Source\inc
     397                            .dwattr $C$DW$T$59, DW_AT_decl_line(0x98)
     398                            .dwattr $C$DW$T$59, DW_AT_decl_column(0x03)
     399                    $C$DW$T$2       .dwtag  DW_TAG_unspecified_type
     400                            .dwattr $C$DW$T$2, DW_AT_name("void")
     401                    $C$DW$T$3       .dwtag  DW_TAG_pointer_type
     402                            .dwattr $C$DW$T$3, DW_AT_type(*$C$DW$T$2)
     403                            .dwattr $C$DW$T$3, DW_AT_address_class(0x20)
     404                    $C$DW$T$48      .dwtag  DW_TAG_typedef, DW_AT_name("TaskHandle_t")
     405                            .dwattr $C$DW$T$48, DW_AT_type(*$C$DW$T$3)
     406                            .dwattr $C$DW$T$48, DW_AT_language(DW_LANG_C)
     407                            .dwattr $C$DW$T$48, DW_AT_decl_file("H:/EECS_690/TI_ARM_Tiva_Projects_EECS_690_Sp16/Source/inc
     408                            .dwattr $C$DW$T$48, DW_AT_decl_line(0x67)
     409                            .dwattr $C$DW$T$48, DW_AT_decl_column(0x10)
     410                    
     411                    $C$DW$T$35      .dwtag  DW_TAG_subroutine_type
     412                            .dwattr $C$DW$T$35, DW_AT_language(DW_LANG_C)
     413                    $C$DW$45        .dwtag  DW_TAG_formal_parameter
     414                            .dwattr $C$DW$45, DW_AT_type(*$C$DW$T$3)
     415                            .dwendtag $C$DW$T$35
     416                    
     417                    $C$DW$T$36      .dwtag  DW_TAG_pointer_type
     418                            .dwattr $C$DW$T$36, DW_AT_type(*$C$DW$T$35)
     419                            .dwattr $C$DW$T$36, DW_AT_address_class(0x20)
     420                    $C$DW$T$37      .dwtag  DW_TAG_typedef, DW_AT_name("TaskFunction_t")
     421                            .dwattr $C$DW$T$37, DW_AT_type(*$C$DW$T$36)
     422                            .dwattr $C$DW$T$37, DW_AT_language(DW_LANG_C)
     423                            .dwattr $C$DW$T$37, DW_AT_decl_file("H:\EECS_690\TI_ARM_Tiva_Projects_EECS_690_Sp16\Source\inc
     424                            .dwattr $C$DW$T$37, DW_AT_decl_line(0x4d)
     425                            .dwattr $C$DW$T$37, DW_AT_decl_column(0x10)
     426                    $C$DW$T$4       .dwtag  DW_TAG_base_type
     427                            .dwattr $C$DW$T$4, DW_AT_encoding(DW_ATE_boolean)
     428                            .dwattr $C$DW$T$4, DW_AT_name("bool")
     429                            .dwattr $C$DW$T$4, DW_AT_byte_size(0x01)
     430                    $C$DW$T$5       .dwtag  DW_TAG_base_type
     431                            .dwattr $C$DW$T$5, DW_AT_encoding(DW_ATE_signed_char)
     432                            .dwattr $C$DW$T$5, DW_AT_name("signed char")
     433                            .dwattr $C$DW$T$5, DW_AT_byte_size(0x01)
     434                    $C$DW$T$71      .dwtag  DW_TAG_typedef, DW_AT_name("int8_t")
     435                            .dwattr $C$DW$T$71, DW_AT_type(*$C$DW$T$5)
     436                            .dwattr $C$DW$T$71, DW_AT_language(DW_LANG_C)
     437                            .dwattr $C$DW$T$71, DW_AT_decl_file("C:/TI_CodeComposer/ccsv6/tools/compiler/ti-cgt-arm_5.2.2/
     438                            .dwattr $C$DW$T$71, DW_AT_decl_line(0x2a)
     439                            .dwattr $C$DW$T$71, DW_AT_decl_column(0x1d)
     440                    $C$DW$T$72      .dwtag  DW_TAG_typedef, DW_AT_name("int_least8_t")
TI ARM Assembler PC v5.2.2 Thu Mar 10 16:26:56 2016

Tools Copyright (c) 1996-2015 Texas Instruments Incorporated
Task_Blinky.asm                                                      PAGE    9

     441                            .dwattr $C$DW$T$72, DW_AT_type(*$C$DW$T$71)
     442                            .dwattr $C$DW$T$72, DW_AT_language(DW_LANG_C)
     443                            .dwattr $C$DW$T$72, DW_AT_decl_file("C:/TI_CodeComposer/ccsv6/tools/compiler/ti-cgt-arm_5.2.2/
     444                            .dwattr $C$DW$T$72, DW_AT_decl_line(0x37)
     445                            .dwattr $C$DW$T$72, DW_AT_decl_column(0x17)
     446                    $C$DW$T$6       .dwtag  DW_TAG_base_type
     447                            .dwattr $C$DW$T$6, DW_AT_encoding(DW_ATE_unsigned_char)
     448                            .dwattr $C$DW$T$6, DW_AT_name("unsigned char")
     449                            .dwattr $C$DW$T$6, DW_AT_byte_size(0x01)
     450                    $C$DW$T$19      .dwtag  DW_TAG_typedef, DW_AT_name("uint8_t")
     451                            .dwattr $C$DW$T$19, DW_AT_type(*$C$DW$T$6)
     452                            .dwattr $C$DW$T$19, DW_AT_language(DW_LANG_C)
     453                            .dwattr $C$DW$T$19, DW_AT_decl_file("C:/TI_CodeComposer/ccsv6/tools/compiler/ti-cgt-arm_5.2.2/
     454                            .dwattr $C$DW$T$19, DW_AT_decl_line(0x2b)
     455                            .dwattr $C$DW$T$19, DW_AT_decl_column(0x1c)
     456                    $C$DW$T$20      .dwtag  DW_TAG_pointer_type
     457                            .dwattr $C$DW$T$20, DW_AT_type(*$C$DW$T$19)
     458                            .dwattr $C$DW$T$20, DW_AT_address_class(0x20)
     459                    $C$DW$T$73      .dwtag  DW_TAG_typedef, DW_AT_name("portCHAR")
     460                            .dwattr $C$DW$T$73, DW_AT_type(*$C$DW$T$19)
     461                            .dwattr $C$DW$T$73, DW_AT_language(DW_LANG_C)
     462                            .dwattr $C$DW$T$73, DW_AT_decl_file("H:/EECS_690/TI_ARM_Tiva_Projects_EECS_690_Sp16/Source/por
     463                            .dwattr $C$DW$T$73, DW_AT_decl_line(0x60)
     464                            .dwattr $C$DW$T$73, DW_AT_decl_column(0x12)
     465                    $C$DW$T$74      .dwtag  DW_TAG_typedef, DW_AT_name("uint_least8_t")
     466                            .dwattr $C$DW$T$74, DW_AT_type(*$C$DW$T$19)
     467                            .dwattr $C$DW$T$74, DW_AT_language(DW_LANG_C)
     468                            .dwattr $C$DW$T$74, DW_AT_decl_file("C:/TI_CodeComposer/ccsv6/tools/compiler/ti-cgt-arm_5.2.2/
     469                            .dwattr $C$DW$T$74, DW_AT_decl_line(0x38)
     470                            .dwattr $C$DW$T$74, DW_AT_decl_column(0x16)
     471                    $C$DW$T$7       .dwtag  DW_TAG_base_type
     472                            .dwattr $C$DW$T$7, DW_AT_encoding(DW_ATE_signed_char)
     473                            .dwattr $C$DW$T$7, DW_AT_name("wchar_t")
     474                            .dwattr $C$DW$T$7, DW_AT_byte_size(0x02)
     475                    $C$DW$T$8       .dwtag  DW_TAG_base_type
     476                            .dwattr $C$DW$T$8, DW_AT_encoding(DW_ATE_signed)
     477                            .dwattr $C$DW$T$8, DW_AT_name("short")
     478                            .dwattr $C$DW$T$8, DW_AT_byte_size(0x02)
     479                    $C$DW$T$75      .dwtag  DW_TAG_typedef, DW_AT_name("int16_t")
     480                            .dwattr $C$DW$T$75, DW_AT_type(*$C$DW$T$8)
     481                            .dwattr $C$DW$T$75, DW_AT_language(DW_LANG_C)
     482                            .dwattr $C$DW$T$75, DW_AT_decl_file("C:/TI_CodeComposer/ccsv6/tools/compiler/ti-cgt-arm_5.2.2/
     483                            .dwattr $C$DW$T$75, DW_AT_decl_line(0x2c)
     484                            .dwattr $C$DW$T$75, DW_AT_decl_column(0x1d)
     485                    $C$DW$T$76      .dwtag  DW_TAG_typedef, DW_AT_name("int_least16_t")
     486                            .dwattr $C$DW$T$76, DW_AT_type(*$C$DW$T$75)
     487                            .dwattr $C$DW$T$76, DW_AT_language(DW_LANG_C)
     488                            .dwattr $C$DW$T$76, DW_AT_decl_file("C:/TI_CodeComposer/ccsv6/tools/compiler/ti-cgt-arm_5.2.2/
     489                            .dwattr $C$DW$T$76, DW_AT_decl_line(0x3a)
     490                            .dwattr $C$DW$T$76, DW_AT_decl_column(0x17)
     491                    $C$DW$T$77      .dwtag  DW_TAG_typedef, DW_AT_name("portSHORT")
     492                            .dwattr $C$DW$T$77, DW_AT_type(*$C$DW$T$75)
     493                            .dwattr $C$DW$T$77, DW_AT_language(DW_LANG_C)
     494                            .dwattr $C$DW$T$77, DW_AT_decl_file("H:/EECS_690/TI_ARM_Tiva_Projects_EECS_690_Sp16/Source/por
     495                            .dwattr $C$DW$T$77, DW_AT_decl_line(0x64)
TI ARM Assembler PC v5.2.2 Thu Mar 10 16:26:56 2016

Tools Copyright (c) 1996-2015 Texas Instruments Incorporated
Task_Blinky.asm                                                      PAGE   10

     496                            .dwattr $C$DW$T$77, DW_AT_decl_column(0x12)
     497                    $C$DW$T$9       .dwtag  DW_TAG_base_type
     498                            .dwattr $C$DW$T$9, DW_AT_encoding(DW_ATE_unsigned)
     499                            .dwattr $C$DW$T$9, DW_AT_name("unsigned short")
     500                            .dwattr $C$DW$T$9, DW_AT_byte_size(0x02)
     501                    $C$DW$T$78      .dwtag  DW_TAG_typedef, DW_AT_name("_Wchart")
     502                            .dwattr $C$DW$T$78, DW_AT_type(*$C$DW$T$9)
     503                            .dwattr $C$DW$T$78, DW_AT_language(DW_LANG_C)
     504                            .dwattr $C$DW$T$78, DW_AT_decl_file("C:/TI_CodeComposer/ccsv6/tools/compiler/ti-cgt-arm_5.2.2/
     505                            .dwattr $C$DW$T$78, DW_AT_decl_line(0x1e5)
     506                            .dwattr $C$DW$T$78, DW_AT_decl_column(0x21)
     507                    $C$DW$T$79      .dwtag  DW_TAG_typedef, DW_AT_name("_Wintt")
     508                            .dwattr $C$DW$T$79, DW_AT_type(*$C$DW$T$9)
     509                            .dwattr $C$DW$T$79, DW_AT_language(DW_LANG_C)
     510                            .dwattr $C$DW$T$79, DW_AT_decl_file("C:/TI_CodeComposer/ccsv6/tools/compiler/ti-cgt-arm_5.2.2/
     511                            .dwattr $C$DW$T$79, DW_AT_decl_line(0x1e6)
     512                            .dwattr $C$DW$T$79, DW_AT_decl_column(0x21)
     513                    $C$DW$T$42      .dwtag  DW_TAG_typedef, DW_AT_name("uint16_t")
     514                            .dwattr $C$DW$T$42, DW_AT_type(*$C$DW$T$9)
     515                            .dwattr $C$DW$T$42, DW_AT_language(DW_LANG_C)
     516                            .dwattr $C$DW$T$42, DW_AT_decl_file("C:/TI_CodeComposer/ccsv6/tools/compiler/ti-cgt-arm_5.2.2/
     517                            .dwattr $C$DW$T$42, DW_AT_decl_line(0x2d)
     518                            .dwattr $C$DW$T$42, DW_AT_decl_column(0x1c)
     519                    $C$DW$T$80      .dwtag  DW_TAG_typedef, DW_AT_name("uint_least16_t")
     520                            .dwattr $C$DW$T$80, DW_AT_type(*$C$DW$T$42)
     521                            .dwattr $C$DW$T$80, DW_AT_language(DW_LANG_C)
     522                            .dwattr $C$DW$T$80, DW_AT_decl_file("C:/TI_CodeComposer/ccsv6/tools/compiler/ti-cgt-arm_5.2.2/
     523                            .dwattr $C$DW$T$80, DW_AT_decl_line(0x3b)
     524                            .dwattr $C$DW$T$80, DW_AT_decl_column(0x16)
     525                    $C$DW$T$81      .dwtag  DW_TAG_typedef, DW_AT_name("wchar_t")
     526                            .dwattr $C$DW$T$81, DW_AT_type(*$C$DW$T$9)
     527                            .dwattr $C$DW$T$81, DW_AT_language(DW_LANG_C)
     528                            .dwattr $C$DW$T$81, DW_AT_decl_file("C:/TI_CodeComposer/ccsv6/tools/compiler/ti-cgt-arm_5.2.2/
     529                            .dwattr $C$DW$T$81, DW_AT_decl_line(0x41)
     530                            .dwattr $C$DW$T$81, DW_AT_decl_column(0x1a)
     531                    $C$DW$T$10      .dwtag  DW_TAG_base_type
     532                            .dwattr $C$DW$T$10, DW_AT_encoding(DW_ATE_signed)
     533                            .dwattr $C$DW$T$10, DW_AT_name("int")
     534                            .dwattr $C$DW$T$10, DW_AT_byte_size(0x04)
     535                    $C$DW$T$82      .dwtag  DW_TAG_typedef, DW_AT_name("_Ptrdifft")
     536                            .dwattr $C$DW$T$82, DW_AT_type(*$C$DW$T$10)
     537                            .dwattr $C$DW$T$82, DW_AT_language(DW_LANG_C)
     538                            .dwattr $C$DW$T$82, DW_AT_decl_file("C:/TI_CodeComposer/ccsv6/tools/compiler/ti-cgt-arm_5.2.2/
     539                            .dwattr $C$DW$T$82, DW_AT_decl_line(0xa9)
     540                            .dwattr $C$DW$T$82, DW_AT_decl_column(0x1e)
     541                    $C$DW$T$52      .dwtag  DW_TAG_typedef, DW_AT_name("int32_t")
     542                            .dwattr $C$DW$T$52, DW_AT_type(*$C$DW$T$10)
     543                            .dwattr $C$DW$T$52, DW_AT_language(DW_LANG_C)
     544                            .dwattr $C$DW$T$52, DW_AT_decl_file("C:/TI_CodeComposer/ccsv6/tools/compiler/ti-cgt-arm_5.2.2/
     545                            .dwattr $C$DW$T$52, DW_AT_decl_line(0x2e)
     546                            .dwattr $C$DW$T$52, DW_AT_decl_column(0x1d)
     547                    $C$DW$T$53      .dwtag  DW_TAG_typedef, DW_AT_name("BaseType_t")
     548                            .dwattr $C$DW$T$53, DW_AT_type(*$C$DW$T$52)
     549                            .dwattr $C$DW$T$53, DW_AT_language(DW_LANG_C)
     550                            .dwattr $C$DW$T$53, DW_AT_decl_file("H:/EECS_690/TI_ARM_Tiva_Projects_EECS_690_Sp16/Source/por
TI ARM Assembler PC v5.2.2 Thu Mar 10 16:26:56 2016

Tools Copyright (c) 1996-2015 Texas Instruments Incorporated
Task_Blinky.asm                                                      PAGE   11

     551                            .dwattr $C$DW$T$53, DW_AT_decl_line(0x69)
     552                            .dwattr $C$DW$T$53, DW_AT_decl_column(0x12)
     553                    
     554                    $C$DW$T$83      .dwtag  DW_TAG_subroutine_type
     555                            .dwattr $C$DW$T$83, DW_AT_type(*$C$DW$T$53)
     556                            .dwattr $C$DW$T$83, DW_AT_language(DW_LANG_C)
     557                    $C$DW$46        .dwtag  DW_TAG_formal_parameter
     558                            .dwattr $C$DW$46, DW_AT_type(*$C$DW$T$3)
     559                            .dwendtag $C$DW$T$83
     560                    
     561                    $C$DW$T$84      .dwtag  DW_TAG_pointer_type
     562                            .dwattr $C$DW$T$84, DW_AT_type(*$C$DW$T$83)
     563                            .dwattr $C$DW$T$84, DW_AT_address_class(0x20)
     564                    $C$DW$T$85      .dwtag  DW_TAG_typedef, DW_AT_name("TaskHookFunction_t")
     565                            .dwattr $C$DW$T$85, DW_AT_type(*$C$DW$T$84)
     566                            .dwattr $C$DW$T$85, DW_AT_language(DW_LANG_C)
     567                            .dwattr $C$DW$T$85, DW_AT_decl_file("H:/EECS_690/TI_ARM_Tiva_Projects_EECS_690_Sp16/Source/inc
     568                            .dwattr $C$DW$T$85, DW_AT_decl_line(0x6d)
     569                            .dwattr $C$DW$T$85, DW_AT_decl_column(0x16)
     570                    $C$DW$T$88      .dwtag  DW_TAG_typedef, DW_AT_name("int_fast16_t")
     571                            .dwattr $C$DW$T$88, DW_AT_type(*$C$DW$T$52)
     572                            .dwattr $C$DW$T$88, DW_AT_language(DW_LANG_C)
     573                            .dwattr $C$DW$T$88, DW_AT_decl_file("C:/TI_CodeComposer/ccsv6/tools/compiler/ti-cgt-arm_5.2.2/
     574                            .dwattr $C$DW$T$88, DW_AT_decl_line(0x47)
     575                            .dwattr $C$DW$T$88, DW_AT_decl_column(0x17)
     576                    $C$DW$T$89      .dwtag  DW_TAG_typedef, DW_AT_name("int_fast32_t")
     577                            .dwattr $C$DW$T$89, DW_AT_type(*$C$DW$T$52)
     578                            .dwattr $C$DW$T$89, DW_AT_language(DW_LANG_C)
     579                            .dwattr $C$DW$T$89, DW_AT_decl_file("C:/TI_CodeComposer/ccsv6/tools/compiler/ti-cgt-arm_5.2.2/
     580                            .dwattr $C$DW$T$89, DW_AT_decl_line(0x4a)
     581                            .dwattr $C$DW$T$89, DW_AT_decl_column(0x17)
     582                    $C$DW$T$90      .dwtag  DW_TAG_typedef, DW_AT_name("int_fast8_t")
     583                            .dwattr $C$DW$T$90, DW_AT_type(*$C$DW$T$52)
     584                            .dwattr $C$DW$T$90, DW_AT_language(DW_LANG_C)
     585                            .dwattr $C$DW$T$90, DW_AT_decl_file("C:/TI_CodeComposer/ccsv6/tools/compiler/ti-cgt-arm_5.2.2/
     586                            .dwattr $C$DW$T$90, DW_AT_decl_line(0x45)
     587                            .dwattr $C$DW$T$90, DW_AT_decl_column(0x17)
     588                    $C$DW$T$91      .dwtag  DW_TAG_typedef, DW_AT_name("int_least32_t")
     589                            .dwattr $C$DW$T$91, DW_AT_type(*$C$DW$T$52)
     590                            .dwattr $C$DW$T$91, DW_AT_language(DW_LANG_C)
     591                            .dwattr $C$DW$T$91, DW_AT_decl_file("C:/TI_CodeComposer/ccsv6/tools/compiler/ti-cgt-arm_5.2.2/
     592                            .dwattr $C$DW$T$91, DW_AT_decl_line(0x3c)
     593                            .dwattr $C$DW$T$91, DW_AT_decl_column(0x17)
     594                    $C$DW$T$92      .dwtag  DW_TAG_typedef, DW_AT_name("portBASE_TYPE")
     595                            .dwattr $C$DW$T$92, DW_AT_type(*$C$DW$T$52)
     596                            .dwattr $C$DW$T$92, DW_AT_language(DW_LANG_C)
     597                            .dwattr $C$DW$T$92, DW_AT_decl_file("H:/EECS_690/TI_ARM_Tiva_Projects_EECS_690_Sp16/Source/por
     598                            .dwattr $C$DW$T$92, DW_AT_decl_line(0x66)
     599                            .dwattr $C$DW$T$92, DW_AT_decl_column(0x12)
     600                    $C$DW$T$93      .dwtag  DW_TAG_typedef, DW_AT_name("portLONG")
     601                            .dwattr $C$DW$T$93, DW_AT_type(*$C$DW$T$52)
     602                            .dwattr $C$DW$T$93, DW_AT_language(DW_LANG_C)
     603                            .dwattr $C$DW$T$93, DW_AT_decl_file("H:/EECS_690/TI_ARM_Tiva_Projects_EECS_690_Sp16/Source/por
     604                            .dwattr $C$DW$T$93, DW_AT_decl_line(0x63)
     605                            .dwattr $C$DW$T$93, DW_AT_decl_column(0x12)
TI ARM Assembler PC v5.2.2 Thu Mar 10 16:26:56 2016

Tools Copyright (c) 1996-2015 Texas Instruments Incorporated
Task_Blinky.asm                                                      PAGE   12

     606                    $C$DW$T$94      .dwtag  DW_TAG_typedef, DW_AT_name("intptr_t")
     607                            .dwattr $C$DW$T$94, DW_AT_type(*$C$DW$T$10)
     608                            .dwattr $C$DW$T$94, DW_AT_language(DW_LANG_C)
     609                            .dwattr $C$DW$T$94, DW_AT_decl_file("C:/TI_CodeComposer/ccsv6/tools/compiler/ti-cgt-arm_5.2.2/
     610                            .dwattr $C$DW$T$94, DW_AT_decl_line(0x52)
     611                            .dwattr $C$DW$T$94, DW_AT_decl_column(0x1a)
     612                    $C$DW$T$95      .dwtag  DW_TAG_typedef, DW_AT_name("ptrdiff_t")
     613                            .dwattr $C$DW$T$95, DW_AT_type(*$C$DW$T$10)
     614                            .dwattr $C$DW$T$95, DW_AT_language(DW_LANG_C)
     615                            .dwattr $C$DW$T$95, DW_AT_decl_file("C:/TI_CodeComposer/ccsv6/tools/compiler/ti-cgt-arm_5.2.2/
     616                            .dwattr $C$DW$T$95, DW_AT_decl_line(0x36)
     617                            .dwattr $C$DW$T$95, DW_AT_decl_column(0x1c)
     618                    $C$DW$T$11      .dwtag  DW_TAG_base_type
     619                            .dwattr $C$DW$T$11, DW_AT_encoding(DW_ATE_unsigned)
     620                            .dwattr $C$DW$T$11, DW_AT_name("unsigned int")
     621                            .dwattr $C$DW$T$11, DW_AT_byte_size(0x04)
     622                    $C$DW$T$96      .dwtag  DW_TAG_typedef, DW_AT_name("_Sizet")
     623                            .dwattr $C$DW$T$96, DW_AT_type(*$C$DW$T$11)
     624                            .dwattr $C$DW$T$96, DW_AT_language(DW_LANG_C)
     625                            .dwattr $C$DW$T$96, DW_AT_decl_file("C:/TI_CodeComposer/ccsv6/tools/compiler/ti-cgt-arm_5.2.2/
     626                            .dwattr $C$DW$T$96, DW_AT_decl_line(0xab)
     627                            .dwattr $C$DW$T$96, DW_AT_decl_column(0x1a)
     628                    $C$DW$T$21      .dwtag  DW_TAG_typedef, DW_AT_name("size_t")
     629                            .dwattr $C$DW$T$21, DW_AT_type(*$C$DW$T$11)
     630                            .dwattr $C$DW$T$21, DW_AT_language(DW_LANG_C)
     631                            .dwattr $C$DW$T$21, DW_AT_decl_file("C:/TI_CodeComposer/ccsv6/tools/compiler/ti-cgt-arm_5.2.2/
     632                            .dwattr $C$DW$T$21, DW_AT_decl_line(0x3a)
     633                            .dwattr $C$DW$T$21, DW_AT_decl_column(0x19)
     634                    $C$DW$T$24      .dwtag  DW_TAG_typedef, DW_AT_name("uint32_t")
     635                            .dwattr $C$DW$T$24, DW_AT_type(*$C$DW$T$11)
     636                            .dwattr $C$DW$T$24, DW_AT_language(DW_LANG_C)
     637                            .dwattr $C$DW$T$24, DW_AT_decl_file("C:/TI_CodeComposer/ccsv6/tools/compiler/ti-cgt-arm_5.2.2/
     638                            .dwattr $C$DW$T$24, DW_AT_decl_line(0x2f)
     639                            .dwattr $C$DW$T$24, DW_AT_decl_column(0x1c)
     640                    $C$DW$T$43      .dwtag  DW_TAG_typedef, DW_AT_name("StackType_t")
     641                            .dwattr $C$DW$T$43, DW_AT_type(*$C$DW$T$24)
     642                            .dwattr $C$DW$T$43, DW_AT_language(DW_LANG_C)
     643                            .dwattr $C$DW$T$43, DW_AT_decl_file("H:/EECS_690/TI_ARM_Tiva_Projects_EECS_690_Sp16/Source/por
     644                            .dwattr $C$DW$T$43, DW_AT_decl_line(0x68)
     645                            .dwattr $C$DW$T$43, DW_AT_decl_column(0x12)
     646                    $C$DW$T$44      .dwtag  DW_TAG_pointer_type
     647                            .dwattr $C$DW$T$44, DW_AT_type(*$C$DW$T$43)
     648                            .dwattr $C$DW$T$44, DW_AT_address_class(0x20)
     649                    $C$DW$T$30      .dwtag  DW_TAG_typedef, DW_AT_name("TickType_t")
     650                            .dwattr $C$DW$T$30, DW_AT_type(*$C$DW$T$24)
     651                            .dwattr $C$DW$T$30, DW_AT_language(DW_LANG_C)
     652                            .dwattr $C$DW$T$30, DW_AT_decl_file("H:/EECS_690/TI_ARM_Tiva_Projects_EECS_690_Sp16/Source/por
     653                            .dwattr $C$DW$T$30, DW_AT_decl_line(0x70)
     654                            .dwattr $C$DW$T$30, DW_AT_decl_column(0x13)
     655                    $C$DW$T$68      .dwtag  DW_TAG_const_type
     656                            .dwattr $C$DW$T$68, DW_AT_type(*$C$DW$T$30)
     657                    $C$DW$T$25      .dwtag  DW_TAG_typedef, DW_AT_name("UBaseType_t")
     658                            .dwattr $C$DW$T$25, DW_AT_type(*$C$DW$T$24)
     659                            .dwattr $C$DW$T$25, DW_AT_language(DW_LANG_C)
     660                            .dwattr $C$DW$T$25, DW_AT_decl_file("H:/EECS_690/TI_ARM_Tiva_Projects_EECS_690_Sp16/Source/por
TI ARM Assembler PC v5.2.2 Thu Mar 10 16:26:56 2016

Tools Copyright (c) 1996-2015 Texas Instruments Incorporated
Task_Blinky.asm                                                      PAGE   13

     661                            .dwattr $C$DW$T$25, DW_AT_decl_line(0x6a)
     662                            .dwattr $C$DW$T$25, DW_AT_decl_column(0x12)
     663                    $C$DW$T$97      .dwtag  DW_TAG_typedef, DW_AT_name("portSTACK_TYPE")
     664                            .dwattr $C$DW$T$97, DW_AT_type(*$C$DW$T$24)
     665                            .dwattr $C$DW$T$97, DW_AT_language(DW_LANG_C)
     666                            .dwattr $C$DW$T$97, DW_AT_decl_file("H:/EECS_690/TI_ARM_Tiva_Projects_EECS_690_Sp16/Source/por
     667                            .dwattr $C$DW$T$97, DW_AT_decl_line(0x65)
     668                            .dwattr $C$DW$T$97, DW_AT_decl_column(0x12)
     669                    $C$DW$T$98      .dwtag  DW_TAG_typedef, DW_AT_name("uint_fast16_t")
     670                            .dwattr $C$DW$T$98, DW_AT_type(*$C$DW$T$24)
     671                            .dwattr $C$DW$T$98, DW_AT_language(DW_LANG_C)
     672                            .dwattr $C$DW$T$98, DW_AT_decl_file("C:/TI_CodeComposer/ccsv6/tools/compiler/ti-cgt-arm_5.2.2/
     673                            .dwattr $C$DW$T$98, DW_AT_decl_line(0x48)
     674                            .dwattr $C$DW$T$98, DW_AT_decl_column(0x16)
     675                    $C$DW$T$99      .dwtag  DW_TAG_typedef, DW_AT_name("uint_fast32_t")
     676                            .dwattr $C$DW$T$99, DW_AT_type(*$C$DW$T$24)
     677                            .dwattr $C$DW$T$99, DW_AT_language(DW_LANG_C)
     678                            .dwattr $C$DW$T$99, DW_AT_decl_file("C:/TI_CodeComposer/ccsv6/tools/compiler/ti-cgt-arm_5.2.2/
     679                            .dwattr $C$DW$T$99, DW_AT_decl_line(0x4b)
     680                            .dwattr $C$DW$T$99, DW_AT_decl_column(0x16)
     681                    $C$DW$T$100     .dwtag  DW_TAG_typedef, DW_AT_name("uint_fast8_t")
     682                            .dwattr $C$DW$T$100, DW_AT_type(*$C$DW$T$24)
     683                            .dwattr $C$DW$T$100, DW_AT_language(DW_LANG_C)
     684                            .dwattr $C$DW$T$100, DW_AT_decl_file("C:/TI_CodeComposer/ccsv6/tools/compiler/ti-cgt-arm_5.2.2
     685                            .dwattr $C$DW$T$100, DW_AT_decl_line(0x46)
     686                            .dwattr $C$DW$T$100, DW_AT_decl_column(0x16)
     687                    $C$DW$T$101     .dwtag  DW_TAG_typedef, DW_AT_name("uint_least32_t")
     688                            .dwattr $C$DW$T$101, DW_AT_type(*$C$DW$T$24)
     689                            .dwattr $C$DW$T$101, DW_AT_language(DW_LANG_C)
     690                            .dwattr $C$DW$T$101, DW_AT_decl_file("C:/TI_CodeComposer/ccsv6/tools/compiler/ti-cgt-arm_5.2.2
     691                            .dwattr $C$DW$T$101, DW_AT_decl_line(0x3d)
     692                            .dwattr $C$DW$T$101, DW_AT_decl_column(0x16)
     693                    $C$DW$T$102     .dwtag  DW_TAG_typedef, DW_AT_name("uintptr_t")
     694                            .dwattr $C$DW$T$102, DW_AT_type(*$C$DW$T$11)
     695                            .dwattr $C$DW$T$102, DW_AT_language(DW_LANG_C)
     696                            .dwattr $C$DW$T$102, DW_AT_decl_file("C:/TI_CodeComposer/ccsv6/tools/compiler/ti-cgt-arm_5.2.2
     697                            .dwattr $C$DW$T$102, DW_AT_decl_line(0x53)
     698                            .dwattr $C$DW$T$102, DW_AT_decl_column(0x1a)
     699                    $C$DW$T$12      .dwtag  DW_TAG_base_type
     700                            .dwattr $C$DW$T$12, DW_AT_encoding(DW_ATE_signed)
     701                            .dwattr $C$DW$T$12, DW_AT_name("long")
     702                            .dwattr $C$DW$T$12, DW_AT_byte_size(0x04)
     703                    $C$DW$T$103     .dwtag  DW_TAG_typedef, DW_AT_name("_Int32t")
     704                            .dwattr $C$DW$T$103, DW_AT_type(*$C$DW$T$12)
     705                            .dwattr $C$DW$T$103, DW_AT_language(DW_LANG_C)
     706                            .dwattr $C$DW$T$103, DW_AT_decl_file("C:/TI_CodeComposer/ccsv6/tools/compiler/ti-cgt-arm_5.2.2
     707                            .dwattr $C$DW$T$103, DW_AT_decl_line(0xa6)
     708                            .dwattr $C$DW$T$103, DW_AT_decl_column(0x0e)
     709                    $C$DW$T$13      .dwtag  DW_TAG_base_type
     710                            .dwattr $C$DW$T$13, DW_AT_encoding(DW_ATE_unsigned)
     711                            .dwattr $C$DW$T$13, DW_AT_name("unsigned long")
     712                            .dwattr $C$DW$T$13, DW_AT_byte_size(0x04)
     713                    $C$DW$T$104     .dwtag  DW_TAG_typedef, DW_AT_name("_Uint32t")
     714                            .dwattr $C$DW$T$104, DW_AT_type(*$C$DW$T$13)
     715                            .dwattr $C$DW$T$104, DW_AT_language(DW_LANG_C)
TI ARM Assembler PC v5.2.2 Thu Mar 10 16:26:56 2016

Tools Copyright (c) 1996-2015 Texas Instruments Incorporated
Task_Blinky.asm                                                      PAGE   14

     716                            .dwattr $C$DW$T$104, DW_AT_decl_file("C:/TI_CodeComposer/ccsv6/tools/compiler/ti-cgt-arm_5.2.2
     717                            .dwattr $C$DW$T$104, DW_AT_decl_line(0xa7)
     718                            .dwattr $C$DW$T$104, DW_AT_decl_column(0x17)
     719                    $C$DW$T$14      .dwtag  DW_TAG_base_type
     720                            .dwattr $C$DW$T$14, DW_AT_encoding(DW_ATE_signed)
     721                            .dwattr $C$DW$T$14, DW_AT_name("long long")
     722                            .dwattr $C$DW$T$14, DW_AT_byte_size(0x08)
     723                    $C$DW$T$105     .dwtag  DW_TAG_typedef, DW_AT_name("_Longlong")
     724                            .dwattr $C$DW$T$105, DW_AT_type(*$C$DW$T$14)
     725                            .dwattr $C$DW$T$105, DW_AT_language(DW_LANG_C)
     726                            .dwattr $C$DW$T$105, DW_AT_decl_file("C:/TI_CodeComposer/ccsv6/tools/compiler/ti-cgt-arm_5.2.2
     727                            .dwattr $C$DW$T$105, DW_AT_decl_line(0x1b5)
     728                            .dwattr $C$DW$T$105, DW_AT_decl_column(0x13)
     729                    $C$DW$T$106     .dwtag  DW_TAG_typedef, DW_AT_name("int64_t")
     730                            .dwattr $C$DW$T$106, DW_AT_type(*$C$DW$T$14)
     731                            .dwattr $C$DW$T$106, DW_AT_language(DW_LANG_C)
     732                            .dwattr $C$DW$T$106, DW_AT_decl_file("C:/TI_CodeComposer/ccsv6/tools/compiler/ti-cgt-arm_5.2.2
     733                            .dwattr $C$DW$T$106, DW_AT_decl_line(0x32)
     734                            .dwattr $C$DW$T$106, DW_AT_decl_column(0x21)
     735                    $C$DW$T$107     .dwtag  DW_TAG_typedef, DW_AT_name("int_fast64_t")
     736                            .dwattr $C$DW$T$107, DW_AT_type(*$C$DW$T$106)
     737                            .dwattr $C$DW$T$107, DW_AT_language(DW_LANG_C)
     738                            .dwattr $C$DW$T$107, DW_AT_decl_file("C:/TI_CodeComposer/ccsv6/tools/compiler/ti-cgt-arm_5.2.2
     739                            .dwattr $C$DW$T$107, DW_AT_decl_line(0x4e)
     740                            .dwattr $C$DW$T$107, DW_AT_decl_column(0x17)
     741                    $C$DW$T$108     .dwtag  DW_TAG_typedef, DW_AT_name("int_least64_t")
     742                            .dwattr $C$DW$T$108, DW_AT_type(*$C$DW$T$106)
     743                            .dwattr $C$DW$T$108, DW_AT_language(DW_LANG_C)
     744                            .dwattr $C$DW$T$108, DW_AT_decl_file("C:/TI_CodeComposer/ccsv6/tools/compiler/ti-cgt-arm_5.2.2
     745                            .dwattr $C$DW$T$108, DW_AT_decl_line(0x40)
     746                            .dwattr $C$DW$T$108, DW_AT_decl_column(0x17)
     747                    $C$DW$T$109     .dwtag  DW_TAG_typedef, DW_AT_name("portDOUBLE")
     748                            .dwattr $C$DW$T$109, DW_AT_type(*$C$DW$T$106)
     749                            .dwattr $C$DW$T$109, DW_AT_language(DW_LANG_C)
     750                            .dwattr $C$DW$T$109, DW_AT_decl_file("H:/EECS_690/TI_ARM_Tiva_Projects_EECS_690_Sp16/Source/po
     751                            .dwattr $C$DW$T$109, DW_AT_decl_line(0x62)
     752                            .dwattr $C$DW$T$109, DW_AT_decl_column(0x12)
     753                    $C$DW$T$110     .dwtag  DW_TAG_typedef, DW_AT_name("intmax_t")
     754                            .dwattr $C$DW$T$110, DW_AT_type(*$C$DW$T$14)
     755                            .dwattr $C$DW$T$110, DW_AT_language(DW_LANG_C)
     756                            .dwattr $C$DW$T$110, DW_AT_decl_file("C:/TI_CodeComposer/ccsv6/tools/compiler/ti-cgt-arm_5.2.2
     757                            .dwattr $C$DW$T$110, DW_AT_decl_line(0x56)
     758                            .dwattr $C$DW$T$110, DW_AT_decl_column(0x20)
     759                    $C$DW$T$15      .dwtag  DW_TAG_base_type
     760                            .dwattr $C$DW$T$15, DW_AT_encoding(DW_ATE_unsigned)
     761                            .dwattr $C$DW$T$15, DW_AT_name("unsigned long long")
     762                            .dwattr $C$DW$T$15, DW_AT_byte_size(0x08)
     763                    $C$DW$T$111     .dwtag  DW_TAG_typedef, DW_AT_name("_ULonglong")
     764                            .dwattr $C$DW$T$111, DW_AT_type(*$C$DW$T$15)
     765                            .dwattr $C$DW$T$111, DW_AT_language(DW_LANG_C)
     766                            .dwattr $C$DW$T$111, DW_AT_decl_file("C:/TI_CodeComposer/ccsv6/tools/compiler/ti-cgt-arm_5.2.2
     767                            .dwattr $C$DW$T$111, DW_AT_decl_line(0x1b6)
     768                            .dwattr $C$DW$T$111, DW_AT_decl_column(0x14)
     769                    $C$DW$T$112     .dwtag  DW_TAG_typedef, DW_AT_name("uint64_t")
     770                            .dwattr $C$DW$T$112, DW_AT_type(*$C$DW$T$15)
TI ARM Assembler PC v5.2.2 Thu Mar 10 16:26:56 2016

Tools Copyright (c) 1996-2015 Texas Instruments Incorporated
Task_Blinky.asm                                                      PAGE   15

     771                            .dwattr $C$DW$T$112, DW_AT_language(DW_LANG_C)
     772                            .dwattr $C$DW$T$112, DW_AT_decl_file("C:/TI_CodeComposer/ccsv6/tools/compiler/ti-cgt-arm_5.2.2
     773                            .dwattr $C$DW$T$112, DW_AT_decl_line(0x33)
     774                            .dwattr $C$DW$T$112, DW_AT_decl_column(0x20)
     775                    $C$DW$T$113     .dwtag  DW_TAG_typedef, DW_AT_name("uint_fast64_t")
     776                            .dwattr $C$DW$T$113, DW_AT_type(*$C$DW$T$112)
     777                            .dwattr $C$DW$T$113, DW_AT_language(DW_LANG_C)
     778                            .dwattr $C$DW$T$113, DW_AT_decl_file("C:/TI_CodeComposer/ccsv6/tools/compiler/ti-cgt-arm_5.2.2
     779                            .dwattr $C$DW$T$113, DW_AT_decl_line(0x4f)
     780                            .dwattr $C$DW$T$113, DW_AT_decl_column(0x16)
     781                    $C$DW$T$114     .dwtag  DW_TAG_typedef, DW_AT_name("uint_least64_t")
     782                            .dwattr $C$DW$T$114, DW_AT_type(*$C$DW$T$112)
     783                            .dwattr $C$DW$T$114, DW_AT_language(DW_LANG_C)
     784                            .dwattr $C$DW$T$114, DW_AT_decl_file("C:/TI_CodeComposer/ccsv6/tools/compiler/ti-cgt-arm_5.2.2
     785                            .dwattr $C$DW$T$114, DW_AT_decl_line(0x41)
     786                            .dwattr $C$DW$T$114, DW_AT_decl_column(0x16)
     787                    $C$DW$T$115     .dwtag  DW_TAG_typedef, DW_AT_name("uintmax_t")
     788                            .dwattr $C$DW$T$115, DW_AT_type(*$C$DW$T$15)
     789                            .dwattr $C$DW$T$115, DW_AT_language(DW_LANG_C)
     790                            .dwattr $C$DW$T$115, DW_AT_decl_file("C:/TI_CodeComposer/ccsv6/tools/compiler/ti-cgt-arm_5.2.2
     791                            .dwattr $C$DW$T$115, DW_AT_decl_line(0x57)
     792                            .dwattr $C$DW$T$115, DW_AT_decl_column(0x20)
     793                    $C$DW$T$16      .dwtag  DW_TAG_base_type
     794                            .dwattr $C$DW$T$16, DW_AT_encoding(DW_ATE_float)
     795                            .dwattr $C$DW$T$16, DW_AT_name("float")
     796                            .dwattr $C$DW$T$16, DW_AT_byte_size(0x04)
     797                    $C$DW$T$116     .dwtag  DW_TAG_typedef, DW_AT_name("portFLOAT")
     798                            .dwattr $C$DW$T$116, DW_AT_type(*$C$DW$T$16)
     799                            .dwattr $C$DW$T$116, DW_AT_language(DW_LANG_C)
     800                            .dwattr $C$DW$T$116, DW_AT_decl_file("H:/EECS_690/TI_ARM_Tiva_Projects_EECS_690_Sp16/Source/po
     801                            .dwattr $C$DW$T$116, DW_AT_decl_line(0x61)
     802                            .dwattr $C$DW$T$116, DW_AT_decl_column(0x10)
     803                    $C$DW$T$17      .dwtag  DW_TAG_base_type
     804                            .dwattr $C$DW$T$17, DW_AT_encoding(DW_ATE_float)
     805                            .dwattr $C$DW$T$17, DW_AT_name("double")
     806                            .dwattr $C$DW$T$17, DW_AT_byte_size(0x08)
     807                    $C$DW$T$18      .dwtag  DW_TAG_base_type
     808                            .dwattr $C$DW$T$18, DW_AT_encoding(DW_ATE_float)
     809                            .dwattr $C$DW$T$18, DW_AT_name("long double")
     810                            .dwattr $C$DW$T$18, DW_AT_byte_size(0x08)
     811                    $C$DW$T$117     .dwtag  DW_TAG_typedef, DW_AT_name("_Sysch_t")
     812                            .dwattr $C$DW$T$117, DW_AT_type(*$C$DW$T$6)
     813                            .dwattr $C$DW$T$117, DW_AT_language(DW_LANG_C)
     814                            .dwattr $C$DW$T$117, DW_AT_decl_file("C:/TI_CodeComposer/ccsv6/tools/compiler/ti-cgt-arm_5.2.2
     815                            .dwattr $C$DW$T$117, DW_AT_decl_line(0x218)
     816                            .dwattr $C$DW$T$117, DW_AT_decl_column(0x0e)
     817                    $C$DW$T$39      .dwtag  DW_TAG_const_type
     818                            .dwattr $C$DW$T$39, DW_AT_type(*$C$DW$T$6)
     819                    $C$DW$T$40      .dwtag  DW_TAG_pointer_type
     820                            .dwattr $C$DW$T$40, DW_AT_type(*$C$DW$T$39)
     821                            .dwattr $C$DW$T$40, DW_AT_address_class(0x20)
     822                    $C$DW$T$41      .dwtag  DW_TAG_const_type
     823                            .dwattr $C$DW$T$41, DW_AT_type(*$C$DW$T$40)
     824                    $C$DW$T$118     .dwtag  DW_TAG_pointer_type
     825                            .dwattr $C$DW$T$118, DW_AT_type(*$C$DW$T$6)
TI ARM Assembler PC v5.2.2 Thu Mar 10 16:26:56 2016

Tools Copyright (c) 1996-2015 Texas Instruments Incorporated
Task_Blinky.asm                                                      PAGE   16

     826                            .dwattr $C$DW$T$118, DW_AT_address_class(0x20)
     827                    $C$DW$T$119     .dwtag  DW_TAG_typedef, DW_AT_name("__builtin_va_list")
     828                            .dwattr $C$DW$T$119, DW_AT_type(*$C$DW$T$118)
     829                            .dwattr $C$DW$T$119, DW_AT_language(DW_LANG_C)
     830                            .dwattr $C$DW$T$119, DW_AT_decl_file("../Tasks/Task_Blinky.c")
     831                            .dwattr $C$DW$T$119, DW_AT_decl_line(0x36)
     832                            .dwattr $C$DW$T$119, DW_AT_decl_column(0x01)
     833                    
     834                    $C$DW$T$23      .dwtag  DW_TAG_structure_type
     835                            .dwattr $C$DW$T$23, DW_AT_name("__va_list")
     836                            .dwattr $C$DW$T$23, DW_AT_byte_size(0x04)
     837                    $C$DW$47        .dwtag  DW_TAG_member
     838                            .dwattr $C$DW$47, DW_AT_type(*$C$DW$T$3)
     839                            .dwattr $C$DW$47, DW_AT_name("__ap")
     840                            .dwattr $C$DW$47, DW_AT_TI_symbol_name("__ap")
     841                            .dwattr $C$DW$47, DW_AT_data_member_location[DW_OP_plus_uconst 0x0]
     842                            .dwattr $C$DW$47, DW_AT_accessibility(DW_ACCESS_public)
     843                            .dwattr $C$DW$47, DW_AT_decl_file("C:/TI_CodeComposer/ccsv6/tools/compiler/ti-cgt-arm_5.2.2/in
     844                            .dwattr $C$DW$47, DW_AT_decl_line(0x36)
     845                            .dwattr $C$DW$47, DW_AT_decl_column(0x0c)
     846                            .dwendtag $C$DW$T$23
     847                    
     848                            .dwattr $C$DW$T$23, DW_AT_decl_file("C:/TI_CodeComposer/ccsv6/tools/compiler/ti-cgt-arm_5.2.2/
     849                            .dwattr $C$DW$T$23, DW_AT_decl_line(0x35)
     850                            .dwattr $C$DW$T$23, DW_AT_decl_column(0x10)
     851                    $C$DW$T$120     .dwtag  DW_TAG_typedef, DW_AT_name("va_list")
     852                            .dwattr $C$DW$T$120, DW_AT_type(*$C$DW$T$23)
     853                            .dwattr $C$DW$T$120, DW_AT_language(DW_LANG_C)
     854                            .dwattr $C$DW$T$120, DW_AT_decl_file("C:/TI_CodeComposer/ccsv6/tools/compiler/ti-cgt-arm_5.2.2
     855                            .dwattr $C$DW$T$120, DW_AT_decl_line(0x37)
     856                            .dwattr $C$DW$T$120, DW_AT_decl_column(0x03)
     857                    $C$DW$T$121     .dwtag  DW_TAG_typedef, DW_AT_name("_Va_list")
     858                            .dwattr $C$DW$T$121, DW_AT_type(*$C$DW$T$120)
     859                            .dwattr $C$DW$T$121, DW_AT_language(DW_LANG_C)
     860                            .dwattr $C$DW$T$121, DW_AT_decl_file("C:/TI_CodeComposer/ccsv6/tools/compiler/ti-cgt-arm_5.2.2
     861                            .dwattr $C$DW$T$121, DW_AT_decl_line(0x1f6)
     862                            .dwattr $C$DW$T$121, DW_AT_decl_column(0x17)
     863                    
     864                    $C$DW$T$29      .dwtag  DW_TAG_structure_type
     865                            .dwattr $C$DW$T$29, DW_AT_name("xLIST")
     866                            .dwattr $C$DW$T$29, DW_AT_byte_size(0x14)
     867                    $C$DW$48        .dwtag  DW_TAG_member
     868                            .dwattr $C$DW$48, DW_AT_type(*$C$DW$T$25)
     869                            .dwattr $C$DW$48, DW_AT_name("uxNumberOfItems")
     870                            .dwattr $C$DW$48, DW_AT_TI_symbol_name("uxNumberOfItems")
     871                            .dwattr $C$DW$48, DW_AT_data_member_location[DW_OP_plus_uconst 0x0]
     872                            .dwattr $C$DW$48, DW_AT_accessibility(DW_ACCESS_public)
     873                            .dwattr $C$DW$48, DW_AT_decl_file("H:\EECS_690\TI_ARM_Tiva_Projects_EECS_690_Sp16\Source\inclu
     874                            .dwattr $C$DW$48, DW_AT_decl_line(0xd0)
     875                            .dwattr $C$DW$48, DW_AT_decl_column(0x22)
     876                    $C$DW$49        .dwtag  DW_TAG_member
     877                            .dwattr $C$DW$49, DW_AT_type(*$C$DW$T$27)
     878                            .dwattr $C$DW$49, DW_AT_name("pxIndex")
     879                            .dwattr $C$DW$49, DW_AT_TI_symbol_name("pxIndex")
     880                            .dwattr $C$DW$49, DW_AT_data_member_location[DW_OP_plus_uconst 0x4]
TI ARM Assembler PC v5.2.2 Thu Mar 10 16:26:56 2016

Tools Copyright (c) 1996-2015 Texas Instruments Incorporated
Task_Blinky.asm                                                      PAGE   17

     881                            .dwattr $C$DW$49, DW_AT_accessibility(DW_ACCESS_public)
     882                            .dwattr $C$DW$49, DW_AT_decl_file("H:\EECS_690\TI_ARM_Tiva_Projects_EECS_690_Sp16\Source\inclu
     883                            .dwattr $C$DW$49, DW_AT_decl_line(0xd1)
     884                            .dwattr $C$DW$49, DW_AT_decl_column(0x23)
     885                    $C$DW$50        .dwtag  DW_TAG_member
     886                            .dwattr $C$DW$50, DW_AT_type(*$C$DW$T$28)
     887                            .dwattr $C$DW$50, DW_AT_name("xListEnd")
     888                            .dwattr $C$DW$50, DW_AT_TI_symbol_name("xListEnd")
     889                            .dwattr $C$DW$50, DW_AT_data_member_location[DW_OP_plus_uconst 0x8]
     890                            .dwattr $C$DW$50, DW_AT_accessibility(DW_ACCESS_public)
     891                            .dwattr $C$DW$50, DW_AT_decl_file("H:\EECS_690\TI_ARM_Tiva_Projects_EECS_690_Sp16\Source\inclu
     892                            .dwattr $C$DW$50, DW_AT_decl_line(0xd2)
     893                            .dwattr $C$DW$50, DW_AT_decl_column(0x11)
     894                            .dwendtag $C$DW$T$29
     895                    
     896                            .dwattr $C$DW$T$29, DW_AT_decl_file("H:\EECS_690\TI_ARM_Tiva_Projects_EECS_690_Sp16\Source\inc
     897                            .dwattr $C$DW$T$29, DW_AT_decl_line(0xcd)
     898                            .dwattr $C$DW$T$29, DW_AT_decl_column(0x10)
     899                    $C$DW$T$122     .dwtag  DW_TAG_typedef, DW_AT_name("List_t")
     900                            .dwattr $C$DW$T$122, DW_AT_type(*$C$DW$T$29)
     901                            .dwattr $C$DW$T$122, DW_AT_language(DW_LANG_C)
     902                            .dwattr $C$DW$T$122, DW_AT_decl_file("H:\EECS_690\TI_ARM_Tiva_Projects_EECS_690_Sp16\Source\in
     903                            .dwattr $C$DW$T$122, DW_AT_decl_line(0xd4)
     904                            .dwattr $C$DW$T$122, DW_AT_decl_column(0x03)
     905                    
     906                    $C$DW$T$32      .dwtag  DW_TAG_structure_type
     907                            .dwattr $C$DW$T$32, DW_AT_name("xLIST_ITEM")
     908                            .dwattr $C$DW$T$32, DW_AT_byte_size(0x14)
     909                    $C$DW$51        .dwtag  DW_TAG_member
     910                            .dwattr $C$DW$51, DW_AT_type(*$C$DW$T$30)
     911                            .dwattr $C$DW$51, DW_AT_name("xItemValue")
     912                            .dwattr $C$DW$51, DW_AT_TI_symbol_name("xItemValue")
     913                            .dwattr $C$DW$51, DW_AT_data_member_location[DW_OP_plus_uconst 0x0]
     914                            .dwattr $C$DW$51, DW_AT_accessibility(DW_ACCESS_public)
     915                            .dwattr $C$DW$51, DW_AT_decl_file("H:\EECS_690\TI_ARM_Tiva_Projects_EECS_690_Sp16\Source\inclu
     916                            .dwattr $C$DW$51, DW_AT_decl_line(0xb8)
     917                            .dwattr $C$DW$51, DW_AT_decl_column(0x21)
     918                    $C$DW$52        .dwtag  DW_TAG_member
     919                            .dwattr $C$DW$52, DW_AT_type(*$C$DW$T$31)
     920                            .dwattr $C$DW$52, DW_AT_name("pxNext")
     921                            .dwattr $C$DW$52, DW_AT_TI_symbol_name("pxNext")
     922                            .dwattr $C$DW$52, DW_AT_data_member_location[DW_OP_plus_uconst 0x4]
     923                            .dwattr $C$DW$52, DW_AT_accessibility(DW_ACCESS_public)
     924                            .dwattr $C$DW$52, DW_AT_decl_file("H:\EECS_690\TI_ARM_Tiva_Projects_EECS_690_Sp16\Source\inclu
     925                            .dwattr $C$DW$52, DW_AT_decl_line(0xb9)
     926                            .dwattr $C$DW$52, DW_AT_decl_column(0x2a)
     927                    $C$DW$53        .dwtag  DW_TAG_member
     928                            .dwattr $C$DW$53, DW_AT_type(*$C$DW$T$31)
     929                            .dwattr $C$DW$53, DW_AT_name("pxPrevious")
     930                            .dwattr $C$DW$53, DW_AT_TI_symbol_name("pxPrevious")
     931                            .dwattr $C$DW$53, DW_AT_data_member_location[DW_OP_plus_uconst 0x8]
     932                            .dwattr $C$DW$53, DW_AT_accessibility(DW_ACCESS_public)
     933                            .dwattr $C$DW$53, DW_AT_decl_file("H:\EECS_690\TI_ARM_Tiva_Projects_EECS_690_Sp16\Source\inclu
     934                            .dwattr $C$DW$53, DW_AT_decl_line(0xba)
     935                            .dwattr $C$DW$53, DW_AT_decl_column(0x2a)
TI ARM Assembler PC v5.2.2 Thu Mar 10 16:26:56 2016

Tools Copyright (c) 1996-2015 Texas Instruments Incorporated
Task_Blinky.asm                                                      PAGE   18

     936                    $C$DW$54        .dwtag  DW_TAG_member
     937                            .dwattr $C$DW$54, DW_AT_type(*$C$DW$T$3)
     938                            .dwattr $C$DW$54, DW_AT_name("pvOwner")
     939                            .dwattr $C$DW$54, DW_AT_TI_symbol_name("pvOwner")
     940                            .dwattr $C$DW$54, DW_AT_data_member_location[DW_OP_plus_uconst 0xc]
     941                            .dwattr $C$DW$54, DW_AT_accessibility(DW_ACCESS_public)
     942                            .dwattr $C$DW$54, DW_AT_decl_file("H:\EECS_690\TI_ARM_Tiva_Projects_EECS_690_Sp16\Source\inclu
     943                            .dwattr $C$DW$54, DW_AT_decl_line(0xbb)
     944                            .dwattr $C$DW$54, DW_AT_decl_column(0x09)
     945                    $C$DW$55        .dwtag  DW_TAG_member
     946                            .dwattr $C$DW$55, DW_AT_type(*$C$DW$T$3)
     947                            .dwattr $C$DW$55, DW_AT_name("pvContainer")
     948                            .dwattr $C$DW$55, DW_AT_TI_symbol_name("pvContainer")
     949                            .dwattr $C$DW$55, DW_AT_data_member_location[DW_OP_plus_uconst 0x10]
     950                            .dwattr $C$DW$55, DW_AT_accessibility(DW_ACCESS_public)
     951                            .dwattr $C$DW$55, DW_AT_decl_file("H:\EECS_690\TI_ARM_Tiva_Projects_EECS_690_Sp16\Source\inclu
     952                            .dwattr $C$DW$55, DW_AT_decl_line(0xbc)
     953                            .dwattr $C$DW$55, DW_AT_decl_column(0x1d)
     954                            .dwendtag $C$DW$T$32
     955                    
     956                            .dwattr $C$DW$T$32, DW_AT_decl_file("H:\EECS_690\TI_ARM_Tiva_Projects_EECS_690_Sp16\Source\inc
     957                            .dwattr $C$DW$T$32, DW_AT_decl_line(0xb5)
     958                            .dwattr $C$DW$T$32, DW_AT_decl_column(0x08)
     959                    $C$DW$T$26      .dwtag  DW_TAG_typedef, DW_AT_name("ListItem_t")
     960                            .dwattr $C$DW$T$26, DW_AT_type(*$C$DW$T$32)
     961                            .dwattr $C$DW$T$26, DW_AT_language(DW_LANG_C)
     962                            .dwattr $C$DW$T$26, DW_AT_decl_file("H:\EECS_690\TI_ARM_Tiva_Projects_EECS_690_Sp16\Source\inc
     963                            .dwattr $C$DW$T$26, DW_AT_decl_line(0xbf)
     964                            .dwattr $C$DW$T$26, DW_AT_decl_column(0x1b)
     965                    $C$DW$T$27      .dwtag  DW_TAG_pointer_type
     966                            .dwattr $C$DW$T$27, DW_AT_type(*$C$DW$T$26)
     967                            .dwattr $C$DW$T$27, DW_AT_address_class(0x20)
     968                    $C$DW$T$31      .dwtag  DW_TAG_pointer_type
     969                            .dwattr $C$DW$T$31, DW_AT_type(*$C$DW$T$32)
     970                            .dwattr $C$DW$T$31, DW_AT_address_class(0x20)
     971                    
     972                    $C$DW$T$33      .dwtag  DW_TAG_structure_type
     973                            .dwattr $C$DW$T$33, DW_AT_name("xMEMORY_REGION")
     974                            .dwattr $C$DW$T$33, DW_AT_byte_size(0x0c)
     975                    $C$DW$56        .dwtag  DW_TAG_member
     976                            .dwattr $C$DW$56, DW_AT_type(*$C$DW$T$3)
     977                            .dwattr $C$DW$56, DW_AT_name("pvBaseAddress")
     978                            .dwattr $C$DW$56, DW_AT_TI_symbol_name("pvBaseAddress")
     979                            .dwattr $C$DW$56, DW_AT_data_member_location[DW_OP_plus_uconst 0x0]
     980                            .dwattr $C$DW$56, DW_AT_accessibility(DW_ACCESS_public)
     981                            .dwattr $C$DW$56, DW_AT_decl_file("H:/EECS_690/TI_ARM_Tiva_Projects_EECS_690_Sp16/Source/inclu
     982                            .dwattr $C$DW$56, DW_AT_decl_line(0x91)
     983                            .dwattr $C$DW$56, DW_AT_decl_column(0x08)
     984                    $C$DW$57        .dwtag  DW_TAG_member
     985                            .dwattr $C$DW$57, DW_AT_type(*$C$DW$T$24)
     986                            .dwattr $C$DW$57, DW_AT_name("ulLengthInBytes")
     987                            .dwattr $C$DW$57, DW_AT_TI_symbol_name("ulLengthInBytes")
     988                            .dwattr $C$DW$57, DW_AT_data_member_location[DW_OP_plus_uconst 0x4]
     989                            .dwattr $C$DW$57, DW_AT_accessibility(DW_ACCESS_public)
     990                            .dwattr $C$DW$57, DW_AT_decl_file("H:/EECS_690/TI_ARM_Tiva_Projects_EECS_690_Sp16/Source/inclu
TI ARM Assembler PC v5.2.2 Thu Mar 10 16:26:56 2016

Tools Copyright (c) 1996-2015 Texas Instruments Incorporated
Task_Blinky.asm                                                      PAGE   19

     991                            .dwattr $C$DW$57, DW_AT_decl_line(0x92)
     992                            .dwattr $C$DW$57, DW_AT_decl_column(0x0b)
     993                    $C$DW$58        .dwtag  DW_TAG_member
     994                            .dwattr $C$DW$58, DW_AT_type(*$C$DW$T$24)
     995                            .dwattr $C$DW$58, DW_AT_name("ulParameters")
     996                            .dwattr $C$DW$58, DW_AT_TI_symbol_name("ulParameters")
     997                            .dwattr $C$DW$58, DW_AT_data_member_location[DW_OP_plus_uconst 0x8]
     998                            .dwattr $C$DW$58, DW_AT_accessibility(DW_ACCESS_public)
     999                            .dwattr $C$DW$58, DW_AT_decl_file("H:/EECS_690/TI_ARM_Tiva_Projects_EECS_690_Sp16/Source/inclu
    1000                            .dwattr $C$DW$58, DW_AT_decl_line(0x93)
    1001                            .dwattr $C$DW$58, DW_AT_decl_column(0x0b)
    1002                            .dwendtag $C$DW$T$33
    1003                    
    1004                            .dwattr $C$DW$T$33, DW_AT_decl_file("H:/EECS_690/TI_ARM_Tiva_Projects_EECS_690_Sp16/Source/inc
    1005                            .dwattr $C$DW$T$33, DW_AT_decl_line(0x8f)
    1006                            .dwattr $C$DW$T$33, DW_AT_decl_column(0x10)
    1007                    $C$DW$T$45      .dwtag  DW_TAG_typedef, DW_AT_name("MemoryRegion_t")
    1008                            .dwattr $C$DW$T$45, DW_AT_type(*$C$DW$T$33)
    1009                            .dwattr $C$DW$T$45, DW_AT_language(DW_LANG_C)
    1010                            .dwattr $C$DW$T$45, DW_AT_decl_file("H:/EECS_690/TI_ARM_Tiva_Projects_EECS_690_Sp16/Source/inc
    1011                            .dwattr $C$DW$T$45, DW_AT_decl_line(0x94)
    1012                            .dwattr $C$DW$T$45, DW_AT_decl_column(0x03)
    1013                    
    1014                    $C$DW$T$46      .dwtag  DW_TAG_array_type
    1015                            .dwattr $C$DW$T$46, DW_AT_type(*$C$DW$T$45)
    1016                            .dwattr $C$DW$T$46, DW_AT_language(DW_LANG_C)
    1017                            .dwattr $C$DW$T$46, DW_AT_byte_size(0x0c)
    1018                    $C$DW$59        .dwtag  DW_TAG_subrange_type
    1019                            .dwattr $C$DW$59, DW_AT_upper_bound(0x00)
    1020                            .dwendtag $C$DW$T$46
    1021                    
    1022                    
    1023                    $C$DW$T$34      .dwtag  DW_TAG_structure_type
    1024                            .dwattr $C$DW$T$34, DW_AT_name("xMINI_LIST_ITEM")
    1025                            .dwattr $C$DW$T$34, DW_AT_byte_size(0x0c)
    1026                    $C$DW$60        .dwtag  DW_TAG_member
    1027                            .dwattr $C$DW$60, DW_AT_type(*$C$DW$T$30)
    1028                            .dwattr $C$DW$60, DW_AT_name("xItemValue")
    1029                            .dwattr $C$DW$60, DW_AT_TI_symbol_name("xItemValue")
    1030                            .dwattr $C$DW$60, DW_AT_data_member_location[DW_OP_plus_uconst 0x0]
    1031                            .dwattr $C$DW$60, DW_AT_accessibility(DW_ACCESS_public)
    1032                            .dwattr $C$DW$60, DW_AT_decl_file("H:\EECS_690\TI_ARM_Tiva_Projects_EECS_690_Sp16\Source\inclu
    1033                            .dwattr $C$DW$60, DW_AT_decl_line(0xc4)
    1034                            .dwattr $C$DW$60, DW_AT_decl_column(0x21)
    1035                    $C$DW$61        .dwtag  DW_TAG_member
    1036                            .dwattr $C$DW$61, DW_AT_type(*$C$DW$T$31)
    1037                            .dwattr $C$DW$61, DW_AT_name("pxNext")
    1038                            .dwattr $C$DW$61, DW_AT_TI_symbol_name("pxNext")
    1039                            .dwattr $C$DW$61, DW_AT_data_member_location[DW_OP_plus_uconst 0x4]
    1040                            .dwattr $C$DW$61, DW_AT_accessibility(DW_ACCESS_public)
    1041                            .dwattr $C$DW$61, DW_AT_decl_file("H:\EECS_690\TI_ARM_Tiva_Projects_EECS_690_Sp16\Source\inclu
    1042                            .dwattr $C$DW$61, DW_AT_decl_line(0xc5)
    1043                            .dwattr $C$DW$61, DW_AT_decl_column(0x2a)
    1044                    $C$DW$62        .dwtag  DW_TAG_member
    1045                            .dwattr $C$DW$62, DW_AT_type(*$C$DW$T$31)
TI ARM Assembler PC v5.2.2 Thu Mar 10 16:26:56 2016

Tools Copyright (c) 1996-2015 Texas Instruments Incorporated
Task_Blinky.asm                                                      PAGE   20

    1046                            .dwattr $C$DW$62, DW_AT_name("pxPrevious")
    1047                            .dwattr $C$DW$62, DW_AT_TI_symbol_name("pxPrevious")
    1048                            .dwattr $C$DW$62, DW_AT_data_member_location[DW_OP_plus_uconst 0x8]
    1049                            .dwattr $C$DW$62, DW_AT_accessibility(DW_ACCESS_public)
    1050                            .dwattr $C$DW$62, DW_AT_decl_file("H:\EECS_690\TI_ARM_Tiva_Projects_EECS_690_Sp16\Source\inclu
    1051                            .dwattr $C$DW$62, DW_AT_decl_line(0xc6)
    1052                            .dwattr $C$DW$62, DW_AT_decl_column(0x2a)
    1053                            .dwendtag $C$DW$T$34
    1054                    
    1055                            .dwattr $C$DW$T$34, DW_AT_decl_file("H:\EECS_690\TI_ARM_Tiva_Projects_EECS_690_Sp16\Source\inc
    1056                            .dwattr $C$DW$T$34, DW_AT_decl_line(0xc1)
    1057                            .dwattr $C$DW$T$34, DW_AT_decl_column(0x08)
    1058                    $C$DW$T$28      .dwtag  DW_TAG_typedef, DW_AT_name("MiniListItem_t")
    1059                            .dwattr $C$DW$T$28, DW_AT_type(*$C$DW$T$34)
    1060                            .dwattr $C$DW$T$28, DW_AT_language(DW_LANG_C)
    1061                            .dwattr $C$DW$T$28, DW_AT_decl_file("H:\EECS_690\TI_ARM_Tiva_Projects_EECS_690_Sp16\Source\inc
    1062                            .dwattr $C$DW$T$28, DW_AT_decl_line(0xc8)
    1063                            .dwattr $C$DW$T$28, DW_AT_decl_column(0x20)
    1064                    
    1065                    $C$DW$T$47      .dwtag  DW_TAG_structure_type
    1066                            .dwattr $C$DW$T$47, DW_AT_name("xTASK_PARAMETERS")
    1067                            .dwattr $C$DW$T$47, DW_AT_byte_size(0x24)
    1068                    $C$DW$63        .dwtag  DW_TAG_member
    1069                            .dwattr $C$DW$63, DW_AT_type(*$C$DW$T$37)
    1070                            .dwattr $C$DW$63, DW_AT_name("pvTaskCode")
    1071                            .dwattr $C$DW$63, DW_AT_TI_symbol_name("pvTaskCode")
    1072                            .dwattr $C$DW$63, DW_AT_data_member_location[DW_OP_plus_uconst 0x0]
    1073                            .dwattr $C$DW$63, DW_AT_accessibility(DW_ACCESS_public)
    1074                            .dwattr $C$DW$63, DW_AT_decl_file("H:/EECS_690/TI_ARM_Tiva_Projects_EECS_690_Sp16/Source/inclu
    1075                            .dwattr $C$DW$63, DW_AT_decl_line(0x9b)
    1076                            .dwattr $C$DW$63, DW_AT_decl_column(0x11)
    1077                    $C$DW$64        .dwtag  DW_TAG_member
    1078                            .dwattr $C$DW$64, DW_AT_type(*$C$DW$T$41)
    1079                            .dwattr $C$DW$64, DW_AT_name("pcName")
    1080                            .dwattr $C$DW$64, DW_AT_TI_symbol_name("pcName")
    1081                            .dwattr $C$DW$64, DW_AT_data_member_location[DW_OP_plus_uconst 0x4]
    1082                            .dwattr $C$DW$64, DW_AT_accessibility(DW_ACCESS_public)
    1083                            .dwattr $C$DW$64, DW_AT_decl_file("H:/EECS_690/TI_ARM_Tiva_Projects_EECS_690_Sp16/Source/inclu
    1084                            .dwattr $C$DW$64, DW_AT_decl_line(0x9c)
    1085                            .dwattr $C$DW$64, DW_AT_decl_column(0x15)
    1086                    $C$DW$65        .dwtag  DW_TAG_member
    1087                            .dwattr $C$DW$65, DW_AT_type(*$C$DW$T$42)
    1088                            .dwattr $C$DW$65, DW_AT_name("usStackDepth")
    1089                            .dwattr $C$DW$65, DW_AT_TI_symbol_name("usStackDepth")
    1090                            .dwattr $C$DW$65, DW_AT_data_member_location[DW_OP_plus_uconst 0x8]
    1091                            .dwattr $C$DW$65, DW_AT_accessibility(DW_ACCESS_public)
    1092                            .dwattr $C$DW$65, DW_AT_decl_file("H:/EECS_690/TI_ARM_Tiva_Projects_EECS_690_Sp16/Source/inclu
    1093                            .dwattr $C$DW$65, DW_AT_decl_line(0x9d)
    1094                            .dwattr $C$DW$65, DW_AT_decl_column(0x0b)
    1095                    $C$DW$66        .dwtag  DW_TAG_member
    1096                            .dwattr $C$DW$66, DW_AT_type(*$C$DW$T$3)
    1097                            .dwattr $C$DW$66, DW_AT_name("pvParameters")
    1098                            .dwattr $C$DW$66, DW_AT_TI_symbol_name("pvParameters")
    1099                            .dwattr $C$DW$66, DW_AT_data_member_location[DW_OP_plus_uconst 0xc]
    1100                            .dwattr $C$DW$66, DW_AT_accessibility(DW_ACCESS_public)
TI ARM Assembler PC v5.2.2 Thu Mar 10 16:26:56 2016

Tools Copyright (c) 1996-2015 Texas Instruments Incorporated
Task_Blinky.asm                                                      PAGE   21

    1101                            .dwattr $C$DW$66, DW_AT_decl_file("H:/EECS_690/TI_ARM_Tiva_Projects_EECS_690_Sp16/Source/inclu
    1102                            .dwattr $C$DW$66, DW_AT_decl_line(0x9e)
    1103                            .dwattr $C$DW$66, DW_AT_decl_column(0x08)
    1104                    $C$DW$67        .dwtag  DW_TAG_member
    1105                            .dwattr $C$DW$67, DW_AT_type(*$C$DW$T$25)
    1106                            .dwattr $C$DW$67, DW_AT_name("uxPriority")
    1107                            .dwattr $C$DW$67, DW_AT_TI_symbol_name("uxPriority")
    1108                            .dwattr $C$DW$67, DW_AT_data_member_location[DW_OP_plus_uconst 0x10]
    1109                            .dwattr $C$DW$67, DW_AT_accessibility(DW_ACCESS_public)
    1110                            .dwattr $C$DW$67, DW_AT_decl_file("H:/EECS_690/TI_ARM_Tiva_Projects_EECS_690_Sp16/Source/inclu
    1111                            .dwattr $C$DW$67, DW_AT_decl_line(0x9f)
    1112                            .dwattr $C$DW$67, DW_AT_decl_column(0x0e)
    1113                    $C$DW$68        .dwtag  DW_TAG_member
    1114                            .dwattr $C$DW$68, DW_AT_type(*$C$DW$T$44)
    1115                            .dwattr $C$DW$68, DW_AT_name("puxStackBuffer")
    1116                            .dwattr $C$DW$68, DW_AT_TI_symbol_name("puxStackBuffer")
    1117                            .dwattr $C$DW$68, DW_AT_data_member_location[DW_OP_plus_uconst 0x14]
    1118                            .dwattr $C$DW$68, DW_AT_accessibility(DW_ACCESS_public)
    1119                            .dwattr $C$DW$68, DW_AT_decl_file("H:/EECS_690/TI_ARM_Tiva_Projects_EECS_690_Sp16/Source/inclu
    1120                            .dwattr $C$DW$68, DW_AT_decl_line(0xa0)
    1121                            .dwattr $C$DW$68, DW_AT_decl_column(0x0f)
    1122                    $C$DW$69        .dwtag  DW_TAG_member
    1123                            .dwattr $C$DW$69, DW_AT_type(*$C$DW$T$46)
    1124                            .dwattr $C$DW$69, DW_AT_name("xRegions")
    1125                            .dwattr $C$DW$69, DW_AT_TI_symbol_name("xRegions")
    1126                            .dwattr $C$DW$69, DW_AT_data_member_location[DW_OP_plus_uconst 0x18]
    1127                            .dwattr $C$DW$69, DW_AT_accessibility(DW_ACCESS_public)
    1128                            .dwattr $C$DW$69, DW_AT_decl_file("H:/EECS_690/TI_ARM_Tiva_Projects_EECS_690_Sp16/Source/inclu
    1129                            .dwattr $C$DW$69, DW_AT_decl_line(0xa1)
    1130                            .dwattr $C$DW$69, DW_AT_decl_column(0x11)
    1131                            .dwendtag $C$DW$T$47
    1132                    
    1133                            .dwattr $C$DW$T$47, DW_AT_decl_file("H:/EECS_690/TI_ARM_Tiva_Projects_EECS_690_Sp16/Source/inc
    1134                            .dwattr $C$DW$T$47, DW_AT_decl_line(0x99)
    1135                            .dwattr $C$DW$T$47, DW_AT_decl_column(0x10)
    1136                    $C$DW$T$123     .dwtag  DW_TAG_typedef, DW_AT_name("TaskParameters_t")
    1137                            .dwattr $C$DW$T$123, DW_AT_type(*$C$DW$T$47)
    1138                            .dwattr $C$DW$T$123, DW_AT_language(DW_LANG_C)
    1139                            .dwattr $C$DW$T$123, DW_AT_decl_file("H:/EECS_690/TI_ARM_Tiva_Projects_EECS_690_Sp16/Source/in
    1140                            .dwattr $C$DW$T$123, DW_AT_decl_line(0xa2)
    1141                            .dwattr $C$DW$T$123, DW_AT_decl_column(0x03)
    1142                    
    1143                    $C$DW$T$51      .dwtag  DW_TAG_structure_type
    1144                            .dwattr $C$DW$T$51, DW_AT_name("xTASK_STATUS")
    1145                            .dwattr $C$DW$T$51, DW_AT_byte_size(0x20)
    1146                    $C$DW$70        .dwtag  DW_TAG_member
    1147                            .dwattr $C$DW$70, DW_AT_type(*$C$DW$T$48)
    1148                            .dwattr $C$DW$70, DW_AT_name("xHandle")
    1149                            .dwattr $C$DW$70, DW_AT_TI_symbol_name("xHandle")
    1150                            .dwattr $C$DW$70, DW_AT_data_member_location[DW_OP_plus_uconst 0x0]
    1151                            .dwattr $C$DW$70, DW_AT_accessibility(DW_ACCESS_public)
    1152                            .dwattr $C$DW$70, DW_AT_decl_file("H:/EECS_690/TI_ARM_Tiva_Projects_EECS_690_Sp16/Source/inclu
    1153                            .dwattr $C$DW$70, DW_AT_decl_line(0xa8)
    1154                            .dwattr $C$DW$70, DW_AT_decl_column(0x0f)
    1155                    $C$DW$71        .dwtag  DW_TAG_member
TI ARM Assembler PC v5.2.2 Thu Mar 10 16:26:56 2016

Tools Copyright (c) 1996-2015 Texas Instruments Incorporated
Task_Blinky.asm                                                      PAGE   22

    1156                            .dwattr $C$DW$71, DW_AT_type(*$C$DW$T$40)
    1157                            .dwattr $C$DW$71, DW_AT_name("pcTaskName")
    1158                            .dwattr $C$DW$71, DW_AT_TI_symbol_name("pcTaskName")
    1159                            .dwattr $C$DW$71, DW_AT_data_member_location[DW_OP_plus_uconst 0x4]
    1160                            .dwattr $C$DW$71, DW_AT_accessibility(DW_ACCESS_public)
    1161                            .dwattr $C$DW$71, DW_AT_decl_file("H:/EECS_690/TI_ARM_Tiva_Projects_EECS_690_Sp16/Source/inclu
    1162                            .dwattr $C$DW$71, DW_AT_decl_line(0xa9)
    1163                            .dwattr $C$DW$71, DW_AT_decl_column(0x0e)
    1164                    $C$DW$72        .dwtag  DW_TAG_member
    1165                            .dwattr $C$DW$72, DW_AT_type(*$C$DW$T$25)
    1166                            .dwattr $C$DW$72, DW_AT_name("xTaskNumber")
    1167                            .dwattr $C$DW$72, DW_AT_TI_symbol_name("xTaskNumber")
    1168                            .dwattr $C$DW$72, DW_AT_data_member_location[DW_OP_plus_uconst 0x8]
    1169                            .dwattr $C$DW$72, DW_AT_accessibility(DW_ACCESS_public)
    1170                            .dwattr $C$DW$72, DW_AT_decl_file("H:/EECS_690/TI_ARM_Tiva_Projects_EECS_690_Sp16/Source/inclu
    1171                            .dwattr $C$DW$72, DW_AT_decl_line(0xaa)
    1172                            .dwattr $C$DW$72, DW_AT_decl_column(0x0e)
    1173                    $C$DW$73        .dwtag  DW_TAG_member
    1174                            .dwattr $C$DW$73, DW_AT_type(*$C$DW$T$50)
    1175                            .dwattr $C$DW$73, DW_AT_name("eCurrentState")
    1176                            .dwattr $C$DW$73, DW_AT_TI_symbol_name("eCurrentState")
    1177                            .dwattr $C$DW$73, DW_AT_data_member_location[DW_OP_plus_uconst 0xc]
    1178                            .dwattr $C$DW$73, DW_AT_accessibility(DW_ACCESS_public)
    1179                            .dwattr $C$DW$73, DW_AT_decl_file("H:/EECS_690/TI_ARM_Tiva_Projects_EECS_690_Sp16/Source/inclu
    1180                            .dwattr $C$DW$73, DW_AT_decl_line(0xab)
    1181                            .dwattr $C$DW$73, DW_AT_decl_column(0x0d)
    1182                    $C$DW$74        .dwtag  DW_TAG_member
    1183                            .dwattr $C$DW$74, DW_AT_type(*$C$DW$T$25)
    1184                            .dwattr $C$DW$74, DW_AT_name("uxCurrentPriority")
    1185                            .dwattr $C$DW$74, DW_AT_TI_symbol_name("uxCurrentPriority")
    1186                            .dwattr $C$DW$74, DW_AT_data_member_location[DW_OP_plus_uconst 0x10]
    1187                            .dwattr $C$DW$74, DW_AT_accessibility(DW_ACCESS_public)
    1188                            .dwattr $C$DW$74, DW_AT_decl_file("H:/EECS_690/TI_ARM_Tiva_Projects_EECS_690_Sp16/Source/inclu
    1189                            .dwattr $C$DW$74, DW_AT_decl_line(0xac)
    1190                            .dwattr $C$DW$74, DW_AT_decl_column(0x0e)
    1191                    $C$DW$75        .dwtag  DW_TAG_member
    1192                            .dwattr $C$DW$75, DW_AT_type(*$C$DW$T$25)
    1193                            .dwattr $C$DW$75, DW_AT_name("uxBasePriority")
    1194                            .dwattr $C$DW$75, DW_AT_TI_symbol_name("uxBasePriority")
    1195                            .dwattr $C$DW$75, DW_AT_data_member_location[DW_OP_plus_uconst 0x14]
    1196                            .dwattr $C$DW$75, DW_AT_accessibility(DW_ACCESS_public)
    1197                            .dwattr $C$DW$75, DW_AT_decl_file("H:/EECS_690/TI_ARM_Tiva_Projects_EECS_690_Sp16/Source/inclu
    1198                            .dwattr $C$DW$75, DW_AT_decl_line(0xad)
    1199                            .dwattr $C$DW$75, DW_AT_decl_column(0x0e)
    1200                    $C$DW$76        .dwtag  DW_TAG_member
    1201                            .dwattr $C$DW$76, DW_AT_type(*$C$DW$T$24)
    1202                            .dwattr $C$DW$76, DW_AT_name("ulRunTimeCounter")
    1203                            .dwattr $C$DW$76, DW_AT_TI_symbol_name("ulRunTimeCounter")
    1204                            .dwattr $C$DW$76, DW_AT_data_member_location[DW_OP_plus_uconst 0x18]
    1205                            .dwattr $C$DW$76, DW_AT_accessibility(DW_ACCESS_public)
    1206                            .dwattr $C$DW$76, DW_AT_decl_file("H:/EECS_690/TI_ARM_Tiva_Projects_EECS_690_Sp16/Source/inclu
    1207                            .dwattr $C$DW$76, DW_AT_decl_line(0xae)
    1208                            .dwattr $C$DW$76, DW_AT_decl_column(0x0b)
    1209                    $C$DW$77        .dwtag  DW_TAG_member
    1210                            .dwattr $C$DW$77, DW_AT_type(*$C$DW$T$42)
TI ARM Assembler PC v5.2.2 Thu Mar 10 16:26:56 2016

Tools Copyright (c) 1996-2015 Texas Instruments Incorporated
Task_Blinky.asm                                                      PAGE   23

    1211                            .dwattr $C$DW$77, DW_AT_name("usStackHighWaterMark")
    1212                            .dwattr $C$DW$77, DW_AT_TI_symbol_name("usStackHighWaterMark")
    1213                            .dwattr $C$DW$77, DW_AT_data_member_location[DW_OP_plus_uconst 0x1c]
    1214                            .dwattr $C$DW$77, DW_AT_accessibility(DW_ACCESS_public)
    1215                            .dwattr $C$DW$77, DW_AT_decl_file("H:/EECS_690/TI_ARM_Tiva_Projects_EECS_690_Sp16/Source/inclu
    1216                            .dwattr $C$DW$77, DW_AT_decl_line(0xaf)
    1217                            .dwattr $C$DW$77, DW_AT_decl_column(0x0b)
    1218                            .dwendtag $C$DW$T$51
    1219                    
    1220                            .dwattr $C$DW$T$51, DW_AT_decl_file("H:/EECS_690/TI_ARM_Tiva_Projects_EECS_690_Sp16/Source/inc
    1221                            .dwattr $C$DW$T$51, DW_AT_decl_line(0xa6)
    1222                            .dwattr $C$DW$T$51, DW_AT_decl_column(0x10)
    1223                    $C$DW$T$124     .dwtag  DW_TAG_typedef, DW_AT_name("TaskStatus_t")
    1224                            .dwattr $C$DW$T$124, DW_AT_type(*$C$DW$T$51)
    1225                            .dwattr $C$DW$T$124, DW_AT_language(DW_LANG_C)
    1226                            .dwattr $C$DW$T$124, DW_AT_decl_file("H:/EECS_690/TI_ARM_Tiva_Projects_EECS_690_Sp16/Source/in
    1227                            .dwattr $C$DW$T$124, DW_AT_decl_line(0xb0)
    1228                            .dwattr $C$DW$T$124, DW_AT_decl_column(0x03)
    1229                    
    1230                    $C$DW$T$54      .dwtag  DW_TAG_structure_type
    1231                            .dwattr $C$DW$T$54, DW_AT_name("xTIME_OUT")
    1232                            .dwattr $C$DW$T$54, DW_AT_byte_size(0x08)
    1233                    $C$DW$78        .dwtag  DW_TAG_member
    1234                            .dwattr $C$DW$78, DW_AT_type(*$C$DW$T$53)
    1235                            .dwattr $C$DW$78, DW_AT_name("xOverflowCount")
    1236                            .dwattr $C$DW$78, DW_AT_TI_symbol_name("xOverflowCount")
    1237                            .dwattr $C$DW$78, DW_AT_data_member_location[DW_OP_plus_uconst 0x0]
    1238                            .dwattr $C$DW$78, DW_AT_accessibility(DW_ACCESS_public)
    1239                            .dwattr $C$DW$78, DW_AT_decl_file("H:/EECS_690/TI_ARM_Tiva_Projects_EECS_690_Sp16/Source/inclu
    1240                            .dwattr $C$DW$78, DW_AT_decl_line(0x88)
    1241                            .dwattr $C$DW$78, DW_AT_decl_column(0x0d)
    1242                    $C$DW$79        .dwtag  DW_TAG_member
    1243                            .dwattr $C$DW$79, DW_AT_type(*$C$DW$T$30)
    1244                            .dwattr $C$DW$79, DW_AT_name("xTimeOnEntering")
    1245                            .dwattr $C$DW$79, DW_AT_TI_symbol_name("xTimeOnEntering")
    1246                            .dwattr $C$DW$79, DW_AT_data_member_location[DW_OP_plus_uconst 0x4]
    1247                            .dwattr $C$DW$79, DW_AT_accessibility(DW_ACCESS_public)
    1248                            .dwattr $C$DW$79, DW_AT_decl_file("H:/EECS_690/TI_ARM_Tiva_Projects_EECS_690_Sp16/Source/inclu
    1249                            .dwattr $C$DW$79, DW_AT_decl_line(0x89)
    1250                            .dwattr $C$DW$79, DW_AT_decl_column(0x0d)
    1251                            .dwendtag $C$DW$T$54
    1252                    
    1253                            .dwattr $C$DW$T$54, DW_AT_decl_file("H:/EECS_690/TI_ARM_Tiva_Projects_EECS_690_Sp16/Source/inc
    1254                            .dwattr $C$DW$T$54, DW_AT_decl_line(0x86)
    1255                            .dwattr $C$DW$T$54, DW_AT_decl_column(0x10)
    1256                    $C$DW$T$125     .dwtag  DW_TAG_typedef, DW_AT_name("TimeOut_t")
    1257                            .dwattr $C$DW$T$125, DW_AT_type(*$C$DW$T$54)
    1258                            .dwattr $C$DW$T$125, DW_AT_language(DW_LANG_C)
    1259                            .dwattr $C$DW$T$125, DW_AT_decl_file("H:/EECS_690/TI_ARM_Tiva_Projects_EECS_690_Sp16/Source/in
    1260                            .dwattr $C$DW$T$125, DW_AT_decl_line(0x8a)
    1261                            .dwattr $C$DW$T$125, DW_AT_decl_column(0x03)
    1262                            .dwattr $C$DW$CU, DW_AT_language(DW_LANG_C)
    1263                    
    1264                    ;***************************************************************
    1265                    ;* DWARF CIE ENTRIES                                           *
TI ARM Assembler PC v5.2.2 Thu Mar 10 16:26:56 2016

Tools Copyright (c) 1996-2015 Texas Instruments Incorporated
Task_Blinky.asm                                                      PAGE   24

    1266                    ;***************************************************************
    1267                    
    1268                    $C$DW$CIE       .dwcie 14
    1269                            .dwcfi  cfa_register, 13
    1270                            .dwcfi  cfa_offset, 0
    1271                            .dwcfi  undefined, 0
    1272                            .dwcfi  undefined, 1
    1273                            .dwcfi  undefined, 2
    1274                            .dwcfi  undefined, 3
    1275                            .dwcfi  same_value, 4
    1276                            .dwcfi  same_value, 5
    1277                            .dwcfi  same_value, 6
    1278                            .dwcfi  same_value, 7
    1279                            .dwcfi  same_value, 8
    1280                            .dwcfi  same_value, 9
    1281                            .dwcfi  same_value, 10
    1282                            .dwcfi  same_value, 11
    1283                            .dwcfi  undefined, 12
    1284                            .dwcfi  undefined, 13
    1285                            .dwcfi  undefined, 14
    1286                            .dwcfi  undefined, 14
    1287                            .dwcfi  undefined, 7
    1288                            .dwcfi  undefined, 64
    1289                            .dwcfi  undefined, 65
    1290                            .dwcfi  undefined, 66
    1291                            .dwcfi  undefined, 67
    1292                            .dwcfi  undefined, 68
    1293                            .dwcfi  undefined, 69
    1294                            .dwcfi  undefined, 70
    1295                            .dwcfi  undefined, 71
    1296                            .dwcfi  undefined, 72
    1297                            .dwcfi  undefined, 73
    1298                            .dwcfi  undefined, 74
    1299                            .dwcfi  undefined, 75
    1300                            .dwcfi  undefined, 76
    1301                            .dwcfi  undefined, 77
    1302                            .dwcfi  undefined, 78
    1303                            .dwcfi  undefined, 79
    1304                            .dwcfi  same_value, 80
    1305                            .dwcfi  same_value, 81
    1306                            .dwcfi  same_value, 82
    1307                            .dwcfi  same_value, 83
    1308                            .dwcfi  same_value, 84
    1309                            .dwcfi  same_value, 85
    1310                            .dwcfi  same_value, 86
    1311                            .dwcfi  same_value, 87
    1312                            .dwcfi  same_value, 88
    1313                            .dwcfi  same_value, 89
    1314                            .dwcfi  same_value, 90
    1315                            .dwcfi  same_value, 91
    1316                            .dwcfi  same_value, 92
    1317                            .dwcfi  same_value, 93
    1318                            .dwcfi  same_value, 94
    1319                            .dwcfi  same_value, 95
    1320                            .dwendentry
TI ARM Assembler PC v5.2.2 Thu Mar 10 16:26:56 2016

Tools Copyright (c) 1996-2015 Texas Instruments Incorporated
Task_Blinky.asm                                                      PAGE   25

    1321                            .dwendtag $C$DW$CU
    1322                    

--------------------------
Thumb2 Statistics
--------------------------
Number of Thumb2 ins converted to Thumb = 0 (0%)
Number of Thumb ins in input = 19 (70%)
Number of Thumb2 ins encoded as Thumb2 = 8 (100%)
Number of Thumb2 ins converted to 2 OPND Thumb = 0


No Assembly Errors, No Assembly Warnings
